Archive member included because of file (symbol)

/home/orange/OPEN_SOURCE/OrangePi_H5SDK/toolchain/gcc-linaro-aarch/gcc-linaro/bin/../lib/gcc/arm-linux-gnueabi/4.6.3/libgcc.a(_udivsi3.o)
                              arch/arm/cpu/armv7/sun50iw2p1/built-in.o (__aeabi_uidiv)
/home/orange/OPEN_SOURCE/OrangePi_H5SDK/toolchain/gcc-linaro-aarch/gcc-linaro/bin/../lib/gcc/arm-linux-gnueabi/4.6.3/libgcc.a(_divsi3.o)
                              arch/arm/cpu/armv7/sun50iw2p1/built-in.o (__aeabi_idiv)
/home/orange/OPEN_SOURCE/OrangePi_H5SDK/toolchain/gcc-linaro-aarch/gcc-linaro/bin/../lib/gcc/arm-linux-gnueabi/4.6.3/libgcc.a(_lshrdi3.o)
                              lib/built-in.o (__aeabi_llsr)
/home/orange/OPEN_SOURCE/OrangePi_H5SDK/toolchain/gcc-linaro-aarch/gcc-linaro/bin/../lib/gcc/arm-linux-gnueabi/4.6.3/libgcc.a(_ashrdi3.o)
                              drivers/built-in.o (__aeabi_lasr)
/home/orange/OPEN_SOURCE/OrangePi_H5SDK/toolchain/gcc-linaro-aarch/gcc-linaro/bin/../lib/gcc/arm-linux-gnueabi/4.6.3/libgcc.a(_ashldi3.o)
                              drivers/mmc/built-in.o (__aeabi_llsl)
/home/orange/OPEN_SOURCE/OrangePi_H5SDK/toolchain/gcc-linaro-aarch/gcc-linaro/bin/../lib/gcc/arm-linux-gnueabi/4.6.3/libgcc.a(_arm_addsubdf3.o)
                              board/sunxi/cartoon/built-in.o (__aeabi_i2d)
/home/orange/OPEN_SOURCE/OrangePi_H5SDK/toolchain/gcc-linaro-aarch/gcc-linaro/bin/../lib/gcc/arm-linux-gnueabi/4.6.3/libgcc.a(_arm_muldivdf3.o)
                              board/sunxi/cartoon/built-in.o (__aeabi_ddiv)
/home/orange/OPEN_SOURCE/OrangePi_H5SDK/toolchain/gcc-linaro-aarch/gcc-linaro/bin/../lib/gcc/arm-linux-gnueabi/4.6.3/libgcc.a(_arm_truncdfsf2.o)
                              board/sunxi/cartoon/built-in.o (__aeabi_d2f)
/home/orange/OPEN_SOURCE/OrangePi_H5SDK/toolchain/gcc-linaro-aarch/gcc-linaro/bin/../lib/gcc/arm-linux-gnueabi/4.6.3/libgcc.a(_arm_addsubsf3.o)
                              board/sunxi/cartoon/built-in.o (__aeabi_fsub)
/home/orange/OPEN_SOURCE/OrangePi_H5SDK/toolchain/gcc-linaro-aarch/gcc-linaro/bin/../lib/gcc/arm-linux-gnueabi/4.6.3/libgcc.a(_arm_muldivsf3.o)
                              board/sunxi/cartoon/built-in.o (__aeabi_fmul)
/home/orange/OPEN_SOURCE/OrangePi_H5SDK/toolchain/gcc-linaro-aarch/gcc-linaro/bin/../lib/gcc/arm-linux-gnueabi/4.6.3/libgcc.a(_arm_fixsfsi.o)
                              board/sunxi/cartoon/built-in.o (__aeabi_f2iz)
/home/orange/OPEN_SOURCE/OrangePi_H5SDK/toolchain/gcc-linaro-aarch/gcc-linaro/bin/../lib/gcc/arm-linux-gnueabi/4.6.3/libgcc.a(_aeabi_uldivmod.o)
                              lib/openssl/built-in.o (__aeabi_uldivmod)
/home/orange/OPEN_SOURCE/OrangePi_H5SDK/toolchain/gcc-linaro-aarch/gcc-linaro/bin/../lib/gcc/arm-linux-gnueabi/4.6.3/libgcc.a(_dvmd_lnx.o)
                              /home/orange/OPEN_SOURCE/OrangePi_H5SDK/toolchain/gcc-linaro-aarch/gcc-linaro/bin/../lib/gcc/arm-linux-gnueabi/4.6.3/libgcc.a(_udivsi3.o) (__aeabi_idiv0)
/home/orange/OPEN_SOURCE/OrangePi_H5SDK/toolchain/gcc-linaro-aarch/gcc-linaro/bin/../lib/gcc/arm-linux-gnueabi/4.6.3/libgcc.a(bpabi.o)
                              /home/orange/OPEN_SOURCE/OrangePi_H5SDK/toolchain/gcc-linaro-aarch/gcc-linaro/bin/../lib/gcc/arm-linux-gnueabi/4.6.3/libgcc.a(_aeabi_uldivmod.o) (__gnu_uldivmod_helper)
/home/orange/OPEN_SOURCE/OrangePi_H5SDK/toolchain/gcc-linaro-aarch/gcc-linaro/bin/../lib/gcc/arm-linux-gnueabi/4.6.3/libgcc.a(_divdi3.o)
                              /home/orange/OPEN_SOURCE/OrangePi_H5SDK/toolchain/gcc-linaro-aarch/gcc-linaro/bin/../lib/gcc/arm-linux-gnueabi/4.6.3/libgcc.a(bpabi.o) (__divdi3)
/home/orange/OPEN_SOURCE/OrangePi_H5SDK/toolchain/gcc-linaro-aarch/gcc-linaro/bin/../lib/gcc/arm-linux-gnueabi/4.6.3/libgcc.a(_udivdi3.o)
                              /home/orange/OPEN_SOURCE/OrangePi_H5SDK/toolchain/gcc-linaro-aarch/gcc-linaro/bin/../lib/gcc/arm-linux-gnueabi/4.6.3/libgcc.a(bpabi.o) (__udivdi3)

Discarded input sections

 .text          0x00000000        0x0 arch/arm/cpu/armv7/spare_head.o
 .data          0x00000000        0x0 arch/arm/cpu/armv7/spare_head.o
 .bss           0x00000000        0x0 arch/arm/cpu/armv7/spare_head.o
 .text          0x00000000        0x0 arch/arm/cpu/armv7/uboot_hash.o
 .data          0x00000000        0x0 arch/arm/cpu/armv7/uboot_hash.o
 .bss           0x00000000        0x0 arch/arm/cpu/armv7/uboot_hash.o
 .data          0x00000000        0x0 arch/arm/cpu/armv7/start.o
 .bss           0x00000000        0x0 arch/arm/cpu/armv7/start.o
 .text.v7_outer_cache_enable
                0x00000000        0x4 arch/arm/cpu/armv7/built-in.o
 .text.v7_outer_cache_inval_all
                0x00000000        0x4 arch/arm/cpu/armv7/built-in.o
 .text.v7_outer_cache_flush_range
                0x00000000        0x4 arch/arm/cpu/armv7/built-in.o
 .text.mmu_page_table_flush
                0x00000000       0x24 arch/arm/cpu/armv7/built-in.o
 .text.sdelay   0x00000000        0xc arch/arm/cpu/armv7/built-in.o
 .text.wait_on_value
                0x00000000       0x34 arch/arm/cpu/armv7/built-in.o
 .data          0x00000000        0x0 arch/arm/cpu/armv7/built-in.o
 .bss           0x00000000        0x0 arch/arm/cpu/armv7/built-in.o
 .text          0x00000000        0x0 arch/arm/cpu/armv7/sun50iw2p1/built-in.o
 .text.sunxi_clock_get_apb2
                0x00000000        0x8 arch/arm/cpu/armv7/sun50iw2p1/built-in.o
 .text.runtime_tick
                0x00000000       0x10 arch/arm/cpu/armv7/sun50iw2p1/built-in.o
 .text.stick_printf
                0x00000000       0x44 arch/arm/cpu/armv7/sun50iw2p1/built-in.o
 .text.tick0_printf
                0x00000000       0x78 arch/arm/cpu/armv7/sun50iw2p1/built-in.o
 .text.disable_caches
                0x00000000       0x10 arch/arm/cpu/armv7/sun50iw2p1/built-in.o
 .text.display_inner
                0x00000000       0x20 arch/arm/cpu/armv7/sun50iw2p1/built-in.o
 .text.sunxi_clear_fel_flag
                0x00000000       0x10 arch/arm/cpu/armv7/sun50iw2p1/built-in.o
 .text.sunxi_set_rtc_flag
                0x00000000        0xc arch/arm/cpu/armv7/sun50iw2p1/built-in.o
 .text.__rsa_padding
                0x00000000       0x4c arch/arm/cpu/armv7/sun50iw2p1/built-in.o
 .text.sunxi_ss_close
                0x00000000        0x4 arch/arm/cpu/armv7/sun50iw2p1/built-in.o
 .text.sunxi_rsa_calc
                0x00000000      0x194 arch/arm/cpu/armv7/sun50iw2p1/built-in.o
 .text.USBC_GetVbusStatus
                0x00000000       0x30 arch/arm/cpu/armv7/sun50iw2p1/built-in.o
 .text.USBC_OTG_SelectMode
                0x00000000        0x4 arch/arm/cpu/armv7/sun50iw2p1/built-in.o
 .text.USBC_GetPortFifoStartAddr
                0x00000000       0x30 arch/arm/cpu/armv7/sun50iw2p1/built-in.o
 .text.USBC_GetPortFifoSize
                0x00000000       0x24 arch/arm/cpu/armv7/sun50iw2p1/built-in.o
 .text.__USBC_ConfigFifo_RxEp_Default
                0x00000000       0x10 arch/arm/cpu/armv7/sun50iw2p1/built-in.o
 .text.USBC_ConfigFifo_Default
                0x00000000       0x38 arch/arm/cpu/armv7/sun50iw2p1/built-in.o
 .text.USBC_GetLastFrameNumber
                0x00000000       0x10 arch/arm/cpu/armv7/sun50iw2p1/built-in.o
 .text.USBC_GetStatus_Dp
                0x00000000       0x14 arch/arm/cpu/armv7/sun50iw2p1/built-in.o
 .text.USBC_GetStatus_Dm
                0x00000000       0x14 arch/arm/cpu/armv7/sun50iw2p1/built-in.o
 .text.USBC_GetStatus_DpDm
                0x00000000       0x20 arch/arm/cpu/armv7/sun50iw2p1/built-in.o
 .text.USBC_GetOtgMode_Form_ID
                0x00000000       0x18 arch/arm/cpu/armv7/sun50iw2p1/built-in.o
 .text.USBC_GetOtgMode_Form_BDevice
                0x00000000       0x18 arch/arm/cpu/armv7/sun50iw2p1/built-in.o
 .text.USBC_INT_DisableEp
                0x00000000       0x4c arch/arm/cpu/armv7/sun50iw2p1/built-in.o
 .text.USBC_EnterMode_TestPacket
                0x00000000       0x18 arch/arm/cpu/armv7/sun50iw2p1/built-in.o
 .text.USBC_EnterMode_Test_K
                0x00000000       0x18 arch/arm/cpu/armv7/sun50iw2p1/built-in.o
 .text.USBC_EnterMode_Test_J
                0x00000000       0x18 arch/arm/cpu/armv7/sun50iw2p1/built-in.o
 .text.USBC_EnterMode_Test_SE0_NAK
                0x00000000       0x18 arch/arm/cpu/armv7/sun50iw2p1/built-in.o
 .text.USBC_EnterMode_Idle
                0x00000000       0x4c arch/arm/cpu/armv7/sun50iw2p1/built-in.o
 .text.USBC_SetWakeUp_Default
                0x00000000        0x4 arch/arm/cpu/armv7/sun50iw2p1/built-in.o
 .text.USBC_DisableIdPullUp
                0x00000000       0x18 arch/arm/cpu/armv7/sun50iw2p1/built-in.o
 .text.USBC_DisableDpDmPullUp
                0x00000000       0x18 arch/arm/cpu/armv7/sun50iw2p1/built-in.o
 .text.USBC_A_valid_InputSelect
                0x00000000        0x4 arch/arm/cpu/armv7/sun50iw2p1/built-in.o
 .text.USBC_EnableUsbLineStateBypass
                0x00000000        0x4 arch/arm/cpu/armv7/sun50iw2p1/built-in.o
 .text.USBC_DisableUsbLineStateBypass
                0x00000000        0x4 arch/arm/cpu/armv7/sun50iw2p1/built-in.o
 .text.USBC_EnableHosc
                0x00000000       0x18 arch/arm/cpu/armv7/sun50iw2p1/built-in.o
 .text.USBC_DisableHosc
                0x00000000       0x14 arch/arm/cpu/armv7/sun50iw2p1/built-in.o
 .text.USBC_IsVbusChange
                0x00000000       0x1c arch/arm/cpu/armv7/sun50iw2p1/built-in.o
 .text.USBC_IsIdChange
                0x00000000       0x1c arch/arm/cpu/armv7/sun50iw2p1/built-in.o
 .text.USBC_IsDpDmChange
                0x00000000       0x1c arch/arm/cpu/armv7/sun50iw2p1/built-in.o
 .text.USBC_DisableWakeIrq
                0x00000000       0x14 arch/arm/cpu/armv7/sun50iw2p1/built-in.o
 .text.USBC_DisableVbusChange
                0x00000000       0x14 arch/arm/cpu/armv7/sun50iw2p1/built-in.o
 .text.USBC_DisableIdChange
                0x00000000       0x14 arch/arm/cpu/armv7/sun50iw2p1/built-in.o
 .text.USBC_DisableDpDmChange
                0x00000000       0x14 arch/arm/cpu/armv7/sun50iw2p1/built-in.o
 .text.USBC_EnableWakeIrq
                0x00000000       0x18 arch/arm/cpu/armv7/sun50iw2p1/built-in.o
 .text.USBC_EnableVbusChange
                0x00000000       0x18 arch/arm/cpu/armv7/sun50iw2p1/built-in.o
 .text.USBC_EnableIdChange
                0x00000000       0x18 arch/arm/cpu/armv7/sun50iw2p1/built-in.o
 .text.USBC_EnableDpDmChange
                0x00000000       0x18 arch/arm/cpu/armv7/sun50iw2p1/built-in.o
 .text.USBC_TestMode_ReadReg
                0x00000000       0x3c arch/arm/cpu/armv7/sun50iw2p1/built-in.o
 .text.USBC_PrintAllReg
                0x00000000      0x35c arch/arm/cpu/armv7/sun50iw2p1/built-in.o
 .text.USBC_init
                0x00000000        0x8 arch/arm/cpu/armv7/sun50iw2p1/built-in.o
 .text.USBC_exit
                0x00000000       0x48 arch/arm/cpu/armv7/sun50iw2p1/built-in.o
 .text.USBC_Dev_QueryPowerStatus
                0x00000000       0x14 arch/arm/cpu/armv7/sun50iw2p1/built-in.o
 .text.USBC_Dev_ConfigEp_Default
                0x00000000       0x68 arch/arm/cpu/armv7/sun50iw2p1/built-in.o
 .text.USBC_Dev_IsWriteDataReady_FifoEmpty
                0x00000000       0x3c arch/arm/cpu/armv7/sun50iw2p1/built-in.o
 .text.USBC_Dev_IsoUpdateEnable
                0x00000000       0x20 arch/arm/cpu/armv7/sun50iw2p1/built-in.o
 .text.USBC_Dev_FlushFifo
                0x00000000       0x48 arch/arm/cpu/armv7/sun50iw2p1/built-in.o
 .text.USBC_Host_SetFunctionAddress_Deafult
                0x00000000       0x5c arch/arm/cpu/armv7/sun50iw2p1/built-in.o
 .text.USBC_Host_SetFunctionAddress
                0x00000000       0x88 arch/arm/cpu/armv7/sun50iw2p1/built-in.o
 .text.USBC_Host_SetHubAddress_Deafult
                0x00000000       0x30 arch/arm/cpu/armv7/sun50iw2p1/built-in.o
 .text.USBC_Host_SetHubAddress
                0x00000000       0x48 arch/arm/cpu/armv7/sun50iw2p1/built-in.o
 .text.USBC_Host_SetHPortAddress_Deafult
                0x00000000       0x30 arch/arm/cpu/armv7/sun50iw2p1/built-in.o
 .text.USBC_Host_SetHPortAddress
                0x00000000       0x28 arch/arm/cpu/armv7/sun50iw2p1/built-in.o
 .text.USBC_Host_QueryTransferMode
                0x00000000       0x20 arch/arm/cpu/armv7/sun50iw2p1/built-in.o
 .text.USBC_Host_ConfigTransferMode
                0x00000000       0x34 arch/arm/cpu/armv7/sun50iw2p1/built-in.o
 .text.USBC_Host_ResetPort
                0x00000000       0x18 arch/arm/cpu/armv7/sun50iw2p1/built-in.o
 .text.USBC_Host_ClearResetPortFlag
                0x00000000       0x18 arch/arm/cpu/armv7/sun50iw2p1/built-in.o
 .text.USBC_Host_RusumePort
                0x00000000       0x18 arch/arm/cpu/armv7/sun50iw2p1/built-in.o
 .text.USBC_Host_ClearRusumePortFlag
                0x00000000       0x18 arch/arm/cpu/armv7/sun50iw2p1/built-in.o
 .text.USBC_Host_SuspendPort
                0x00000000       0x18 arch/arm/cpu/armv7/sun50iw2p1/built-in.o
 .text.USBC_Host_QueryPowerStatus
                0x00000000       0x10 arch/arm/cpu/armv7/sun50iw2p1/built-in.o
 .text.USBC_Host_StartSession
                0x00000000       0x18 arch/arm/cpu/armv7/sun50iw2p1/built-in.o
 .text.USBC_Host_EndSession
                0x00000000       0x18 arch/arm/cpu/armv7/sun50iw2p1/built-in.o
 .text.USBC_Host_PeripheralType
                0x00000000       0x20 arch/arm/cpu/armv7/sun50iw2p1/built-in.o
 .text.USBC_Host_FlushFifo
                0x00000000       0x48 arch/arm/cpu/armv7/sun50iw2p1/built-in.o
 .text.USBC_Host_ConfigEp_Default
                0x00000000       0x84 arch/arm/cpu/armv7/sun50iw2p1/built-in.o
 .text.USBC_Host_ConfigEp
                0x00000000      0x15c arch/arm/cpu/armv7/sun50iw2p1/built-in.o
 .text.USBC_Host_ConfigEpDma
                0x00000000       0x44 arch/arm/cpu/armv7/sun50iw2p1/built-in.o
 .text.USBC_Host_ClearEpDma
                0x00000000       0x50 arch/arm/cpu/armv7/sun50iw2p1/built-in.o
 .text.USBC_Host_IsEpNakTimeOut
                0x00000000       0x44 arch/arm/cpu/armv7/sun50iw2p1/built-in.o
 .text.USBC_Host_ClearEpNakTimeOut
                0x00000000       0x50 arch/arm/cpu/armv7/sun50iw2p1/built-in.o
 .text.USBC_Host_IsEpError
                0x00000000       0x54 arch/arm/cpu/armv7/sun50iw2p1/built-in.o
 .text.USBC_Host_ClearEpError
                0x00000000       0x60 arch/arm/cpu/armv7/sun50iw2p1/built-in.o
 .text.USBC_Host_IsEpStall
                0x00000000       0x4c arch/arm/cpu/armv7/sun50iw2p1/built-in.o
 .text.USBC_Host_ClearEpStall
                0x00000000       0x60 arch/arm/cpu/armv7/sun50iw2p1/built-in.o
 .text.USBC_Host_ClearEpCSR
                0x00000000       0x3c arch/arm/cpu/armv7/sun50iw2p1/built-in.o
 .text.USBC_Host_IsReadDataReady
                0x00000000       0x40 arch/arm/cpu/armv7/sun50iw2p1/built-in.o
 .text.USBC_Host_IsWriteDataReady
                0x00000000       0x48 arch/arm/cpu/armv7/sun50iw2p1/built-in.o
 .text.USBC_Host_ReadDataStatus
                0x00000000       0x9c arch/arm/cpu/armv7/sun50iw2p1/built-in.o
 .text.USBC_Host_WriteDataStatus
                0x00000000       0x84 arch/arm/cpu/armv7/sun50iw2p1/built-in.o
 .text.USBC_Host_IsReqPktSet
                0x00000000       0x40 arch/arm/cpu/armv7/sun50iw2p1/built-in.o
 .text.USBC_Host_StartInToken
                0x00000000       0x44 arch/arm/cpu/armv7/sun50iw2p1/built-in.o
 .text.USBC_Host_StopInToken
                0x00000000       0x4c arch/arm/cpu/armv7/sun50iw2p1/built-in.o
 .text.USBC_Host_ConfigRqPktCount
                0x00000000       0x14 arch/arm/cpu/armv7/sun50iw2p1/built-in.o
 .text.USBC_Host_ClearRqPktCount
                0x00000000       0x14 arch/arm/cpu/armv7/sun50iw2p1/built-in.o
 .text.USBC_Host_EnablePing
                0x00000000       0x1c arch/arm/cpu/armv7/sun50iw2p1/built-in.o
 .text.USBC_Host_DisablePing
                0x00000000       0x18 arch/arm/cpu/armv7/sun50iw2p1/built-in.o
 .text.USBC_Host_SendCtrlStatus
                0x00000000       0x24 arch/arm/cpu/armv7/sun50iw2p1/built-in.o
 .text.USBC_Host_SendSetupPkt
                0x00000000       0x18 arch/arm/cpu/armv7/sun50iw2p1/built-in.o
 .text.usb_phy0_write.constprop.0
                0x00000000       0x34 arch/arm/cpu/armv7/sun50iw2p1/built-in.o
 .text.USBC_PHY_SetCommonConfig
                0x00000000        0x4 arch/arm/cpu/armv7/sun50iw2p1/built-in.o
 .text.USBC_PHY_SetPrivateConfig
                0x00000000        0x4 arch/arm/cpu/armv7/sun50iw2p1/built-in.o
 .text.USBC_PHY_GetCommonConfig
                0x00000000        0x8 arch/arm/cpu/armv7/sun50iw2p1/built-in.o
 .text.USBC_phy_Standby
                0x00000000       0x54 arch/arm/cpu/armv7/sun50iw2p1/built-in.o
 .text.USBC_Phy_Standby_Recover
                0x00000000        0x4 arch/arm/cpu/armv7/sun50iw2p1/built-in.o
 .rodata.CSWTCH.7
                0x00000000        0x3 arch/arm/cpu/armv7/sun50iw2p1/built-in.o
 .rodata.CSWTCH.6
                0x00000000        0x3 arch/arm/cpu/armv7/sun50iw2p1/built-in.o
 .rodata.CSWTCH.2
                0x00000000        0x3 arch/arm/cpu/armv7/sun50iw2p1/built-in.o
 .rodata.CSWTCH.4
                0x00000000        0x3 arch/arm/cpu/armv7/sun50iw2p1/built-in.o
 .bss           0x00000000        0x0 arch/arm/cpu/armv7/sun50iw2p1/built-in.o
 .text.flush_cache
                0x00000000        0x4 arch/arm/lib/built-in.o
 .text.flush_dcache_all
                0x00000000        0xc arch/arm/lib/built-in.o
 .text.enable_caches
                0x00000000        0xc arch/arm/lib/built-in.o
 .text.arm_init_before_mmu
                0x00000000        0x4 arch/arm/lib/built-in.o
 .text.mmu_page_table_flush
                0x00000000        0x4 arch/arm/lib/built-in.o
 .text.mmu_set_region_dcache_behaviour
                0x00000000       0x50 arch/arm/lib/built-in.o
 .text.icache_status
                0x00000000        0xc arch/arm/lib/built-in.o
 .data          0x00000000        0x0 arch/arm/lib/built-in.o
 .bss           0x00000000        0x0 arch/arm/lib/built-in.o
 .text          0x00000000        0x0 board/sunxi/cartoon/built-in.o
 .text.sprite_cartoon_destroy
                0x00000000       0x1c board/sunxi/cartoon/built-in.o
 .text.sprite_cartoon_progressbar_destroy
                0x00000000       0x44 board/sunxi/cartoon/built-in.o
 .text.sprite_cartoon_ui_draw_line
                0x00000000      0x2b8 board/sunxi/cartoon/built-in.o
 .text.sprite_cartoon_ui_draw_lineto
                0x00000000       0x38 board/sunxi/cartoon/built-in.o
 .text.sprite_cartoon_ui_draw_point
                0x00000000       0x30 board/sunxi/cartoon/built-in.o
 .text.sprite_cartoon_ui_moveto
                0x00000000       0x18 board/sunxi/cartoon/built-in.o
 .text.sprite_cartoon_ui_clear
                0x00000000       0x24 board/sunxi/cartoon/built-in.o
 .text.close_font
                0x00000000       0x48 board/sunxi/cartoon/built-in.o
 .text.draw_cursor
                0x00000000       0xd4 board/sunxi/cartoon/built-in.o
 .text.SFTE_Get_Pixel_Sizes
                0x00000000       0x38 board/sunxi/cartoon/built-in.o
 .text.SFTE_Get_Pixel_Size_List
                0x00000000       0x6c board/sunxi/cartoon/built-in.o
 .text.SFTE_Get_Pixel_Size_Count
                0x00000000       0x1c board/sunxi/cartoon/built-in.o
 .text.SFTE_Get_XAdvance
                0x00000000       0x90 board/sunxi/cartoon/built-in.o
 .data          0x00000000        0x0 board/sunxi/cartoon/built-in.o
 .bss           0x00000000        0x0 board/sunxi/cartoon/built-in.o
 .bss.progress  0x00000000       0x38 board/sunxi/cartoon/built-in.o
 .text          0x00000000        0x0 board/sunxi/common/built-in.o
 .text.PIO_REG_DLEVEL_VALUE
                0x00000000       0x1c board/sunxi/common/built-in.o
 .text.PIO_REG_PULL_VALUE
                0x00000000       0x38 board/sunxi/common/built-in.o
 .text.gpio_get_all_pin_status
                0x00000000      0x29c board/sunxi/common/built-in.o
 .text.gpio_get_one_pin_status
                0x00000000      0x160 board/sunxi/common/built-in.o
 .text.gpio_set_one_pin_status
                0x00000000      0x1ac board/sunxi/common/built-in.o
 .text.gpio_set_one_pin_pull
                0x00000000       0xc4 board/sunxi/common/built-in.o
 .text.gpio_set_one_pin_driver_level
                0x00000000       0xc4 board/sunxi/common/built-in.o
 .text.fdt_get_pin_num
                0x00000000      0x118 board/sunxi/common/built-in.o
 .text.fdt_set_pin_byname
                0x00000000       0x5c board/sunxi/common/built-in.o
 .text.fdt_set_one_gpio
                0x00000000       0x34 board/sunxi/common/built-in.o
 .text.fdt_set_normal_gpio
                0x00000000       0x1c board/sunxi/common/built-in.o
 .text.sw_cfg_get_subkey
                0x00000000       0x90 board/sunxi/common/built-in.o
 .text.sw_cfg_get_int
                0x00000000       0x30 board/sunxi/common/built-in.o
 .text.sw_cfg_get_str
                0x00000000       0x4c board/sunxi/common/built-in.o
 .text.script_get_length
                0x00000000        0xc board/sunxi/common/built-in.o
 .text.script_parser_exit
                0x00000000       0x10 board/sunxi/common/built-in.o
 .text.script_parser_subkey
                0x00000000       0xa4 board/sunxi/common/built-in.o
 .text.script_parser_fetch_subkey_start
                0x00000000       0xb0 board/sunxi/common/built-in.o
 .text.script_parser_fetch_subkey_next
                0x00000000       0xb8 board/sunxi/common/built-in.o
 .text.script_parser_fetch_ex
                0x00000000      0x23c board/sunxi/common/built-in.o
 .text.script_parser_patch_all
                0x00000000       0xd8 board/sunxi/common/built-in.o
 .text.script_parser_subkey_count
                0x00000000       0xa4 board/sunxi/common/built-in.o
 .text.script_parser_mainkey_count
                0x00000000       0x14 board/sunxi/common/built-in.o
 .text.script_parser_mainkey_get_gpio_count
                0x00000000       0xe4 board/sunxi/common/built-in.o
 .text.script_parser_mainkey_get_gpio_cfg
                0x00000000      0x154 board/sunxi/common/built-in.o
 .text.gpio_request_ex
                0x00000000       0xa0 board/sunxi/common/built-in.o
 .text.gpio_request_simple
                0x00000000       0xb4 board/sunxi/common/built-in.o
 .text.upper    0x00000000       0x20 board/sunxi/common/built-in.o
 .text.lower    0x00000000       0x20 board/sunxi/common/built-in.o
 .text.sunxi_partition_get_info_byname
                0x00000000       0xd8 board/sunxi/common/built-in.o
 .text.sunxi_partition_fetch_mbr
                0x00000000       0x24 board/sunxi/common/built-in.o
 .text.sunxi_partition_refresh
                0x00000000       0x4c board/sunxi/common/built-in.o
 .text.dragonboard_handler
                0x00000000        0x8 board/sunxi/common/built-in.o
 .text.__usb_probe_vbus_type
                0x00000000        0x8 board/sunxi/common/built-in.o
 .text.__sunxi_bmp_display
                0x00000000        0x8 board/sunxi/common/built-in.o
 .text.get_serial_num_from_file
                0x00000000      0x160 board/sunxi/common/built-in.o
 .text.read_start_mode
                0x00000000        0xc board/sunxi/common/built-in.o
 .text.write_start_mode
                0x00000000       0x10 board/sunxi/common/built-in.o
 .text.get_saved_hdmi_vendor_id
                0x00000000       0xd0 board/sunxi/common/built-in.o
 .text.board_display_layer_request
                0x00000000        0xc board/sunxi/common/built-in.o
 .text.board_display_layer_release
                0x00000000        0x8 board/sunxi/common/built-in.o
 .text.board_display_layer_close
                0x00000000       0x5c board/sunxi/common/built-in.o
 .text.board_display_set_alpha_mode
                0x00000000       0x18 board/sunxi/common/built-in.o
 .text.board_display_framebuffer_change
                0x00000000        0x8 board/sunxi/common/built-in.o
 .text.get_display_resolution
                0x00000000       0xc4 board/sunxi/common/built-in.o
 .text.init_display_out_attr
                0x00000000      0x178 board/sunxi/common/built-in.o
 .text.board_display_device_open
                0x00000000      0x52c board/sunxi/common/built-in.o
 .text.board_display_setenv
                0x00000000       0x18 board/sunxi/common/built-in.o
 .text.borad_display_get_screen_width
                0x00000000       0x3c board/sunxi/common/built-in.o
 .text.borad_display_get_screen_height
                0x00000000       0x3c board/sunxi/common/built-in.o
 .text.fb_quit  0x00000000       0x68 board/sunxi/common/built-in.o
 .text.hal_get_screen_size
                0x00000000       0x50 board/sunxi/common/built-in.o
 .text.hal_set_layer_crop
                0x00000000        0x8 board/sunxi/common/built-in.o
 .text.hal_release_layer
                0x00000000       0xa8 board/sunxi/common/built-in.o
 .rodata.__func__.5030
                0x00000000       0x10 board/sunxi/common/built-in.o
 .rodata.__func__.5232
                0x00000000       0x12 board/sunxi/common/built-in.o
 .data          0x00000000        0x0 board/sunxi/common/built-in.o
 .bss           0x00000000        0x0 board/sunxi/common/built-in.o
 .text          0x00000000        0x0 board/sunxi/sun50iw2p1/built-in.o
 .text.board_mmc_get_num
                0x00000000        0x8 board/sunxi/sun50iw2p1/built-in.o
 .text.cpu0_set_detected_paras
                0x00000000        0x8 board/sunxi/sun50iw2p1/built-in.o
 .text.get_spare_head_size
                0x00000000        0x8 board/sunxi/sun50iw2p1/built-in.o
 .text.board_hardware_info
                0x00000000        0xc board/sunxi/sun50iw2p1/built-in.o
 .data          0x00000000        0x0 board/sunxi/sun50iw2p1/built-in.o
 .bss           0x00000000        0x0 board/sunxi/sun50iw2p1/built-in.o
 .text          0x00000000        0x0 common/built-in.o
 .text.cmd_process_error
                0x00000000       0x30 common/built-in.o
 .text.hash_finish_crc32
                0x00000000       0x30 common/built-in.o
 .text.hash_update_crc32
                0x00000000       0x24 common/built-in.o
 .text.hash_init_crc32
                0x00000000       0x24 common/built-in.o
 .text.hash_lookup_algo
                0x00000000       0x28 common/built-in.o
 .text.hash_show
                0x00000000       0x58 common/built-in.o
 .text.hash_block
                0x00000000       0x6c common/built-in.o
 .text.unset_local_var
                0x00000000       0xa0 common/built-in.o
 .text.cli_simple_parse_line
                0x00000000       0x80 common/built-in.o
 .text.cli_simple_run_command
                0x00000000      0x328 common/built-in.o
 .text.cli_simple_loop
                0x00000000       0x78 common/built-in.o
 .text.cli_simple_run_command_list
                0x00000000       0x74 common/built-in.o
 .text.run_command_repeatable
                0x00000000       0x18 common/built-in.o
 .text.hex1_bin
                0x00000000       0x38 common/built-in.o
 .text.hex2_bin
                0x00000000       0x34 common/built-in.o
 .text.srec_decode
                0x00000000      0x260 common/built-in.o
 .text.CYGACC_COMM_IF_GETC_TIMEOUT.isra.1
                0x00000000       0x4c common/built-in.o
 .text.xyzModem_flush
                0x00000000       0x18 common/built-in.o
 .text.xyzModem_get_hdr
                0x00000000      0x244 common/built-in.o
 .text.xyzModem_stream_open
                0x00000000      0x24c common/built-in.o
 .text.xyzModem_stream_read
                0x00000000      0x244 common/built-in.o
 .text.xyzModem_stream_close
                0x00000000       0x50 common/built-in.o
 .text.xyzModem_stream_terminate
                0x00000000       0x94 common/built-in.o
 .text.xyzModem_error
                0x00000000       0x20 common/built-in.o
 .text.__red_led_off
                0x00000000        0x4 common/built-in.o
 .text.__green_led_on
                0x00000000        0x4 common/built-in.o
 .text.__green_led_off
                0x00000000        0x4 common/built-in.o
 .text.__yellow_led_on
                0x00000000        0x4 common/built-in.o
 .text.__yellow_led_off
                0x00000000        0x4 common/built-in.o
 .text.__blue_led_on
                0x00000000        0x4 common/built-in.o
 .text.__blue_led_off
                0x00000000        0x4 common/built-in.o
 .text.__board_add_ram_info
                0x00000000        0x4 common/built-in.o
 .text.__dram_init_banksize
                0x00000000       0x20 common/built-in.o
 .text.__board_flash_wp_on
                0x00000000        0x8 common/built-in.o
 .text.fixup_cpu
                0x00000000        0x8 common/built-in.o
 .text.initr_mmc
                0x00000000       0x20 common/built-in.o
 .text.display_for_hdcp
                0x00000000       0xf8 common/built-in.o
 .text.bootm_maybe_autostart
                0x00000000       0x74 common/built-in.o
 .text.bootm_disable_interrupts
                0x00000000        0x4 common/built-in.o
 .text.sunxi_usb_dev_register
                0x00000000        0x8 common/built-in.o
 .text.sunxi_usb_main_loop
                0x00000000        0x4 common/built-in.o
 .text.env_flags_parse_varaccess_from_binflags
                0x00000000       0x4c common/built-in.o
 .text.of_bus_default_map
                0x00000000       0xf0 common/built-in.o
 .text.of_bus_default_count_cells
                0x00000000       0x74 common/built-in.o
 .text.fdt_read_prop
                0x00000000       0x8c common/built-in.o
 .text.of_bus_default_translate
                0x00000000       0x9c common/built-in.o
 .text.fdt_getprop_u32_default_node
                0x00000000       0x3c common/built-in.o
 .text.fdt_getprop_u32_default
                0x00000000       0x38 common/built-in.o
 .text.do_fixup_by_path_u32
                0x00000000       0x2c common/built-in.o
 .text.do_fixup_by_prop
                0x00000000       0x90 common/built-in.o
 .text.do_fixup_by_prop_u32
                0x00000000       0x3c common/built-in.o
 .text.do_fixup_by_compat
                0x00000000       0x80 common/built-in.o
 .text.do_fixup_by_compat_u32
                0x00000000       0x2c common/built-in.o
 .text.fdt_increase_size
                0x00000000       0x14 common/built-in.o
 .text.fdt_del_node_and_alias
                0x00000000       0x44 common/built-in.o
 .text.fdt_translate_address
                0x00000000      0x294 common/built-in.o
 .text.fdt_node_offset_by_compat_reg
                0x00000000       0x88 common/built-in.o
 .text.fdt_alloc_phandle
                0x00000000       0x58 common/built-in.o
 .text.fdt_set_phandle
                0x00000000       0x60 common/built-in.o
 .text.fdt_create_phandle
                0x00000000       0x64 common/built-in.o
 .text.fdt_set_status_by_alias
                0x00000000       0x2c common/built-in.o
 .text.fdt_verify_alias_address
                0x00000000       0xd0 common/built-in.o
 .text.fdt_get_base_address
                0x00000000       0x78 common/built-in.o
 .text.fdt_read_range
                0x00000000      0x13c common/built-in.o
 .text.sunxi_verify_signature
                0x00000000      0x184 common/built-in.o
 .text.__splash_screen_prepare
                0x00000000        0x8 common/built-in.o
 .text.get_env_id
                0x00000000       0x10 common/built-in.o
 .text.__env_get_char_spec
                0x00000000        0xc common/built-in.o
 .text.serial_printf
                0x00000000       0x40 common/built-in.o
 .text.confirm_yesno
                0x00000000       0xc4 common/built-in.o
 .text.dbg      0x00000000        0xc common/built-in.o
 .text.cfree    0x00000000        0x4 common/built-in.o
 .text.pvalloc  0x00000000       0x18 common/built-in.o
 .text.valloc   0x00000000        0xc common/built-in.o
 .text.malloc_usable_size
                0x00000000       0x3c common/built-in.o
 .text.mallopt  0x00000000       0x70 common/built-in.o
 .text.get_table_entry_id
                0x00000000       0x4c common/built-in.o
 .text.genimg_get_os_id
                0x00000000       0x18 common/built-in.o
 .text.genimg_get_arch_id
                0x00000000       0x18 common/built-in.o
 .text.genimg_get_type_id
                0x00000000       0x18 common/built-in.o
 .text.genimg_get_comp_id
                0x00000000       0x18 common/built-in.o
 .text.genimg_has_config
                0x00000000        0x8 common/built-in.o
 .text.boot_get_fdt
                0x00000000      0x270 common/built-in.o
 .text.arch_fixup_memory_node
                0x00000000        0x8 common/built-in.o
 .text.free_noncache
                0x00000000       0x40 common/built-in.o
 .rodata.CSWTCH.13
                0x00000000       0x20 common/built-in.o
 .rodata.__FUNCTION__.4773
                0x00000000       0x17 common/built-in.o
 .rodata.__func__.10926
                0x00000000       0x17 common/built-in.o
 .data.hash_algo
                0x00000000       0x1c common/built-in.o
 .data.env_size
                0x00000000        0x4 common/built-in.o
 .data.of_busses
                0x00000000       0x14 common/built-in.o
 .data.mmap_threshold
                0x00000000        0x4 common/built-in.o
 .bss           0x00000000        0x0 common/built-in.o
 .bss.lastcommand.3797
                0x00000000      0x100 common/built-in.o
 .bss.xyz       0x00000000      0x434 common/built-in.o
 .bss.env_ptr   0x00000000        0x4 common/built-in.o
 .bss.n_mmaps_max
                0x00000000        0x4 common/built-in.o
 .bss.save_addr
                0x00000000        0x4 common/built-in.o
 .bss.save_size
                0x00000000        0x4 common/built-in.o
 .text          0x00000000        0x0 disk/built-in.o
 .text.get_dev  0x00000000        0x8 disk/built-in.o
 .data          0x00000000        0x0 disk/built-in.o
 .bss           0x00000000        0x0 disk/built-in.o
 .text          0x00000000        0x0 drivers/built-in.o
 .text.drv_lcd_close_callback
                0x00000000       0x8c drivers/built-in.o
 .text.disp_set_hdmi_detect
                0x00000000        0x4 drivers/built-in.o
 .text.drv_disp_standby
                0x00000000      0x154 drivers/built-in.o
 .text.disp_sys_cache_flush
                0x00000000        0x4 drivers/built-in.o
 .text.mutex_destroy
                0x00000000        0x4 drivers/built-in.o
 .text.disp_sys_get_ic_ver
                0x00000000        0x8 drivers/built-in.o
 .text.disp_sys_gpio_get_value
                0x00000000        0x4 drivers/built-in.o
 .text.disp_sys_pwm_free
                0x00000000        0x8 drivers/built-in.o
 .text.disp_device_attached
                0x00000000       0xec drivers/built-in.o
 .text.disp_device_detach
                0x00000000       0x94 drivers/built-in.o
 .text.bsp_disp_sync_with_hw
                0x00000000       0xf4 drivers/built-in.o
 .text.bsp_disp_set_print_level
                0x00000000       0x14 drivers/built-in.o
 .text.bsp_disp_get_print_level
                0x00000000       0x10 drivers/built-in.o
 .text.bsp_disp_get_screen_physical_width
                0x00000000       0x48 drivers/built-in.o
 .text.bsp_disp_get_screen_physical_height
                0x00000000       0x48 drivers/built-in.o
 .text.bsp_disp_get_screen_width
                0x00000000        0x8 drivers/built-in.o
 .text.bsp_disp_get_screen_height
                0x00000000        0x8 drivers/built-in.o
 .text.bsp_disp_get_screen_width_from_output_type
                0x00000000      0x134 drivers/built-in.o
 .text.bsp_disp_get_screen_height_from_output_type
                0x00000000      0x138 drivers/built-in.o
 .text.bsp_disp_hdmi_set_detect
                0x00000000       0x58 drivers/built-in.o
 .text.bsp_disp_lcd_get_close_flow
                0x00000000       0x30 drivers/built-in.o
 .text.bsp_disp_get_lcd_registered
                0x00000000       0x14 drivers/built-in.o
 .text.bsp_disp_get_hdmi_registered
                0x00000000       0x10 drivers/built-in.o
 .text.bsp_disp_get_tv_registered
                0x00000000       0x10 drivers/built-in.o
 .text.bsp_disp_lcd_set_bright
                0x00000000       0x38 drivers/built-in.o
 .text.bsp_disp_get_fb_info
                0x00000000        0x4 drivers/built-in.o
 .text.bsp_disp_get_display_size
                0x00000000        0x4 drivers/built-in.o
 .text.bsp_disp_feat_is_support_capture
                0x00000000        0x4 drivers/built-in.o
 .text.disp_device_get_list_head
                0x00000000        0xc drivers/built-in.o
 .text.disp_device_unregister
                0x00000000       0x20 drivers/built-in.o
 .text.disp_lcd_gpio_get_value
                0x00000000       0x64 drivers/built-in.o
 .text.dump_layer_config
                0x00000000      0x25c drivers/built-in.o
 .text.disp_get_hdmi
                0x00000000       0x58 drivers/built-in.o
 .text.disp_vdevice_event_proc
                0x00000000       0x54 drivers/built-in.o
 .text.disp_vdevice_get_priv
                0x00000000       0x28 drivers/built-in.o
 .text.disp_vdevice_tcon_simple_enable
                0x00000000       0xbc drivers/built-in.o
 .text.disp_vdevice_tcon_disable
                0x00000000       0xdc drivers/built-in.o
 .text.disp_vdevice_tcon_enable
                0x00000000      0x230 drivers/built-in.o
 .text.disp_vdevice_sw_enable
                0x00000000      0x128 drivers/built-in.o
 .text.disp_vdevice_detect
                0x00000000       0x48 drivers/built-in.o
 .text.disp_vdevice_get_input_color_range
                0x00000000       0x34 drivers/built-in.o
 .text.disp_vdevice_get_input_csc
                0x00000000       0x40 drivers/built-in.o
 .text.disp_vdevice_check_support_mode
                0x00000000       0x50 drivers/built-in.o
 .text.disp_vdevice_get_mode
                0x00000000       0x34 drivers/built-in.o
 .text.disp_vdevice_set_mode
                0x00000000       0x5c drivers/built-in.o
 .text.disp_vdevice_is_enabled
                0x00000000       0x34 drivers/built-in.o
 .text.disp_vdevice_tcon_simple_disable
                0x00000000       0x68 drivers/built-in.o
 .text.disp_vdevice_resume
                0x00000000       0x7c drivers/built-in.o
 .text.disp_vdevice_suspend
                0x00000000       0x7c drivers/built-in.o
 .text.disp_vdevice_disable
                0x00000000       0x90 drivers/built-in.o
 .text.disp_vdevice_enable
                0x00000000       0x90 drivers/built-in.o
 .text.disp_vdevice_exit
                0x00000000       0x6c drivers/built-in.o
 .text.disp_vdevice_init
                0x00000000       0x70 drivers/built-in.o
 .text.disp_vdevice_register
                0x00000000      0x208 drivers/built-in.o
 .text.disp_vdevice_unregister
                0x00000000       0x54 drivers/built-in.o
 .text.disp_vdevice_get_source_ops
                0x00000000       0x24 drivers/built-in.o
 .text.sunxi_lcd_cpu_write
                0x00000000       0x28 drivers/built-in.o
 .text.sunxi_lcd_cpu_write_index
                0x00000000       0x28 drivers/built-in.o
 .text.sunxi_lcd_cpu_write_data
                0x00000000       0x28 drivers/built-in.o
 .text.sunxi_lcd_dsi_dcs_write_3para
                0x00000000       0x28 drivers/built-in.o
 .text.sunxi_lcd_dsi_gen_write_0para
                0x00000000       0x18 drivers/built-in.o
 .text.sunxi_lcd_dsi_gen_write_3para
                0x00000000       0x28 drivers/built-in.o
 .text.sunxi_lcd_dsi_gen_write_4para
                0x00000000       0x30 drivers/built-in.o
 .text.sunxi_lcd_gpio_set_direction
                0x00000000       0x28 drivers/built-in.o
 .text.de_gsu_set_reg_base
                0x00000000       0x1c drivers/built-in.o
 .text.de_gsu_enable
                0x00000000       0x40 drivers/built-in.o
 .text.de_al_query_irq
                0x00000000        0x4 drivers/built-in.o
 .text.de_al_enable_irq
                0x00000000        0x4 drivers/built-in.o
 .text.disp_al_manager_query_irq
                0x00000000        0x4 drivers/built-in.o
 .text.disp_al_manager_enable_irq
                0x00000000        0x8 drivers/built-in.o
 .text.disp_al_manager_disable_irq
                0x00000000        0x8 drivers/built-in.o
 .text.disp_al_capture_init
                0x00000000        0x8 drivers/built-in.o
 .text.disp_al_capture_exit
                0x00000000        0x8 drivers/built-in.o
 .text.disp_al_capture_sync
                0x00000000       0x20 drivers/built-in.o
 .text.disp_al_capture_apply
                0x00000000        0x4 drivers/built-in.o
 .text.disp_al_capture_get_status
                0x00000000        0x4 drivers/built-in.o
 .text.disp_al_smbl_sync
                0x00000000        0x8 drivers/built-in.o
 .text.disp_al_lcd_tri_busy
                0x00000000       0x14 drivers/built-in.o
 .text.disp_al_lcd_tri_start
                0x00000000        0x4 drivers/built-in.o
 .text.disp_al_vdevice_cfg
                0x00000000      0x198 drivers/built-in.o
 .text.disp_al_vdevice_enable
                0x00000000       0x3c drivers/built-in.o
 .text.disp_al_vdevice_disable
                0x00000000       0x2c drivers/built-in.o
 .text.disp_al_device_enable_irq
                0x00000000       0x20 drivers/built-in.o
 .text.disp_al_device_disable_irq
                0x00000000       0x20 drivers/built-in.o
 .text.disp_al_device_src_select
                0x00000000        0x8 drivers/built-in.o
 .text.disp_al_get_fb_info
                0x00000000        0x8 drivers/built-in.o
 .text.disp_al_get_display_size
                0x00000000       0x28 drivers/built-in.o
 .text.de_rtmx_set_gld_reg_base
                0x00000000       0x1c drivers/built-in.o
 .text.de_rtmx_set_bld_reg_base
                0x00000000       0x1c drivers/built-in.o
 .text.de_rtmx_query_irq
                0x00000000       0x28 drivers/built-in.o
 .text.de_rtmx_enable_irq
                0x00000000       0x2c drivers/built-in.o
 .text.de_rtmx_set_blend_color
                0x00000000       0x3c drivers/built-in.o
 .text.de_rtmx_set_colorkey
                0x00000000       0x7c drivers/built-in.o
 .text.de_rtmx_trimcoord
                0x00000000      0x17c drivers/built-in.o
 .text.de_rtmx_get_lay_enabled
                0x00000000       0x64 drivers/built-in.o
 .text.de_rtmx_get_lay_address
                0x00000000       0xd4 drivers/built-in.o
 .text.de_rtmx_get_lay_size
                0x00000000      0x10c drivers/built-in.o
 .text.de_rtmx_get_lay_win
                0x00000000       0x80 drivers/built-in.o
 .text.de_rtmx_get_lay_format
                0x00000000      0x100 drivers/built-in.o
 .text.de_vsu_set_reg_base
                0x00000000       0x18 drivers/built-in.o
 .text.de_vsu_enable
                0x00000000       0x38 drivers/built-in.o
 .text.de_feat_is_support_vep
                0x00000000       0x80 drivers/built-in.o
 .text.de_feat_is_support_wb
                0x00000000       0x18 drivers/built-in.o
 .text.de_feat_is_support_scale_by_chn
                0x00000000       0x70 drivers/built-in.o
 .text.tcon_ceu_range_cut
                0x00000000       0x2c drivers/built-in.o
 .text.tcon_ceu_rect_multi
                0x00000000       0xa0 drivers/built-in.o
 .text.tcon_ceu_calc.constprop.1
                0x00000000      0x310 drivers/built-in.o
 .text.tcon0_out_to_gpio
                0x00000000        0x8 drivers/built-in.o
 .text.tcon1_out_to_gpio
                0x00000000        0x8 drivers/built-in.o
 .text.tcon0_dsi_clk_enable
                0x00000000        0x8 drivers/built-in.o
 .text.tcon_de_attach
                0x00000000        0x8 drivers/built-in.o
 .text.tcon_get_attach_by_de_index
                0x00000000        0x8 drivers/built-in.o
 .text.tcon_top_set_reg_base
                0x00000000        0x8 drivers/built-in.o
 .text.tcon_top_get_reg_base
                0x00000000        0x8 drivers/built-in.o
 .text.tcon_get_cur_field
                0x00000000       0x3c drivers/built-in.o
 .text.tcon_get_timing
                0x00000000      0x1c8 drivers/built-in.o
 .text.tcon_get_reg_base
                0x00000000       0x10 drivers/built-in.o
 .text.tcon0_src_get
                0x00000000       0x18 drivers/built-in.o
 .text.tcon0_tri_busy
                0x00000000       0x18 drivers/built-in.o
 .text.tcon0_cpu_set_auto_mode
                0x00000000       0x2c drivers/built-in.o
 .text.tcon0_tri_start
                0x00000000       0x20 drivers/built-in.o
 .text.tcon0_cpu_16b_to_24b
                0x00000000       0x28 drivers/built-in.o
 .text.tcon0_cpu_24b_to_16b
                0x00000000       0x24 drivers/built-in.o
 .text.tcon0_cpu_busy
                0x00000000       0x24 drivers/built-in.o
 .text.tcon0_cpu_wr_24b_index
                0x00000000       0x78 drivers/built-in.o
 .text.tcon0_cpu_wr_24b_data
                0x00000000       0x78 drivers/built-in.o
 .text.tcon0_cpu_wr_24b
                0x00000000       0x24 drivers/built-in.o
 .text.tcon0_cpu_rd_24b
                0x00000000        0x8 drivers/built-in.o
 .text.tcon0_cpu_rd_24b_data
                0x00000000       0xfc drivers/built-in.o
 .text.tcon0_cpu_wr_16b
                0x00000000       0x38 drivers/built-in.o
 .text.tcon0_cpu_wr_16b_index
                0x00000000       0x24 drivers/built-in.o
 .text.tcon0_cpu_wr_16b_data
                0x00000000       0x24 drivers/built-in.o
 .text.tcon0_cpu_rd_16b
                0x00000000        0x8 drivers/built-in.o
 .text.tcon0_get_dclk_div
                0x00000000       0x18 drivers/built-in.o
 .text.tcon1_cfg_ex
                0x00000000       0xa4 drivers/built-in.o
 .text.tcon1_set_tv_mode
                0x00000000        0x8 drivers/built-in.o
 .text.tcon1_src_get
                0x00000000       0x28 drivers/built-in.o
 .text.tcon_ceu
                0x00000000      0x420 drivers/built-in.o
 .text.de_enhance_demo_enable
                0x00000000        0x8 drivers/built-in.o
 .text.de_enhance_set_mode
                0x00000000        0x8 drivers/built-in.o
 .text.de_smbl_set_reg_base
                0x00000000        0x8 drivers/built-in.o
 .text.de_smbl_sync
                0x00000000        0x8 drivers/built-in.o
 .text.de_smbl_enable
                0x00000000        0x8 drivers/built-in.o
 .text.de_smbl_set_window
                0x00000000       0x18 drivers/built-in.o
 .text.de_smbl_set_para
                0x00000000        0x8 drivers/built-in.o
 .text.de_smbl_set_lut
                0x00000000        0x8 drivers/built-in.o
 .text.de_smbl_get_hist
                0x00000000        0x8 drivers/built-in.o
 .text.in_tright_shift
                0x00000000       0x30 drivers/built-in.o
 .text.IntRightShift64
                0x00000000       0x70 drivers/built-in.o
 .text.wb_ebios_update_regs
                0x00000000        0x8 drivers/built-in.o
 .text.wb_ebios_writeback_enable
                0x00000000        0x8 drivers/built-in.o
 .text.wb_ebios_apply
                0x00000000        0x8 drivers/built-in.o
 .text.wb_ebios_get_status
                0x00000000        0x8 drivers/built-in.o
 .text.hdmi_get_vic
                0x00000000       0x54 drivers/built-in.o
 .text.hdmi_exit
                0x00000000       0x7c drivers/built-in.o
 .text.hdmi_core_exit
                0x00000000        0xc drivers/built-in.o
 .text.hdmi_core_get_audio_info
                0x00000000      0x240 drivers/built-in.o
 .text.hdmi_core_get_hdcp_enable
                0x00000000       0x10 drivers/built-in.o
 .text.hdmi_core_get_cts_enable
                0x00000000       0x10 drivers/built-in.o
 .text.hdmi_core_get_video_mode
                0x00000000       0x3c drivers/built-in.o
 .text.hdmi_core_get_video_enable
                0x00000000       0x30 drivers/built-in.o
 .text.hdmi_core_enter_lp
                0x00000000       0x60 drivers/built-in.o
 .text.hdmi_core_exit_lp
                0x00000000       0x10 drivers/built-in.o
 .text.hdmi_core_dvi_support
                0x00000000       0x34 drivers/built-in.o
 .text.hdmi_core_cec_get_simple_msg
                0x00000000       0x34 drivers/built-in.o
 .text.bsp_hdmi_audio
                0x00000000      0x304 drivers/built-in.o
 .text.bsp_hdmi_hdcp_err_check
                0x00000000       0xbc drivers/built-in.o
 .text.bsp_hdmi_cec_get_simple_msg
                0x00000000       0xe8 drivers/built-in.o
 .text.bsp_hdmi_cec_sta_check
                0x00000000       0x98 drivers/built-in.o
 .text.tv_report_hpd_work
                0x00000000        0xc drivers/built-in.o
 .text.tv_detect_thread
                0x00000000       0x18 drivers/built-in.o
 .text.tv_get_video_info
                0x00000000       0x3c drivers/built-in.o
 .text.tv_get_list_num
                0x00000000        0x8 drivers/built-in.o
 .text.tv_exit  0x00000000       0x58 drivers/built-in.o
 .text.tve_low_set_top_reg_base
                0x00000000        0x8 drivers/built-in.o
 .text.tve_low_set_sid_base
                0x00000000       0x14 drivers/built-in.o
 .text.tve_low_exit
                0x00000000        0x8 drivers/built-in.o
 .text.tve_low_dac_disable
                0x00000000       0x20 drivers/built-in.o
 .text.arisc_dvfs_cfg_vf_table
                0x00000000      0x2cc drivers/built-in.o
 .text.sunxi_arisc_wait_ready
                0x00000000       0x1c drivers/built-in.o
 .rodata.n_table
                0x00000000       0x54 drivers/built-in.o
 .rodata.ca_table
                0x00000000       0x40 drivers/built-in.o
 .rodata.sf     0x00000000       0x50 drivers/built-in.o
 .rodata.__func__.5031
                0x00000000       0x18 drivers/built-in.o
 .data          0x00000000        0x0 drivers/built-in.o
 .data.vdev_source_ops
                0x00000000       0x10 drivers/built-in.o
 .data.ce_bypass_lut
                0x00000000      0x100 drivers/built-in.o
 .data.fcc_range_gain
                0x00000000       0x18 drivers/built-in.o
 .data.ce_constant_lut
                0x00000000      0x100 drivers/built-in.o
 .bss           0x00000000        0x0 drivers/built-in.o
 .bss.hdmi_print
                0x00000000        0x4 drivers/built-in.o
 .bss.audio_cfged
                0x00000000        0x1 drivers/built-in.o
 .bss.audio_enable
                0x00000000        0x1 drivers/built-in.o
 .text          0x00000000        0x0 drivers/clk/built-in.o
 .text.sunxi_clk_get_factors_ops
                0x00000000       0x10 drivers/clk/built-in.o
 .text.sunxi_clk_get_common_factors
                0x00000000       0xe8 drivers/clk/built-in.o
 .text.sunxi_clk_get_periph_ops
                0x00000000       0x10 drivers/clk/built-in.o
 .text.__clk_get_rate
                0x00000000        0xc drivers/clk/built-in.o
 .text.clk_get  0x00000000        0x8 drivers/clk/built-in.o
 .data.sunxi_clk_periph_cpurahbs
                0x00000000       0x48 drivers/clk/built-in.o
 .data.sunxi_clk_maxreg
                0x00000000        0x4 drivers/clk/built-in.o
 .data.cpurcpus_parents
                0x00000000       0x10 drivers/clk/built-in.o
 .data.sunxi_clk_periph_cpurapbs
                0x00000000       0x48 drivers/clk/built-in.o
 .data.sunxi_clk_periph_cpurpio
                0x00000000       0x48 drivers/clk/built-in.o
 .data.sunxi_periphs_cpus_init
                0x00000000       0x8c drivers/clk/built-in.o
 .data.cpurahbs_parents
                0x00000000        0x4 drivers/clk/built-in.o
 .data.sunxi_clk_periph_cpurcir
                0x00000000       0x48 drivers/clk/built-in.o
 .data.cpurpll_peri0_parents
                0x00000000        0x4 drivers/clk/built-in.o
 .data.sunxi_clk_periph_losc_out
                0x00000000       0x48 drivers/clk/built-in.o
 .data.sunxi_clk_periph_cpurpll_peri0
                0x00000000       0x48 drivers/clk/built-in.o
 .data.cpurapbs_parents
                0x00000000        0x4 drivers/clk/built-in.o
 .data.sunxi_clk_periph_cpurcpus
                0x00000000       0x48 drivers/clk/built-in.o
 .data.losc_parents
                0x00000000        0x4 drivers/clk/built-in.o
 .data.cpurdev_parents
                0x00000000       0x10 drivers/clk/built-in.o
 .data.cpurpio_parents
                0x00000000        0x4 drivers/clk/built-in.o
 .bss           0x00000000        0x0 drivers/clk/built-in.o
 .bss.cpus_clk_maxreg
                0x00000000        0x4 drivers/clk/built-in.o
 .bss.sunxi_clk_cpus_base
                0x00000000        0x4 drivers/clk/built-in.o
 .text          0x00000000        0x0 drivers/dma/built-in.o
 .text.sunxi_dma_stop
                0x00000000       0x1c drivers/dma/built-in.o
 .text.sunxi_dma_querystatus
                0x00000000       0x28 drivers/dma/built-in.o
 .text.sunxi_dma_install_int
                0x00000000       0x78 drivers/dma/built-in.o
 .text.sunxi_dma_enable_int
                0x00000000       0xb8 drivers/dma/built-in.o
 .rodata.str1.1
                0x00000000       0x5c drivers/dma/built-in.o
 .data          0x00000000        0x0 drivers/dma/built-in.o
 .bss           0x00000000        0x0 drivers/dma/built-in.o
 .text          0x00000000        0x0 drivers/i2c/built-in.o
 .data          0x00000000        0x0 drivers/i2c/built-in.o
 .bss           0x00000000        0x0 drivers/i2c/built-in.o
 .text          0x00000000        0x0 drivers/input/built-in.o
 .text.sort_array_by_ordering
                0x00000000       0xec drivers/input/built-in.o
 .text.input_tstc
                0x00000000       0x44 drivers/input/built-in.o
 .text.input_getc
                0x00000000       0x60 drivers/input/built-in.o
 .text.input_send_keycodes
                0x00000000      0x2f0 drivers/input/built-in.o
 .text.input_add_table
                0x00000000       0x40 drivers/input/built-in.o
 .text.input_set_delays
                0x00000000        0xc drivers/input/built-in.o
 .text.input_init
                0x00000000       0x98 drivers/input/built-in.o
 .text.input_stdio_register
                0x00000000       0x54 drivers/input/built-in.o
 .text.create_keymap
                0x00000000       0x88 drivers/input/built-in.o
 .text.key_matrix_decode
                0x00000000       0xec drivers/input/built-in.o
 .text.key_matrix_decode_fdt
                0x00000000       0xc4 drivers/input/built-in.o
 .text.key_matrix_init
                0x00000000       0x38 drivers/input/built-in.o
 .rodata.kbd_to_ansi364
                0x00000000       0x20 drivers/input/built-in.o
 .rodata.kbd_plain_xlate
                0x00000000       0x63 drivers/input/built-in.o
 .rodata.str1.1
                0x00000000       0x33 drivers/input/built-in.o
 .rodata.CSWTCH.25
                0x00000000        0xd drivers/input/built-in.o
 .data          0x00000000        0x0 drivers/input/built-in.o
 .data.kbd_ctrl_xlate
                0x00000000       0x63 drivers/input/built-in.o
 .data.kbd_shift_xlate
                0x00000000       0x63 drivers/input/built-in.o
 .bss           0x00000000        0x0 drivers/input/built-in.o
 .comment       0x00000000       0xca drivers/input/built-in.o
 .note.GNU-stack
                0x00000000        0x0 drivers/input/built-in.o
 .ARM.attributes
                0x00000000       0x2f drivers/input/built-in.o
 .debug_aranges
                0x00000000       0x90 drivers/input/built-in.o
 .debug_info    0x00000000     0x17fc drivers/input/built-in.o
 .debug_abbrev  0x00000000      0x59d drivers/input/built-in.o
 .debug_line    0x00000000      0x4ec drivers/input/built-in.o
 .debug_frame   0x00000000      0x190 drivers/input/built-in.o
 .debug_str     0x00000000      0xae2 drivers/input/built-in.o
 .debug_loc     0x00000000      0xc52 drivers/input/built-in.o
 .debug_ranges  0x00000000      0x1a8 drivers/input/built-in.o
 .text          0x00000000        0x0 drivers/mmc/built-in.o
 .text.mmc_switch
                0x00000000       0x14 drivers/mmc/built-in.o
 .text.mmc_register
                0x00000000       0x20 drivers/mmc/built-in.o
 .text.mmc_destroy
                0x00000000        0x4 drivers/mmc/built-in.o
 .text.mmc_set_preinit
                0x00000000        0x8 drivers/mmc/built-in.o
 .text.sunxi_mmc_exit
                0x00000000       0x54 drivers/mmc/built-in.o
 .text.mmc_sd_erase_timeout
                0x00000000        0x8 drivers/mmc/built-in.o
 .rodata.__func__.5389
                0x00000000        0xd drivers/mmc/built-in.o
 .bss           0x00000000        0x0 drivers/mmc/built-in.o
 .text          0x00000000        0x0 drivers/power/built-in.o
 .text.PowerCheck
                0x00000000        0x8 drivers/power/built-in.o
 .text.power_limit_init
                0x00000000        0x8 drivers/power/built-in.o
 .text.axp_get_power_vol_level
                0x00000000        0x8 drivers/power/built-in.o
 .text.axp_power_get_dcin_battery_exist
                0x00000000       0x3c drivers/power/built-in.o
 .text.axp_probe_charge_current
                0x00000000       0x1c drivers/power/built-in.o
 .text.axp_set_charge_control
                0x00000000       0x1c drivers/power/built-in.o
 .text.axp_set_runtime_chgcur
                0x00000000       0x20 drivers/power/built-in.o
 .text.axp_slave_set_power_supply_output
                0x00000000      0x190 drivers/power/built-in.o
 .text.axp_int_enable
                0x00000000        0x8 drivers/power/built-in.o
 .text.axp_int_disable
                0x00000000        0x8 drivers/power/built-in.o
 .text.axp_int_query
                0x00000000       0x1c drivers/power/built-in.o
 .text.axp_probe_supply_status
                0x00000000       0x28 drivers/power/built-in.o
 .text.axp_probe_supply_status_byname
                0x00000000       0x7c drivers/power/built-in.o
 .text.axp_probe_supply_pmu_name
                0x00000000       0x8c drivers/power/built-in.o
 .text.axp_probe_vbus_cur_limit
                0x00000000       0x1c drivers/power/built-in.o
 .data.current_pmu.5087
                0x00000000        0x4 drivers/power/built-in.o
 .bss           0x00000000        0x0 drivers/power/built-in.o
 .text          0x00000000        0x0 drivers/pwm/built-in.o
 .text.sunxi_pwm_init
                0x00000000        0x4 drivers/pwm/built-in.o
 .text.pwm_init
                0x00000000        0x8 drivers/pwm/built-in.o
 .data          0x00000000        0x0 drivers/pwm/built-in.o
 .data.pwm_active_sta
                0x00000000       0x10 drivers/pwm/built-in.o
 .bss           0x00000000        0x0 drivers/pwm/built-in.o
 .text          0x00000000        0x0 drivers/serial/built-in.o
 .text.serial_reinit_all
                0x00000000       0x2c drivers/serial/built-in.o
 .text.default_serial_puts
                0x00000000       0x2c drivers/serial/built-in.o
 .text._serial_putc_raw
                0x00000000       0x1c drivers/serial/built-in.o
 .data          0x00000000        0x0 drivers/serial/built-in.o
 .bss           0x00000000        0x0 drivers/serial/built-in.o
 .text.arm_svc_set_cpu_on
                0x00000000       0x28 drivers/smc/built-in.o
 .text.arm_svc_set_cpu_off
                0x00000000       0x24 drivers/smc/built-in.o
 .text.arm_svc_set_cpu_wfi
                0x00000000       0x24 drivers/smc/built-in.o
 .text.arm_svc_version
                0x00000000       0x54 drivers/smc/built-in.o
 .text.arm_svc_poweroff
                0x00000000       0x24 drivers/smc/built-in.o
 .text.arm_svc_call_count
                0x00000000       0x24 drivers/smc/built-in.o
 .text.arm_svc_uuid
                0x00000000       0x24 drivers/smc/built-in.o
 .text.arm_svc_arisc_wait_ready
                0x00000000       0x24 drivers/smc/built-in.o
 .text.arm_svc_probe_secure_mode
                0x00000000       0x24 drivers/smc/built-in.o
 .text.smc_efuse_readl
                0x00000000       0x18 drivers/smc/built-in.o
 .text.smc_efuse_writel
                0x00000000       0x18 drivers/smc/built-in.o
 .data          0x00000000        0x0 drivers/smc/built-in.o
 .bss           0x00000000        0x0 drivers/smc/built-in.o
 .text          0x00000000        0x0 drivers/spi/built-in.o
 .text.spi_set_wordlen
                0x00000000       0x30 drivers/spi/built-in.o
 .text.spi_do_alloc_slave
                0x00000000       0x4c drivers/spi/built-in.o
 .rodata.str1.1
                0x00000000       0x19 drivers/spi/built-in.o
 .data          0x00000000        0x0 drivers/spi/built-in.o
 .bss           0x00000000        0x0 drivers/spi/built-in.o
 .comment       0x00000000       0x65 drivers/spi/built-in.o
 .note.GNU-stack
                0x00000000        0x0 drivers/spi/built-in.o
 .ARM.attributes
                0x00000000       0x2f drivers/spi/built-in.o
 .debug_aranges
                0x00000000       0x28 drivers/spi/built-in.o
 .debug_info    0x00000000      0x4d4 drivers/spi/built-in.o
 .debug_abbrev  0x00000000      0x14c drivers/spi/built-in.o
 .debug_line    0x00000000      0x106 drivers/spi/built-in.o
 .debug_frame   0x00000000       0x48 drivers/spi/built-in.o
 .debug_str     0x00000000      0x34a drivers/spi/built-in.o
 .debug_loc     0x00000000      0x125 drivers/spi/built-in.o
 .debug_ranges  0x00000000       0x18 drivers/spi/built-in.o
 .text          0x00000000        0x0 drivers/sunxi_flash/built-in.o
 .text.nand_read_uboot_data
                0x00000000        0x8 drivers/sunxi_flash/built-in.o
 .text.nand_read_boot0
                0x00000000        0x8 drivers/sunxi_flash/built-in.o
 .text.sunxi_download_boot0_atfter_ota
                0x00000000        0x8 drivers/sunxi_flash/built-in.o
 .text.sunxi_sprite_download_uboot
                0x00000000        0x8 drivers/sunxi_flash/built-in.o
 .text.card_erase
                0x00000000        0x8 drivers/sunxi_flash/built-in.o
 .text.sunxi_flash_size
                0x00000000       0x18 drivers/sunxi_flash/built-in.o
 .text.sunxi_sprite_flush
                0x00000000       0x18 drivers/sunxi_flash/built-in.o
 .text.sunxi_sprite_mmc_phywipe
                0x00000000       0x60 drivers/sunxi_flash/built-in.o
 .rodata.__FUNCTION__.4644
                0x00000000       0x19 drivers/sunxi_flash/built-in.o
 .data          0x00000000        0x0 drivers/sunxi_flash/built-in.o
 .bss           0x00000000        0x0 drivers/sunxi_flash/built-in.o
 .text          0x00000000        0x0 fs/built-in.o
 .text.fs_write
                0x00000000       0x78 fs/built-in.o
 .text.do_save  0x00000000      0x128 fs/built-in.o
 .text.fat_register_device
                0x00000000       0x88 fs/built-in.o
 .text.file_fat_read
                0x00000000       0x14 fs/built-in.o
 .text.file_getfsname
                0x00000000       0x18 fs/built-in.o
 .text.file_cd  0x00000000      0x1f4 fs/built-in.o
 .text.file_detectfs
                0x00000000       0x40 fs/built-in.o
 .text.file_ls  0x00000000       0x8c fs/built-in.o
 .text.file_read
                0x00000000       0x9c fs/built-in.o
 .rodata.filesystems
                0x00000000       0x18 fs/built-in.o
 .data          0x00000000        0x0 fs/built-in.o
 .data.file_cwd
                0x00000000      0x200 fs/built-in.o
 .data.current_filesystem
                0x00000000        0x4 fs/built-in.o
 .bss           0x00000000        0x0 fs/built-in.o
 .text          0x00000000        0x0 lib/built-in.o
 .text.inflateInit_
                0x00000000       0x14 lib/built-in.o
 .text.crc7     0x00000000       0x30 lib/built-in.o
 .text.crc8     0x00000000       0x44 lib/built-in.o
 .text.cyg_crc16
                0x00000000       0x44 lib/built-in.o
 .text.get_prop_check_min_len
                0x00000000       0x38 lib/built-in.o
 .text.fdtdec_get_compatible
                0x00000000       0x10 lib/built-in.o
 .text.fdtdec_get_addr_size
                0x00000000       0x58 lib/built-in.o
 .text.fdtdec_get_addr
                0x00000000        0x8 lib/built-in.o
 .text.fdtdec_get_uint64
                0x00000000       0x5c lib/built-in.o
 .text.fdtdec_lookup
                0x00000000       0x4c lib/built-in.o
 .text.fdtdec_next_compatible
                0x00000000       0x10 lib/built-in.o
 .text.fdtdec_next_compatible_subnode
                0x00000000       0x64 lib/built-in.o
 .text.fdtdec_next_alias
                0x00000000       0x94 lib/built-in.o
 .text.fdtdec_add_aliases_for_id
                0x00000000      0x280 lib/built-in.o
 .text.fdtdec_find_aliases_for_id
                0x00000000       0x44 lib/built-in.o
 .text.fdtdec_lookup_phandle
                0x00000000       0x34 lib/built-in.o
 .text.fdtdec_get_int_array
                0x00000000       0x68 lib/built-in.o
 .text.fdtdec_locate_array
                0x00000000       0x28 lib/built-in.o
 .text.fdtdec_get_bool
                0x00000000       0x18 lib/built-in.o
 .text.fdtdec_decode_gpios
                0x00000000       0x98 lib/built-in.o
 .text.fdtdec_decode_gpio
                0x00000000       0x2c lib/built-in.o
 .text.fdtdec_get_gpio
                0x00000000       0x28 lib/built-in.o
 .text.fdtdec_set_gpio
                0x00000000       0x20 lib/built-in.o
 .text.fdtdec_setup_gpio
                0x00000000       0x30 lib/built-in.o
 .text.fdtdec_get_byte_array
                0x00000000       0x48 lib/built-in.o
 .text.fdtdec_locate_byte_array
                0x00000000       0x24 lib/built-in.o
 .text.fdtdec_get_config_bool
                0x00000000       0x44 lib/built-in.o
 .text.fdtdec_decode_region
                0x00000000       0x50 lib/built-in.o
 .text.fdtdec_read_fmap_entry
                0x00000000       0x40 lib/built-in.o
 .text.lmb_dump_all
                0x00000000        0x4 lib/built-in.o
 .text.lmb_is_reserved
                0x00000000       0x60 lib/built-in.o
 .text.__arch_lmb_reserve
                0x00000000        0x4 lib/built-in.o
 .text.ldiv     0x00000000       0x50 lib/built-in.o
 .text.string_to_ip
                0x00000000       0x5c lib/built-in.o
 .text.strmhz   0x00000000       0x6c lib/built-in.o
 .text.crc32_wd_buf
                0x00000000       0x3c lib/built-in.o
 .text.strncasecmp
                0x00000000       0x78 lib/built-in.o
 .text.strcasecmp
                0x00000000        0x8 lib/built-in.o
 .text.strrchr  0x00000000       0x3c lib/built-in.o
 .text.strspn   0x00000000       0x40 lib/built-in.o
 .text.strtok   0x00000000       0x78 lib/built-in.o
 .text.strsep   0x00000000       0x34 lib/built-in.o
 .text.strswab  0x00000000       0x4c lib/built-in.o
 .text.bcopy    0x00000000       0x28 lib/built-in.o
 .text.memscan  0x00000000       0x2c lib/built-in.o
 .text.memchr_inv
                0x00000000      0x130 lib/built-in.o
 .text.tick_to_time
                0x00000000       0x60 lib/built-in.o
 .text.get_ticks
                0x00000000       0x38 lib/built-in.o
 .text.timer_init
                0x00000000        0x8 lib/built-in.o
 .text.get_timer
                0x00000000       0x18 lib/built-in.o
 .text.timer_get_us
                0x00000000       0x24 lib/built-in.o
 .text.mdelay   0x00000000       0x24 lib/built-in.o
 .text.ustrtoul
                0x00000000       0x74 lib/built-in.o
 .text.ustrtoull
                0x00000000       0x8c lib/built-in.o
 .text.__assert_fail
                0x00000000       0x14 lib/built-in.o
 .text.print_grouped_ull
                0x00000000       0x88 lib/built-in.o
 .rodata.z_errmsg
                0x00000000       0x28 lib/built-in.o
 .rodata.crc7_syndrome_table
                0x00000000      0x100 lib/built-in.o
 .rodata.crc16_tab
                0x00000000      0x200 lib/built-in.o
 .rodata.compat_names
                0x00000000       0xc0 lib/built-in.o
 .data          0x00000000        0x0 lib/built-in.o
 .bss           0x00000000        0x0 lib/built-in.o
 .bss.___strtok
                0x00000000        0x4 lib/built-in.o
 .text          0x00000000        0x0 lib/libfdt/built-in.o
 .text.fdt_first_subnode
                0x00000000       0x30 lib/libfdt/built-in.o
 .text.fdt_next_subnode
                0x00000000       0x4c lib/libfdt/built-in.o
 .text.fdt_getprop_by_offset
                0x00000000       0x48 lib/libfdt/built-in.o
 .text.fdt_get_alias
                0x00000000       0x28 lib/libfdt/built-in.o
 .text.fdt_parent_offset
                0x00000000       0x30 lib/libfdt/built-in.o
 .text.fdt_node_offset_by_prop_value
                0x00000000       0x94 lib/libfdt/built-in.o
 .text.fdt_stringlist_contains
                0x00000000       0x7c lib/libfdt/built-in.o
 .text.fdt_node_check_compatible
                0x00000000       0x3c lib/libfdt/built-in.o
 .text.fdt_node_offset_by_compatible
                0x00000000       0x78 lib/libfdt/built-in.o
 .text.fdt_set_name
                0x00000000       0x88 lib/libfdt/built-in.o
 .text.fdt_appendprop
                0x00000000       0xe0 lib/libfdt/built-in.o
 .text.fdt_pack
                0x00000000       0x5c lib/libfdt/built-in.o
 .text._fdt_sw_check_header
                0x00000000       0x20 lib/libfdt/built-in.o
 .text._fdt_grab_space
                0x00000000       0x54 lib/libfdt/built-in.o
 .text.fdt_create
                0x00000000       0x64 lib/libfdt/built-in.o
 .text.fdt_add_reservemap_entry
                0x00000000       0xbc lib/libfdt/built-in.o
 .text.fdt_finish_reservemap
                0x00000000       0x18 lib/libfdt/built-in.o
 .text.fdt_begin_node
                0x00000000       0x64 lib/libfdt/built-in.o
 .text.fdt_end_node
                0x00000000       0x38 lib/libfdt/built-in.o
 .text.fdt_property
                0x00000000      0x104 lib/libfdt/built-in.o
 .text.fdt_finish
                0x00000000       0xfc lib/libfdt/built-in.o
 .text.fdt_setprop_inplace
                0x00000000       0x40 lib/libfdt/built-in.o
 .text.fdt_nop_property
                0x00000000       0x3c lib/libfdt/built-in.o
 .text.fdt_nop_node
                0x00000000       0x50 lib/libfdt/built-in.o
 .text.fdt_find_regions
                0x00000000      0x3d8 lib/libfdt/built-in.o
 .text.fdt_create_empty_tree
                0x00000000       0x74 lib/libfdt/built-in.o
 .data          0x00000000        0x0 lib/libfdt/built-in.o
 .bss           0x00000000        0x0 lib/libfdt/built-in.o
 .text          0x00000000        0x0 lib/openssl/built-in.o
 .text.CRYPTO_remalloc
                0x00000000       0x20 lib/openssl/built-in.o
 .text.OBJ_nid2ln
                0x00000000       0x8c lib/openssl/built-in.o
 .text.OBJ_nid2sn
                0x00000000       0xb8 lib/openssl/built-in.o
 .text.OBJ_obj2txt
                0x00000000        0x8 lib/openssl/built-in.o
 .text.OBJ_obj2name
                0x00000000       0x38 lib/openssl/built-in.o
 .text.ASN1_INTEGER_get
                0x00000000       0x84 lib/openssl/built-in.o
 .text.ASN1_STRING_mem
                0x00000000       0x3c lib/openssl/built-in.o
 .text.X509_get_serialNumber
                0x00000000        0xc lib/openssl/built-in.o
 .text.ASN1_STRING_print
                0x00000000       0xa4 lib/openssl/built-in.o
 .text.ASN1_IA5STRING_it
                0x00000000        0xc lib/openssl/built-in.o
 .text.i2d_ASN1_TYPE
                0x00000000        0xc lib/openssl/built-in.o
 .text.d2i_ASN1_TYPE
                0x00000000        0xc lib/openssl/built-in.o
 .text.BIO_write
                0x00000000       0xc4 lib/openssl/built-in.o
 .text.i2a_ASN1_INTEGER
                0x00000000      0x110 lib/openssl/built-in.o
 .text.d2i_X509_PUBKEY
                0x00000000        0xc lib/openssl/built-in.o
 .text.i2d_X509_PUBKEY
                0x00000000        0xc lib/openssl/built-in.o
 .text.X509_PUBKEY_new
                0x00000000        0xc lib/openssl/built-in.o
 .text.X509_PUBKEY_free
                0x00000000        0xc lib/openssl/built-in.o
 .text.X509_it  0x00000000        0xc lib/openssl/built-in.o
 .text.i2d_X509
                0x00000000        0xc lib/openssl/built-in.o
 .text.X509_new
                0x00000000        0xc lib/openssl/built-in.o
 .text.RSAPublicKey_it
                0x00000000        0xc lib/openssl/built-in.o
 .text.sk_pop_free
                0x00000000        0x4 lib/openssl/built-in.o
 .text.X509v3_get_ext_count
                0x00000000        0xc lib/openssl/built-in.o
 .text.X509_EXTENSION_get_object
                0x00000000        0xc lib/openssl/built-in.o
 .text.X509_get_ext_count
                0x00000000        0xc lib/openssl/built-in.o
 .text.BN_free  0x00000000       0x44 lib/openssl/built-in.o
 .text.BN_copy  0x00000000       0xe8 lib/openssl/built-in.o
 .text.BN_dup   0x00000000       0x3c lib/openssl/built-in.o
 .text.BN_set_word
                0x00000000       0x4c lib/openssl/built-in.o
 .text.BN_set_negative
                0x00000000       0x24 lib/openssl/built-in.o
 .text.BN_div_word
                0x00000000       0xb8 lib/openssl/built-in.o
 .text.BN_sub_word
                0x00000000       0xd8 lib/openssl/built-in.o
 .text.BN_add_word
                0x00000000       0xdc lib/openssl/built-in.o
 .text.BN_bn2dec
                0x00000000      0x1c0 lib/openssl/built-in.o
 .text.bn_div_words
                0x00000000       0xfc lib/openssl/built-in.o
 .text.BN_lshift
                0x00000000      0x140 lib/openssl/built-in.o
 .text.BIO_set  0x00000000       0x90 lib/openssl/built-in.o
 .text.BIO_new  0x00000000       0x48 lib/openssl/built-in.o
 .text.doapr_outch
                0x00000000       0xc4 lib/openssl/built-in.o
 .text.fmtint   0x00000000      0x2e0 lib/openssl/built-in.o
 .text._dopr    0x00000000      0x62c lib/openssl/built-in.o
 .text.BIO_vprintf
                0x00000000       0xa0 lib/openssl/built-in.o
 .text.BIO_printf
                0x00000000       0x24 lib/openssl/built-in.o
 .text.BIO_vsnprintf
                0x00000000       0x48 lib/openssl/built-in.o
 .text.BIO_snprintf
                0x00000000       0x24 lib/openssl/built-in.o
 .text.BIO_free
                0x00000000       0x90 lib/openssl/built-in.o
 .text.mem_ctrl
                0x00000000        0x8 lib/openssl/built-in.o
 .text.mem_gets
                0x00000000        0x8 lib/openssl/built-in.o
 .text.mem_puts
                0x00000000        0x8 lib/openssl/built-in.o
 .text.mem_read
                0x00000000       0xac lib/openssl/built-in.o
 .text.BIO_s_mem
                0x00000000        0xc lib/openssl/built-in.o
 .text.BUF_MEM_new
                0x00000000       0x58 lib/openssl/built-in.o
 .text.mem_new  0x00000000       0x34 lib/openssl/built-in.o
 .text.BUF_MEM_free
                0x00000000       0x38 lib/openssl/built-in.o
 .text.mem_free
                0x00000000       0x60 lib/openssl/built-in.o
 .text.mem_write
                0x00000000       0xa4 lib/openssl/built-in.o
 .text.BIO_clear_flags
                0x00000000       0x10 lib/openssl/built-in.o
 .text.BIO_set_flags
                0x00000000       0x10 lib/openssl/built-in.o
 .text.BIO_read
                0x00000000       0xfc lib/openssl/built-in.o
 .text.__sample_atoi
                0x00000000       0x60 lib/openssl/built-in.o
 .text.sunxi_certif_probe_serial_num
                0x00000000       0x40 lib/openssl/built-in.o
 .text.sunxi_certif_probe_version
                0x00000000       0x28 lib/openssl/built-in.o
 .text.sunxi_certif_probe_signature
                0x00000000       0x20 lib/openssl/built-in.o
 .text.sunxi_bytes_merge
                0x00000000       0xbc lib/openssl/built-in.o
 .text.sunxi_certif_probe_extension
                0x00000000      0x254 lib/openssl/built-in.o
 .text.sunxi_certif_probe_ext
                0x00000000       0x6c lib/openssl/built-in.o
 .text.sunxi_certif_verify_itself
                0x00000000      0x214 lib/openssl/built-in.o
 .text.sunxi_certif_dump
                0x00000000        0x8 lib/openssl/built-in.o
 .rodata.local_it.10867
                0x00000000       0x1c lib/openssl/built-in.o
 .rodata.mem_method
                0x00000000       0x28 lib/openssl/built-in.o
 .data          0x00000000        0x0 lib/openssl/built-in.o
 .bss           0x00000000        0x0 lib/openssl/built-in.o
 .text          0x00000000        0x0 memtest/built-in.o
 .data          0x00000000        0x0 memtest/built-in.o
 .bss           0x00000000        0x0 memtest/built-in.o
 .text          0x00000000        0x0 nand_sunxi/built-in.o
 .text.get_wvalue
                0x00000000        0x4 nand_sunxi/built-in.o
 .text.put_wvalue
                0x00000000       0x10 nand_sunxi/built-in.o
 .text.NAND_FreeMemoryForDMADescs
                0x00000000       0x24 nand_sunxi/built-in.o
 .text.NAND_WaitDmaFinish
                0x00000000        0x8 nand_sunxi/built-in.o
 .text._cfg_ndfc_gpio_v1
                0x00000000       0x8c nand_sunxi/built-in.o
 .text.NAND_PIOFuncChange_DQSc
                0x00000000       0x18 nand_sunxi/built-in.o
 .text.NAND_PIOFuncChange_REc
                0x00000000       0x18 nand_sunxi/built-in.o
 .text.NAND_AllocMemoryForDMADescs
                0x00000000       0x50 nand_sunxi/built-in.o
 .text.OSAL_IrqUnLock
                0x00000000        0x4 nand_sunxi/built-in.o
 .text.OSAL_IrqLock
                0x00000000        0x4 nand_sunxi/built-in.o
 .text.NAND_WaitRbReady
                0x00000000        0x8 nand_sunxi/built-in.o
 .text.NAND_IORemap
                0x00000000        0x4 nand_sunxi/built-in.o
 .text.NAND_VA_TO_PA
                0x00000000        0x4 nand_sunxi/built-in.o
 .text.NAND_PhysicLockInit
                0x00000000        0x8 nand_sunxi/built-in.o
 .text.NAND_PhysicLockExit
                0x00000000        0x8 nand_sunxi/built-in.o
 .text.NAND_GetPlatform
                0x00000000        0x8 nand_sunxi/built-in.o
 .text.nand_cond_resched
                0x00000000        0x4 nand_sunxi/built-in.o
 .text.nand_rb_wake_up
                0x00000000        0x8 nand_sunxi/built-in.o
 .text.nand_dma_wake_up
                0x00000000        0x8 nand_sunxi/built-in.o
 .text.NAND_Get_Version
                0x00000000        0xc nand_sunxi/built-in.o
 .text.__NAND_UpdatePhyArch
                0x00000000       0x18 nand_sunxi/built-in.o
 .text.msg      0x00000000       0x20 nand_sunxi/built-in.o
 .text.NAND_LogicWrite
                0x00000000        0x4 nand_sunxi/built-in.o
 .text.NAND_LogicRead
                0x00000000        0x4 nand_sunxi/built-in.o
 .text.NAND_build_all_partition
                0x00000000       0xc0 nand_sunxi/built-in.o
 .text.NAND_BadBlockScan
                0x00000000        0x8 nand_sunxi/built-in.o
 .text.nand_uboot_set_flash_info
                0x00000000        0x8 nand_sunxi/built-in.o
 .text.nand_write_uboot
                0x00000000       0x28 nand_sunxi/built-in.o
 .text.nand_read_uboot
                0x00000000       0x28 nand_sunxi/built-in.o
 .text.nand_get_dev
                0x00000000       0x20 nand_sunxi/built-in.o
 .text.nand_erase_uboot
                0x00000000        0x8 nand_sunxi/built-in.o
 .text.nand_init_uboot
                0x00000000       0x54 nand_sunxi/built-in.o
 .data          0x00000000        0x0 nand_sunxi/built-in.o
 .bss           0x00000000        0x0 nand_sunxi/built-in.o
 .bss.nand_blk_dev
                0x00000000       0xa8 nand_sunxi/built-in.o
 .text          0x00000000        0x0 sprite/built-in.o
 .text.initqueue
                0x00000000       0xb0 sprite/built-in.o
 .text.destroyqueue
                0x00000000       0x30 sprite/built-in.o
 .text.resetqueue
                0x00000000       0x54 sprite/built-in.o
 .text.enqueue  0x00000000        0x4 sprite/built-in.o
 .text.outqueue
                0x00000000        0x4 sprite/built-in.o
 .text.isqueueempty
                0x00000000       0x18 sprite/built-in.o
 .text.isqueuefull
                0x00000000       0x28 sprite/built-in.o
 .text.inqueue_query
                0x00000000       0x28 sprite/built-in.o
 .text.inqueue_ex
                0x00000000       0x2c sprite/built-in.o
 .text.outqueue_query
                0x00000000       0x18 sprite/built-in.o
 .text.outqueue_ex
                0x00000000       0x34 sprite/built-in.o
 .text.sunxi_queue_init
                0x00000000       0x48 sprite/built-in.o
 .text.sunxi_queue_destroy
                0x00000000       0x10 sprite/built-in.o
 .text.sunxi_queue_reset
                0x00000000       0x10 sprite/built-in.o
 .text.sunxi_queue_isempty
                0x00000000       0x10 sprite/built-in.o
 .text.sunxi_queue_isfull
                0x00000000       0x10 sprite/built-in.o
 .text.sunxi_inqueue_query
                0x00000000       0x14 sprite/built-in.o
 .text.sunxi_queue_in
                0x00000000       0x10 sprite/built-in.o
 .text.sunxi_outqueue_query
                0x00000000       0x1c sprite/built-in.o
 .text.sunxi_queue_out
                0x00000000       0x10 sprite/built-in.o
 .text.sunxi_card_fill_boot0_magic
                0x00000000      0x194 sprite/built-in.o
 .text.TFInitial
                0x00000000       0x78 sprite/built-in.o
 .text.TFDecode
                0x00000000       0x50 sprite/built-in.o
 .text.TFUnInitial
                0x00000000       0x28 sprite/built-in.o
 .text.qp       0x00000000       0x8c sprite/built-in.o
 .text.gen_qtab
                0x00000000       0x44 sprite/built-in.o
 .text.gen_mtab
                0x00000000      0x154 sprite/built-in.o
 .text.h_fun    0x00000000      0x1e8 sprite/built-in.o
 .text.gen_mk_tab
                0x00000000      0x62c sprite/built-in.o
 .text.mds_rem  0x00000000       0x58 sprite/built-in.o
 .text.twofish_new_set_key
                0x00000000      0x19c sprite/built-in.o
 .text.twofish_new_decrypt
                0x00000000      0x2cc sprite/built-in.o
 .text.nand_force_download_uboot
                0x00000000        0x8 sprite/built-in.o
 .text.nand_download_uboot
                0x00000000        0x8 sprite/built-in.o
 .text.nand_write_boot0
                0x00000000        0x8 sprite/built-in.o
 .text.nand_uboot_get_flash_info
                0x00000000        0x8 sprite/built-in.o
 .text.nand_download_boot0
                0x00000000        0x8 sprite/built-in.o
 .text.Img_Fat_Open
                0x00000000       0xf8 sprite/built-in.o
 .text.Img_GetItemOffset
                0x00000000       0x7c sprite/built-in.o
 .text.Img_Fat_ReadItem
                0x00000000      0x134 sprite/built-in.o
 .text.__request_dump
                0x00000000        0x4 sprite/built-in.o
 .text.__param_dump
                0x00000000        0x4 sprite/built-in.o
 .text.__command_dump
                0x00000000        0x8 sprite/built-in.o
 .text.sunxi_secure_storage_probe
                0x00000000       0x58 sprite/built-in.o
 .text.sunxi_secure_storage_erase
                0x00000000      0x174 sprite/built-in.o
 .rodata.__func__.4333
                0x00000000       0x1b sprite/built-in.o
 .rodata.__func__.4297
                0x00000000       0x1b sprite/built-in.o
 .data          0x00000000        0x0 sprite/built-in.o
 .data.tab_ef   0x00000000        0x4 sprite/built-in.o
 .data.tab_5b   0x00000000        0x4 sprite/built-in.o
 .data.ashx     0x00000000       0x10 sprite/built-in.o
 .data.ror4     0x00000000       0x10 sprite/built-in.o
 .data.qt0      0x00000000       0x20 sprite/built-in.o
 .data.qt1      0x00000000       0x20 sprite/built-in.o
 .data.qt2      0x00000000       0x20 sprite/built-in.o
 .data.qt3      0x00000000       0x20 sprite/built-in.o
 .bss           0x00000000        0x0 sprite/built-in.o
 .bss.Q         0x00000000        0x4 sprite/built-in.o
 .bss.twi_org   0x00000000     0x22bc sprite/built-in.o
 .text          0x00000000        0x0 usb_sunxi/built-in.o
 .text.smc_set_sst_crypt_name
                0x00000000       0x20 usb_sunxi/built-in.o
 .text.sunxi_verify_rotpk_hash
                0x00000000       0x20 usb_sunxi/built-in.o
 .text.sunxi_secure_object_down
                0x00000000       0x20 usb_sunxi/built-in.o
 .text.arm_svc_efuse_read
                0x00000000       0x20 usb_sunxi/built-in.o
 .rodata.__func__.5726
                0x00000000       0x13 usb_sunxi/built-in.o
 .rodata.pburn_InquiryData
                0x00000000       0x28 usb_sunxi/built-in.o
 .rodata.__func__.5703
                0x00000000       0x17 usb_sunxi/built-in.o
 .rodata.pburn_RequestSense
                0x00000000       0x14 usb_sunxi/built-in.o
 .rodata.__func__.5708
                0x00000000       0x18 usb_sunxi/built-in.o
 .rodata.__func__.5721
                0x00000000       0x19 usb_sunxi/built-in.o
 .data          0x00000000        0x0 usb_sunxi/built-in.o
 .data.sunxi_usb_pburn_iSerialNum0
                0x00000000       0x20 usb_sunxi/built-in.o
 .data.sunxi_usb_pburn_dev
                0x00000000       0x10 usb_sunxi/built-in.o
 .data.sunxi_usb_pburn_iManufacturer
                0x00000000       0x20 usb_sunxi/built-in.o
 .data.sunxi_usb_pbur_normal_LangID
                0x00000000        0x8 usb_sunxi/built-in.o
 .data.sunxi_usb_pburn_iProduct
                0x00000000       0x20 usb_sunxi/built-in.o
 .bss           0x00000000        0x0 usb_sunxi/built-in.o
 .text          0x00000000        0x0 arch/arm/lib/eabi_compat.o
 .data          0x00000000        0x0 arch/arm/lib/eabi_compat.o
 .bss           0x00000000        0x0 arch/arm/lib/eabi_compat.o
 .text.__aeabi_unwind_cpp_pr0
                0x00000000        0x4 arch/arm/lib/eabi_compat.o
 .text.__aeabi_unwind_cpp_pr1
                0x00000000        0x4 arch/arm/lib/eabi_compat.o
 .data          0x00000000        0x0 /home/orange/OPEN_SOURCE/OrangePi_H5SDK/toolchain/gcc-linaro-aarch/gcc-linaro/bin/../lib/gcc/arm-linux-gnueabi/4.6.3/libgcc.a(_udivsi3.o)
 .bss           0x00000000        0x0 /home/orange/OPEN_SOURCE/OrangePi_H5SDK/toolchain/gcc-linaro-aarch/gcc-linaro/bin/../lib/gcc/arm-linux-gnueabi/4.6.3/libgcc.a(_udivsi3.o)
 .data          0x00000000        0x0 /home/orange/OPEN_SOURCE/OrangePi_H5SDK/toolchain/gcc-linaro-aarch/gcc-linaro/bin/../lib/gcc/arm-linux-gnueabi/4.6.3/libgcc.a(_divsi3.o)
 .bss           0x00000000        0x0 /home/orange/OPEN_SOURCE/OrangePi_H5SDK/toolchain/gcc-linaro-aarch/gcc-linaro/bin/../lib/gcc/arm-linux-gnueabi/4.6.3/libgcc.a(_divsi3.o)
 .data          0x00000000        0x0 /home/orange/OPEN_SOURCE/OrangePi_H5SDK/toolchain/gcc-linaro-aarch/gcc-linaro/bin/../lib/gcc/arm-linux-gnueabi/4.6.3/libgcc.a(_lshrdi3.o)
 .bss           0x00000000        0x0 /home/orange/OPEN_SOURCE/OrangePi_H5SDK/toolchain/gcc-linaro-aarch/gcc-linaro/bin/../lib/gcc/arm-linux-gnueabi/4.6.3/libgcc.a(_lshrdi3.o)
 .data          0x00000000        0x0 /home/orange/OPEN_SOURCE/OrangePi_H5SDK/toolchain/gcc-linaro-aarch/gcc-linaro/bin/../lib/gcc/arm-linux-gnueabi/4.6.3/libgcc.a(_ashrdi3.o)
 .bss           0x00000000        0x0 /home/orange/OPEN_SOURCE/OrangePi_H5SDK/toolchain/gcc-linaro-aarch/gcc-linaro/bin/../lib/gcc/arm-linux-gnueabi/4.6.3/libgcc.a(_ashrdi3.o)
 .data          0x00000000        0x0 /home/orange/OPEN_SOURCE/OrangePi_H5SDK/toolchain/gcc-linaro-aarch/gcc-linaro/bin/../lib/gcc/arm-linux-gnueabi/4.6.3/libgcc.a(_ashldi3.o)
 .bss           0x00000000        0x0 /home/orange/OPEN_SOURCE/OrangePi_H5SDK/toolchain/gcc-linaro-aarch/gcc-linaro/bin/../lib/gcc/arm-linux-gnueabi/4.6.3/libgcc.a(_ashldi3.o)
 .text          0x00000000      0x370 /home/orange/OPEN_SOURCE/OrangePi_H5SDK/toolchain/gcc-linaro-aarch/gcc-linaro/bin/../lib/gcc/arm-linux-gnueabi/4.6.3/libgcc.a(_arm_addsubdf3.o)
 .data          0x00000000        0x0 /home/orange/OPEN_SOURCE/OrangePi_H5SDK/toolchain/gcc-linaro-aarch/gcc-linaro/bin/../lib/gcc/arm-linux-gnueabi/4.6.3/libgcc.a(_arm_addsubdf3.o)
 .bss           0x00000000        0x0 /home/orange/OPEN_SOURCE/OrangePi_H5SDK/toolchain/gcc-linaro-aarch/gcc-linaro/bin/../lib/gcc/arm-linux-gnueabi/4.6.3/libgcc.a(_arm_addsubdf3.o)
 .note.GNU-stack
                0x00000000        0x0 /home/orange/OPEN_SOURCE/OrangePi_H5SDK/toolchain/gcc-linaro-aarch/gcc-linaro/bin/../lib/gcc/arm-linux-gnueabi/4.6.3/libgcc.a(_arm_addsubdf3.o)
 .ARM.attributes
                0x00000000       0x23 /home/orange/OPEN_SOURCE/OrangePi_H5SDK/toolchain/gcc-linaro-aarch/gcc-linaro/bin/../lib/gcc/arm-linux-gnueabi/4.6.3/libgcc.a(_arm_addsubdf3.o)
 .text          0x00000000      0x424 /home/orange/OPEN_SOURCE/OrangePi_H5SDK/toolchain/gcc-linaro-aarch/gcc-linaro/bin/../lib/gcc/arm-linux-gnueabi/4.6.3/libgcc.a(_arm_muldivdf3.o)
 .data          0x00000000        0x0 /home/orange/OPEN_SOURCE/OrangePi_H5SDK/toolchain/gcc-linaro-aarch/gcc-linaro/bin/../lib/gcc/arm-linux-gnueabi/4.6.3/libgcc.a(_arm_muldivdf3.o)
 .bss           0x00000000        0x0 /home/orange/OPEN_SOURCE/OrangePi_H5SDK/toolchain/gcc-linaro-aarch/gcc-linaro/bin/../lib/gcc/arm-linux-gnueabi/4.6.3/libgcc.a(_arm_muldivdf3.o)
 .note.GNU-stack
                0x00000000        0x0 /home/orange/OPEN_SOURCE/OrangePi_H5SDK/toolchain/gcc-linaro-aarch/gcc-linaro/bin/../lib/gcc/arm-linux-gnueabi/4.6.3/libgcc.a(_arm_muldivdf3.o)
 .ARM.attributes
                0x00000000       0x23 /home/orange/OPEN_SOURCE/OrangePi_H5SDK/toolchain/gcc-linaro-aarch/gcc-linaro/bin/../lib/gcc/arm-linux-gnueabi/4.6.3/libgcc.a(_arm_muldivdf3.o)
 .text          0x00000000       0xa0 /home/orange/OPEN_SOURCE/OrangePi_H5SDK/toolchain/gcc-linaro-aarch/gcc-linaro/bin/../lib/gcc/arm-linux-gnueabi/4.6.3/libgcc.a(_arm_truncdfsf2.o)
 .data          0x00000000        0x0 /home/orange/OPEN_SOURCE/OrangePi_H5SDK/toolchain/gcc-linaro-aarch/gcc-linaro/bin/../lib/gcc/arm-linux-gnueabi/4.6.3/libgcc.a(_arm_truncdfsf2.o)
 .bss           0x00000000        0x0 /home/orange/OPEN_SOURCE/OrangePi_H5SDK/toolchain/gcc-linaro-aarch/gcc-linaro/bin/../lib/gcc/arm-linux-gnueabi/4.6.3/libgcc.a(_arm_truncdfsf2.o)
 .note.GNU-stack
                0x00000000        0x0 /home/orange/OPEN_SOURCE/OrangePi_H5SDK/toolchain/gcc-linaro-aarch/gcc-linaro/bin/../lib/gcc/arm-linux-gnueabi/4.6.3/libgcc.a(_arm_truncdfsf2.o)
 .ARM.attributes
                0x00000000       0x23 /home/orange/OPEN_SOURCE/OrangePi_H5SDK/toolchain/gcc-linaro-aarch/gcc-linaro/bin/../lib/gcc/arm-linux-gnueabi/4.6.3/libgcc.a(_arm_truncdfsf2.o)
 .text          0x00000000      0x21c /home/orange/OPEN_SOURCE/OrangePi_H5SDK/toolchain/gcc-linaro-aarch/gcc-linaro/bin/../lib/gcc/arm-linux-gnueabi/4.6.3/libgcc.a(_arm_addsubsf3.o)
 .data          0x00000000        0x0 /home/orange/OPEN_SOURCE/OrangePi_H5SDK/toolchain/gcc-linaro-aarch/gcc-linaro/bin/../lib/gcc/arm-linux-gnueabi/4.6.3/libgcc.a(_arm_addsubsf3.o)
 .bss           0x00000000        0x0 /home/orange/OPEN_SOURCE/OrangePi_H5SDK/toolchain/gcc-linaro-aarch/gcc-linaro/bin/../lib/gcc/arm-linux-gnueabi/4.6.3/libgcc.a(_arm_addsubsf3.o)
 .note.GNU-stack
                0x00000000        0x0 /home/orange/OPEN_SOURCE/OrangePi_H5SDK/toolchain/gcc-linaro-aarch/gcc-linaro/bin/../lib/gcc/arm-linux-gnueabi/4.6.3/libgcc.a(_arm_addsubsf3.o)
 .ARM.attributes
                0x00000000       0x23 /home/orange/OPEN_SOURCE/OrangePi_H5SDK/toolchain/gcc-linaro-aarch/gcc-linaro/bin/../lib/gcc/arm-linux-gnueabi/4.6.3/libgcc.a(_arm_addsubsf3.o)
 .text          0x00000000      0x2a0 /home/orange/OPEN_SOURCE/OrangePi_H5SDK/toolchain/gcc-linaro-aarch/gcc-linaro/bin/../lib/gcc/arm-linux-gnueabi/4.6.3/libgcc.a(_arm_muldivsf3.o)
 .data          0x00000000        0x0 /home/orange/OPEN_SOURCE/OrangePi_H5SDK/toolchain/gcc-linaro-aarch/gcc-linaro/bin/../lib/gcc/arm-linux-gnueabi/4.6.3/libgcc.a(_arm_muldivsf3.o)
 .bss           0x00000000        0x0 /home/orange/OPEN_SOURCE/OrangePi_H5SDK/toolchain/gcc-linaro-aarch/gcc-linaro/bin/../lib/gcc/arm-linux-gnueabi/4.6.3/libgcc.a(_arm_muldivsf3.o)
 .note.GNU-stack
                0x00000000        0x0 /home/orange/OPEN_SOURCE/OrangePi_H5SDK/toolchain/gcc-linaro-aarch/gcc-linaro/bin/../lib/gcc/arm-linux-gnueabi/4.6.3/libgcc.a(_arm_muldivsf3.o)
 .ARM.attributes
                0x00000000       0x23 /home/orange/OPEN_SOURCE/OrangePi_H5SDK/toolchain/gcc-linaro-aarch/gcc-linaro/bin/../lib/gcc/arm-linux-gnueabi/4.6.3/libgcc.a(_arm_muldivsf3.o)
 .text          0x00000000       0x4c /home/orange/OPEN_SOURCE/OrangePi_H5SDK/toolchain/gcc-linaro-aarch/gcc-linaro/bin/../lib/gcc/arm-linux-gnueabi/4.6.3/libgcc.a(_arm_fixsfsi.o)
 .data          0x00000000        0x0 /home/orange/OPEN_SOURCE/OrangePi_H5SDK/toolchain/gcc-linaro-aarch/gcc-linaro/bin/../lib/gcc/arm-linux-gnueabi/4.6.3/libgcc.a(_arm_fixsfsi.o)
 .bss           0x00000000        0x0 /home/orange/OPEN_SOURCE/OrangePi_H5SDK/toolchain/gcc-linaro-aarch/gcc-linaro/bin/../lib/gcc/arm-linux-gnueabi/4.6.3/libgcc.a(_arm_fixsfsi.o)
 .note.GNU-stack
                0x00000000        0x0 /home/orange/OPEN_SOURCE/OrangePi_H5SDK/toolchain/gcc-linaro-aarch/gcc-linaro/bin/../lib/gcc/arm-linux-gnueabi/4.6.3/libgcc.a(_arm_fixsfsi.o)
 .ARM.attributes
                0x00000000       0x23 /home/orange/OPEN_SOURCE/OrangePi_H5SDK/toolchain/gcc-linaro-aarch/gcc-linaro/bin/../lib/gcc/arm-linux-gnueabi/4.6.3/libgcc.a(_arm_fixsfsi.o)
 .text          0x00000000       0x2c /home/orange/OPEN_SOURCE/OrangePi_H5SDK/toolchain/gcc-linaro-aarch/gcc-linaro/bin/../lib/gcc/arm-linux-gnueabi/4.6.3/libgcc.a(_aeabi_uldivmod.o)
 .data          0x00000000        0x0 /home/orange/OPEN_SOURCE/OrangePi_H5SDK/toolchain/gcc-linaro-aarch/gcc-linaro/bin/../lib/gcc/arm-linux-gnueabi/4.6.3/libgcc.a(_aeabi_uldivmod.o)
 .bss           0x00000000        0x0 /home/orange/OPEN_SOURCE/OrangePi_H5SDK/toolchain/gcc-linaro-aarch/gcc-linaro/bin/../lib/gcc/arm-linux-gnueabi/4.6.3/libgcc.a(_aeabi_uldivmod.o)
 .note.GNU-stack
                0x00000000        0x0 /home/orange/OPEN_SOURCE/OrangePi_H5SDK/toolchain/gcc-linaro-aarch/gcc-linaro/bin/../lib/gcc/arm-linux-gnueabi/4.6.3/libgcc.a(_aeabi_uldivmod.o)
 .ARM.attributes
                0x00000000       0x23 /home/orange/OPEN_SOURCE/OrangePi_H5SDK/toolchain/gcc-linaro-aarch/gcc-linaro/bin/../lib/gcc/arm-linux-gnueabi/4.6.3/libgcc.a(_aeabi_uldivmod.o)
 .data          0x00000000        0x0 /home/orange/OPEN_SOURCE/OrangePi_H5SDK/toolchain/gcc-linaro-aarch/gcc-linaro/bin/../lib/gcc/arm-linux-gnueabi/4.6.3/libgcc.a(_dvmd_lnx.o)
 .bss           0x00000000        0x0 /home/orange/OPEN_SOURCE/OrangePi_H5SDK/toolchain/gcc-linaro-aarch/gcc-linaro/bin/../lib/gcc/arm-linux-gnueabi/4.6.3/libgcc.a(_dvmd_lnx.o)
 .text          0x00000000       0x5c /home/orange/OPEN_SOURCE/OrangePi_H5SDK/toolchain/gcc-linaro-aarch/gcc-linaro/bin/../lib/gcc/arm-linux-gnueabi/4.6.3/libgcc.a(bpabi.o)
 .data          0x00000000        0x0 /home/orange/OPEN_SOURCE/OrangePi_H5SDK/toolchain/gcc-linaro-aarch/gcc-linaro/bin/../lib/gcc/arm-linux-gnueabi/4.6.3/libgcc.a(bpabi.o)
 .bss           0x00000000        0x0 /home/orange/OPEN_SOURCE/OrangePi_H5SDK/toolchain/gcc-linaro-aarch/gcc-linaro/bin/../lib/gcc/arm-linux-gnueabi/4.6.3/libgcc.a(bpabi.o)
 .ARM.extab     0x00000000        0x0 /home/orange/OPEN_SOURCE/OrangePi_H5SDK/toolchain/gcc-linaro-aarch/gcc-linaro/bin/../lib/gcc/arm-linux-gnueabi/4.6.3/libgcc.a(bpabi.o)
 .ARM.exidx     0x00000000       0x10 /home/orange/OPEN_SOURCE/OrangePi_H5SDK/toolchain/gcc-linaro-aarch/gcc-linaro/bin/../lib/gcc/arm-linux-gnueabi/4.6.3/libgcc.a(bpabi.o)
 .note.GNU-stack
                0x00000000        0x0 /home/orange/OPEN_SOURCE/OrangePi_H5SDK/toolchain/gcc-linaro-aarch/gcc-linaro/bin/../lib/gcc/arm-linux-gnueabi/4.6.3/libgcc.a(bpabi.o)
 .ARM.attributes
                0x00000000       0x35 /home/orange/OPEN_SOURCE/OrangePi_H5SDK/toolchain/gcc-linaro-aarch/gcc-linaro/bin/../lib/gcc/arm-linux-gnueabi/4.6.3/libgcc.a(bpabi.o)
 .debug_frame   0x00000000       0x54 /home/orange/OPEN_SOURCE/OrangePi_H5SDK/toolchain/gcc-linaro-aarch/gcc-linaro/bin/../lib/gcc/arm-linux-gnueabi/4.6.3/libgcc.a(bpabi.o)
 .text          0x00000000      0x360 /home/orange/OPEN_SOURCE/OrangePi_H5SDK/toolchain/gcc-linaro-aarch/gcc-linaro/bin/../lib/gcc/arm-linux-gnueabi/4.6.3/libgcc.a(_divdi3.o)
 .data          0x00000000        0x0 /home/orange/OPEN_SOURCE/OrangePi_H5SDK/toolchain/gcc-linaro-aarch/gcc-linaro/bin/../lib/gcc/arm-linux-gnueabi/4.6.3/libgcc.a(_divdi3.o)
 .bss           0x00000000        0x0 /home/orange/OPEN_SOURCE/OrangePi_H5SDK/toolchain/gcc-linaro-aarch/gcc-linaro/bin/../lib/gcc/arm-linux-gnueabi/4.6.3/libgcc.a(_divdi3.o)
 .ARM.extab     0x00000000        0x0 /home/orange/OPEN_SOURCE/OrangePi_H5SDK/toolchain/gcc-linaro-aarch/gcc-linaro/bin/../lib/gcc/arm-linux-gnueabi/4.6.3/libgcc.a(_divdi3.o)
 .ARM.exidx     0x00000000        0x8 /home/orange/OPEN_SOURCE/OrangePi_H5SDK/toolchain/gcc-linaro-aarch/gcc-linaro/bin/../lib/gcc/arm-linux-gnueabi/4.6.3/libgcc.a(_divdi3.o)
 .note.GNU-stack
                0x00000000        0x0 /home/orange/OPEN_SOURCE/OrangePi_H5SDK/toolchain/gcc-linaro-aarch/gcc-linaro/bin/../lib/gcc/arm-linux-gnueabi/4.6.3/libgcc.a(_divdi3.o)
 .ARM.attributes
                0x00000000       0x35 /home/orange/OPEN_SOURCE/OrangePi_H5SDK/toolchain/gcc-linaro-aarch/gcc-linaro/bin/../lib/gcc/arm-linux-gnueabi/4.6.3/libgcc.a(_divdi3.o)
 .debug_frame   0x00000000       0x38 /home/orange/OPEN_SOURCE/OrangePi_H5SDK/toolchain/gcc-linaro-aarch/gcc-linaro/bin/../lib/gcc/arm-linux-gnueabi/4.6.3/libgcc.a(_divdi3.o)
 .text          0x00000000      0x31c /home/orange/OPEN_SOURCE/OrangePi_H5SDK/toolchain/gcc-linaro-aarch/gcc-linaro/bin/../lib/gcc/arm-linux-gnueabi/4.6.3/libgcc.a(_udivdi3.o)
 .data          0x00000000        0x0 /home/orange/OPEN_SOURCE/OrangePi_H5SDK/toolchain/gcc-linaro-aarch/gcc-linaro/bin/../lib/gcc/arm-linux-gnueabi/4.6.3/libgcc.a(_udivdi3.o)
 .bss           0x00000000        0x0 /home/orange/OPEN_SOURCE/OrangePi_H5SDK/toolchain/gcc-linaro-aarch/gcc-linaro/bin/../lib/gcc/arm-linux-gnueabi/4.6.3/libgcc.a(_udivdi3.o)
 .ARM.extab     0x00000000        0x0 /home/orange/OPEN_SOURCE/OrangePi_H5SDK/toolchain/gcc-linaro-aarch/gcc-linaro/bin/../lib/gcc/arm-linux-gnueabi/4.6.3/libgcc.a(_udivdi3.o)
 .ARM.exidx     0x00000000        0x8 /home/orange/OPEN_SOURCE/OrangePi_H5SDK/toolchain/gcc-linaro-aarch/gcc-linaro/bin/../lib/gcc/arm-linux-gnueabi/4.6.3/libgcc.a(_udivdi3.o)
 .note.GNU-stack
                0x00000000        0x0 /home/orange/OPEN_SOURCE/OrangePi_H5SDK/toolchain/gcc-linaro-aarch/gcc-linaro/bin/../lib/gcc/arm-linux-gnueabi/4.6.3/libgcc.a(_udivdi3.o)
 .ARM.attributes
                0x00000000       0x35 /home/orange/OPEN_SOURCE/OrangePi_H5SDK/toolchain/gcc-linaro-aarch/gcc-linaro/bin/../lib/gcc/arm-linux-gnueabi/4.6.3/libgcc.a(_udivdi3.o)
 .debug_frame   0x00000000       0x38 /home/orange/OPEN_SOURCE/OrangePi_H5SDK/toolchain/gcc-linaro-aarch/gcc-linaro/bin/../lib/gcc/arm-linux-gnueabi/4.6.3/libgcc.a(_udivdi3.o)
 .text          0x00000000        0x0 nand_sunxi/sun50iw2p1/libnand-sun50iw2p1
 .text.del_block_count_list
                0x00000000       0x1c nand_sunxi/sun50iw2p1/libnand-sun50iw2p1
 .text.del_block_count_by_block
                0x00000000       0x48 nand_sunxi/sun50iw2p1/libnand-sun50iw2p1
 .text.print_block_count_list
                0x00000000       0x4c nand_sunxi/sun50iw2p1/libnand-sun50iw2p1
 .text.get_max_erase_time_from_free_list
                0x00000000       0x44 nand_sunxi/sun50iw2p1/libnand-sun50iw2p1
 .text.get_block_max_erase_time_from_free_list
                0x00000000       0x38 nand_sunxi/sun50iw2p1/libnand-sun50iw2p1
 .text.get_block_max_erase_time_from_invalid_list
                0x00000000       0x38 nand_sunxi/sun50iw2p1/libnand-sun50iw2p1
 .text.get_block_min_erase_time_from_invalid_list
                0x00000000       0x4c nand_sunxi/sun50iw2p1/libnand-sun50iw2p1
 .text.get_block_max_count_from_invalid_list
                0x00000000       0x30 nand_sunxi/sun50iw2p1/libnand-sun50iw2p1
 .text.get_block_min_count_from_invalid_list
                0x00000000       0x30 nand_sunxi/sun50iw2p1/libnand-sun50iw2p1
 .text.current_block_at_first_page
                0x00000000       0x10 nand_sunxi/sun50iw2p1/libnand-sun50iw2p1
 .text.fill_no_use_data_to_page
                0x00000000      0x11c nand_sunxi/sun50iw2p1/libnand-sun50iw2p1
 .text.fill_no_use_data_to_current_block
                0x00000000       0x3c nand_sunxi/sun50iw2p1/libnand-sun50iw2p1
 .text.fill_no_use_page_to_current_block
                0x00000000       0x38 nand_sunxi/sun50iw2p1/libnand-sun50iw2p1
 .text.check_static_wear_leveling
                0x00000000      0x14c nand_sunxi/sun50iw2p1/libnand-sun50iw2p1
 .text.prio_gc_one
                0x00000000       0x3c nand_sunxi/sun50iw2p1/libnand-sun50iw2p1
 .text.get_total_invalid_page
                0x00000000       0x24 nand_sunxi/sun50iw2p1/libnand-sun50iw2p1
 .text.gc_all   0x00000000       0x34 nand_sunxi/sun50iw2p1/libnand-sun50iw2p1
 .text.done_static_wear_leveling
                0x00000000      0x118 nand_sunxi/sun50iw2p1/libnand-sun50iw2p1
 .text.do_static_wear_leveling
                0x00000000       0x54 nand_sunxi/sun50iw2p1/libnand-sun50iw2p1
 .text.prio_gc_all
                0x00000000       0x2c nand_sunxi/sun50iw2p1/libnand-sun50iw2p1
 .text.nftl_cache_exit
                0x00000000       0x44 nand_sunxi/sun50iw2p1/libnand-sun50iw2p1
 .text.nftl_cache_clean
                0x00000000       0x9c nand_sunxi/sun50iw2p1/libnand-sun50iw2p1
 .text.print_logic_page_map
                0x00000000       0x7c nand_sunxi/sun50iw2p1/libnand-sun50iw2p1
 .text.get_nftl_need_read_claim
                0x00000000       0x90 nand_sunxi/sun50iw2p1/libnand-sun50iw2p1
 .text.clean_read_reclaim_complete_flag
                0x00000000       0x4c nand_sunxi/sun50iw2p1/libnand-sun50iw2p1
 .text.set_nftl_read_claim_complete
                0x00000000       0x38 nand_sunxi/sun50iw2p1/libnand-sun50iw2p1
 .text.get_cold_logic_page
                0x00000000       0x64 nand_sunxi/sun50iw2p1/libnand-sun50iw2p1
 .text.read_reclaim
                0x00000000       0x8c nand_sunxi/sun50iw2p1/libnand-sun50iw2p1
 .text.nftl_sector_cache_init
                0x00000000       0xa0 nand_sunxi/sun50iw2p1/libnand-sun50iw2p1
 .text.nftl_sector_cache_exit
                0x00000000       0x14 nand_sunxi/sun50iw2p1/libnand-sun50iw2p1
 .text.search_from_sector_cache_write_list
                0x00000000       0x28 nand_sunxi/sun50iw2p1/libnand-sun50iw2p1
 .text.get_empty_sector_cahce_node
                0x00000000       0x40 nand_sunxi/sun50iw2p1/libnand-sun50iw2p1
 .text.add_to_sector_cache_write_list_tail
                0x00000000       0x44 nand_sunxi/sun50iw2p1/libnand-sun50iw2p1
 .text.del_from_sector_cache_write_list
                0x00000000       0x44 nand_sunxi/sun50iw2p1/libnand-sun50iw2p1
 .text.nand_sector_cache_read
                0x00000000       0x6c nand_sunxi/sun50iw2p1/libnand-sun50iw2p1
 .text.__nand_sector_read
                0x00000000       0x4c nand_sunxi/sun50iw2p1/libnand-sun50iw2p1
 .text.nand_sector_cache_write
                0x00000000       0xec nand_sunxi/sun50iw2p1/libnand-sun50iw2p1
 .text.__nand_sector_write
                0x00000000       0x4c nand_sunxi/sun50iw2p1/libnand-sun50iw2p1
 .text.__nand_flush_sector_write_cache
                0x00000000       0x74 nand_sunxi/sun50iw2p1/libnand-sun50iw2p1
 .text.set_no_use_page
                0x00000000       0x3c nand_sunxi/sun50iw2p1/libnand-sun50iw2p1
 .text.get_bad_flag_from_oob
                0x00000000       0x1c nand_sunxi/sun50iw2p1/libnand-sun50iw2p1
 .text.free_logic_page_map
                0x00000000       0x30 nand_sunxi/sun50iw2p1/libnand-sun50iw2p1
 .text.zone_param_exit
                0x00000000       0x3c nand_sunxi/sun50iw2p1/libnand-sun50iw2p1
 .text.do_write_error_in_build_list
                0x00000000      0x12c nand_sunxi/sun50iw2p1/libnand-sun50iw2p1
 .text.get_vaild_blocks
                0x00000000       0x88 nand_sunxi/sun50iw2p1/libnand-sun50iw2p1
 .text.is_phy_block_valid
                0x00000000       0x1c nand_sunxi/sun50iw2p1/libnand-sun50iw2p1
 .text.get_used_block_count
                0x00000000       0x58 nand_sunxi/sun50iw2p1/libnand-sun50iw2p1
 .text.block_last_page_ecc_error
                0x00000000      0x2bc nand_sunxi/sun50iw2p1/libnand-sun50iw2p1
 .text.nand_dbg_phy_read
                0x00000000      0x100 nand_sunxi/sun50iw2p1/libnand-sun50iw2p1
 .text.nand_dbg_zone_phy_read
                0x00000000      0x124 nand_sunxi/sun50iw2p1/libnand-sun50iw2p1
 .text.nand_dbg_zone_phy_write
                0x00000000       0xc0 nand_sunxi/sun50iw2p1/libnand-sun50iw2p1
 .text.nand_dbg_phy_write
                0x00000000       0x98 nand_sunxi/sun50iw2p1/libnand-sun50iw2p1
 .text.nand_dbg_zone_erase
                0x00000000       0x34 nand_sunxi/sun50iw2p1/libnand-sun50iw2p1
 .text.nand_dbg_phy_erase
                0x00000000        0x4 nand_sunxi/sun50iw2p1/libnand-sun50iw2p1
 .text.nand_dbg_single_phy_erase
                0x00000000        0x4 nand_sunxi/sun50iw2p1/libnand-sun50iw2p1
 .text.clean_block_list
                0x00000000       0x84 nand_sunxi/sun50iw2p1/libnand-sun50iw2p1
 .text.nand_clean_zone_table2
                0x00000000      0x174 nand_sunxi/sun50iw2p1/libnand-sun50iw2p1
 .text.nand_clean_zone_table
                0x00000000       0x30 nand_sunxi/sun50iw2p1/libnand-sun50iw2p1
 .text.nand_find_zone_table
                0x00000000       0x74 nand_sunxi/sun50iw2p1/libnand-sun50iw2p1
 .text.write_data_to_nand
                0x00000000       0x50 nand_sunxi/sun50iw2p1/libnand-sun50iw2p1
 .text.nand_check_table
                0x00000000       0x60 nand_sunxi/sun50iw2p1/libnand-sun50iw2p1
 .text.nftl_zone_release
                0x00000000       0x34 nand_sunxi/sun50iw2p1/libnand-sun50iw2p1
 .text.nftl_set_zone_test
                0x00000000        0x8 nand_sunxi/sun50iw2p1/libnand-sun50iw2p1
 .text.nftl_get_zone_write_cache_nums
                0x00000000        0xc nand_sunxi/sun50iw2p1/libnand-sun50iw2p1
 .text.del_last_nftl_blk
                0x00000000       0x2c nand_sunxi/sun50iw2p1/libnand-sun50iw2p1
 .text.nftl_exit
                0x00000000       0x28 nand_sunxi/sun50iw2p1/libnand-sun50iw2p1
 .text.nand_ftl_exit
                0x00000000       0x30 nand_sunxi/sun50iw2p1/libnand-sun50iw2p1
 .text.print_all_nftl_blk
                0x00000000       0x34 nand_sunxi/sun50iw2p1/libnand-sun50iw2p1
 .text.get_nftl_num
                0x00000000       0x24 nand_sunxi/sun50iw2p1/libnand-sun50iw2p1
 .text.get_first_nftl_cap
                0x00000000       0x14 nand_sunxi/sun50iw2p1/libnand-sun50iw2p1
 .text.nftl_discard
                0x00000000       0x6c nand_sunxi/sun50iw2p1/libnand-sun50iw2p1
 .text.free_nand_partition
                0x00000000       0x20 nand_sunxi/sun50iw2p1/libnand-sun50iw2p1
 .text.bitmap_change
                0x00000000       0x10 nand_sunxi/sun50iw2p1/libnand-sun50iw2p1
 .text.free_phy_partition
                0x00000000       0x28 nand_sunxi/sun50iw2p1/libnand-sun50iw2p1
 .text.get_next_phy_partition
                0x00000000        0x8 nand_sunxi/sun50iw2p1/libnand-sun50iw2p1
 .text.get_disk_from_phy_partition
                0x00000000        0x8 nand_sunxi/sun50iw2p1/libnand-sun50iw2p1
 .text.get_partitionNO
                0x00000000        0x8 nand_sunxi/sun50iw2p1/libnand-sun50iw2p1
 .text.get_phy_partition_from_num
                0x00000000       0x20 nand_sunxi/sun50iw2p1/libnand-sun50iw2p1
 .text.erase_phy_partition
                0x00000000       0xb8 nand_sunxi/sun50iw2p1/libnand-sun50iw2p1
 .text.erase_last_phy_partition
                0x00000000       0x64 nand_sunxi/sun50iw2p1/libnand-sun50iw2p1
 .text.test_mbr
                0x00000000       0x7c nand_sunxi/sun50iw2p1/libnand-sun50iw2p1
 .text.write_new_block_table
                0x00000000       0xe8 nand_sunxi/sun50iw2p1/libnand-sun50iw2p1
 .text.calc_crc32
                0x00000000       0xa8 nand_sunxi/sun50iw2p1/libnand-sun50iw2p1
 .text.get_head_phy_partition_from_nand_info
                0x00000000        0x8 nand_sunxi/sun50iw2p1/libnand-sun50iw2p1
 .text.set_cache_level
                0x00000000        0xc nand_sunxi/sun50iw2p1/libnand-sun50iw2p1
 .text.set_read_reclaim_interval
                0x00000000        0x8 nand_sunxi/sun50iw2p1/libnand-sun50iw2p1
 .text.debug_read_block
                0x00000000       0xd0 nand_sunxi/sun50iw2p1/libnand-sun50iw2p1
 .text.debug_read_chip
                0x00000000       0x68 nand_sunxi/sun50iw2p1/libnand-sun50iw2p1
 .text.print_mbr_data
                0x00000000       0xa8 nand_sunxi/sun50iw2p1/libnand-sun50iw2p1
 .text.show_spare
                0x00000000      0x3b8 nand_sunxi/sun50iw2p1/libnand-sun50iw2p1
 .text.nand_show_data
                0x00000000       0x5c nand_sunxi/sun50iw2p1/libnand-sun50iw2p1
 .text.show_dict_page
                0x00000000       0xe4 nand_sunxi/sun50iw2p1/libnand-sun50iw2p1
 .text.show_logic_page_all_history
                0x00000000      0x16c nand_sunxi/sun50iw2p1/libnand-sun50iw2p1
 .text.nand_super_page_test
                0x00000000      0x1c0 nand_sunxi/sun50iw2p1/libnand-sun50iw2p1
 .text.nand_phy_page_test
                0x00000000      0x19c nand_sunxi/sun50iw2p1/libnand-sun50iw2p1
 .text.nand_phy_block_test
                0x00000000      0x268 nand_sunxi/sun50iw2p1/libnand-sun50iw2p1
 .text.nand_phy_block_erase_test
                0x00000000      0x1d4 nand_sunxi/sun50iw2p1/libnand-sun50iw2p1
 .text.nand_phy_erase_all
                0x00000000       0x70 nand_sunxi/sun50iw2p1/libnand-sun50iw2p1
 .text.nand_phy_check_all
                0x00000000       0xd4 nand_sunxi/sun50iw2p1/libnand-sun50iw2p1
 .text.nand_phy_read_block_test
                0x00000000       0xf0 nand_sunxi/sun50iw2p1/libnand-sun50iw2p1
 .text.nand_update_end
                0x00000000       0x7c nand_sunxi/sun50iw2p1/libnand-sun50iw2p1
 .text.NandHwSuperStandby
                0x00000000       0x58 nand_sunxi/sun50iw2p1/libnand-sun50iw2p1
 .text.NandHwSuperResume
                0x00000000       0xa8 nand_sunxi/sun50iw2p1/libnand-sun50iw2p1
 .text.NandHwNormalStandby
                0x00000000       0x20 nand_sunxi/sun50iw2p1/libnand-sun50iw2p1
 .text.NandHwNormalResume
                0x00000000       0x1c nand_sunxi/sun50iw2p1/libnand-sun50iw2p1
 .text.NandHwShutDown
                0x00000000       0x20 nand_sunxi/sun50iw2p1/libnand-sun50iw2p1
 .text.do_nand_interrupt
                0x00000000       0x58 nand_sunxi/sun50iw2p1/libnand-sun50iw2p1
 .text.check_nboot_table
                0x00000000        0x8 nand_sunxi/sun50iw2p1/libnand-sun50iw2p1
 .text.nand_check_nboot
                0x00000000      0x174 nand_sunxi/sun50iw2p1/libnand-sun50iw2p1
 .text.nand_get_nboot_total_len
                0x00000000        0x8 nand_sunxi/sun50iw2p1/libnand-sun50iw2p1
 .text.nand_dragonborad_test_one
                0x00000000      0x1bc nand_sunxi/sun50iw2p1/libnand-sun50iw2p1
 .text.change_uboot_start_block
                0x00000000       0x74 nand_sunxi/sun50iw2p1/libnand-sun50iw2p1
 .text.get_physic_block_reserved
                0x00000000       0x1c nand_sunxi/sun50iw2p1/libnand-sun50iw2p1
 .text.print_uboot_info
                0x00000000       0xd0 nand_sunxi/sun50iw2p1/libnand-sun50iw2p1
 .text.get_uboot_offset
                0x00000000        0x8 nand_sunxi/sun50iw2p1/libnand-sun50iw2p1
 .text.is_uboot_magic
                0x00000000       0x1c nand_sunxi/sun50iw2p1/libnand-sun50iw2p1
 .text.check_magic_physic_info
                0x00000000       0x34 nand_sunxi/sun50iw2p1/libnand-sun50iw2p1
 .text.nand_check_uboot
                0x00000000      0x298 nand_sunxi/sun50iw2p1/libnand-sun50iw2p1
 .text.print_physic_info
                0x00000000       0x50 nand_sunxi/sun50iw2p1/libnand-sun50iw2p1
 .text.physic_info_add_to_uboot_tail
                0x00000000       0x54 nand_sunxi/sun50iw2p1/libnand-sun50iw2p1
 .text.uboot_info_init
                0x00000000      0x234 nand_sunxi/sun50iw2p1/libnand-sun50iw2p1
 .text.nand_get_uboot_total_len
                0x00000000       0x3c nand_sunxi/sun50iw2p1/libnand-sun50iw2p1
 .text.NAND_Get_SecureBlock_Start
                0x00000000       0x14 nand_sunxi/sun50iw2p1/libnand-sun50iw2p1
 .text.nand_is_support_secure_storage
                0x00000000        0x8 nand_sunxi/sun50iw2p1/libnand-sun50iw2p1
 .text.nand_secure_storage_clean_data
                0x00000000       0x38 nand_sunxi/sun50iw2p1/libnand-sun50iw2p1
 .text.nand_secure_storage_clean
                0x00000000       0x1c nand_sunxi/sun50iw2p1/libnand-sun50iw2p1
 .text.is_nand_secure_storage_build
                0x00000000       0x20 nand_sunxi/sun50iw2p1/libnand-sun50iw2p1
 .text.get_nand_secure_storage_max_item
                0x00000000       0x14 nand_sunxi/sun50iw2p1/libnand-sun50iw2p1
 .text.nand_secure_storage_test
                0x00000000      0x120 nand_sunxi/sun50iw2p1/libnand-sun50iw2p1
 .text.nand_secure_storage_test_read
                0x00000000       0x9c nand_sunxi/sun50iw2p1/libnand-sun50iw2p1
 .text.nand_read_scan_data
                0x00000000        0x4 nand_sunxi/sun50iw2p1/libnand-sun50iw2p1
 .text.nand_sync_reset_chip
                0x00000000       0x6c nand_sunxi/sun50iw2p1/libnand-sun50iw2p1
 .text.is_chip_rb_ready
                0x00000000       0x18 nand_sunxi/sun50iw2p1/libnand-sun50iw2p1
 .text.nand_physic_bad_block_mark
                0x00000000       0x50 nand_sunxi/sun50iw2p1/libnand-sun50iw2p1
 .text.nand_write_data_in_whole_block
                0x00000000      0x124 nand_sunxi/sun50iw2p1/libnand-sun50iw2p1
 .text.nand_read_data_in_whole_block
                0x00000000      0x110 nand_sunxi/sun50iw2p1/libnand-sun50iw2p1
 .text.write_nand_structure
                0x00000000      0x1e0 nand_sunxi/sun50iw2p1/libnand-sun50iw2p1
 .text.set_nand_structure
                0x00000000       0xdc nand_sunxi/sun50iw2p1/libnand-sun50iw2p1
 .text.NAND_UsedLsbPages
                0x00000000       0x50 nand_sunxi/sun50iw2p1/libnand-sun50iw2p1
 .text.nand_reset_super_chip
                0x00000000        0x8 nand_sunxi/sun50iw2p1/libnand-sun50iw2p1
 .text.nand_read_super_chip_status
                0x00000000        0x8 nand_sunxi/sun50iw2p1/libnand-sun50iw2p1
 .text.is_super_chip_rb_ready
                0x00000000        0x8 nand_sunxi/sun50iw2p1/libnand-sun50iw2p1
 .text.nctri_get
                0x00000000       0x1c nand_sunxi/sun50iw2p1/libnand-sun50iw2p1
 .text.gen_rand_num
                0x00000000       0xc0 nand_sunxi/sun50iw2p1/libnand-sun50iw2p1
 .text._cal_random_seed
                0x00000000       0x14 nand_sunxi/sun50iw2p1/libnand-sun50iw2p1
 .text.ndfc_deselect_chip
                0x00000000        0x4 nand_sunxi/sun50iw2p1/libnand-sun50iw2p1
 .text.ndfc_deselect_rb
                0x00000000        0x4 nand_sunxi/sun50iw2p1/libnand-sun50iw2p1
 .text.ndfc_get_selected_rb_no
                0x00000000       0x10 nand_sunxi/sun50iw2p1/libnand-sun50iw2p1
 .text.ndfc_get_rb_sta
                0x00000000       0x24 nand_sunxi/sun50iw2p1/libnand-sun50iw2p1
 .text.ndfc_get_page_size
                0x00000000       0x10 nand_sunxi/sun50iw2p1/libnand-sun50iw2p1
 .text.ndfc_set_page_size
                0x00000000       0x20 nand_sunxi/sun50iw2p1/libnand-sun50iw2p1
 .text.ndfc_clear_rb_b2r_int
                0x00000000       0x10 nand_sunxi/sun50iw2p1/libnand-sun50iw2p1
 .text.ndfc_get_rb_b2r_int_sta
                0x00000000       0x10 nand_sunxi/sun50iw2p1/libnand-sun50iw2p1
 .text.ndfc_check_rb_b2r_int_occur
                0x00000000       0x20 nand_sunxi/sun50iw2p1/libnand-sun50iw2p1
 .text.ndfc_enable_cmd_int
                0x00000000       0x14 nand_sunxi/sun50iw2p1/libnand-sun50iw2p1
 .text.ndfc_disable_cmd_int
                0x00000000       0x14 nand_sunxi/sun50iw2p1/libnand-sun50iw2p1
 .text.ndfc_clear_cmd_int
                0x00000000       0x10 nand_sunxi/sun50iw2p1/libnand-sun50iw2p1
 .text.ndfc_get_cmd_int_sta
                0x00000000       0x10 nand_sunxi/sun50iw2p1/libnand-sun50iw2p1
 .text.ndfc_check_cmd_int_occur
                0x00000000       0x20 nand_sunxi/sun50iw2p1/libnand-sun50iw2p1
 .text.ndfc_get_dma_int_sta
                0x00000000       0x10 nand_sunxi/sun50iw2p1/libnand-sun50iw2p1
 .text.ndfc_check_dma_int_occur
                0x00000000       0x20 nand_sunxi/sun50iw2p1/libnand-sun50iw2p1
 .text.recover_nctri
                0x00000000       0x5c nand_sunxi/sun50iw2p1/libnand-sun50iw2p1
 .text.print_cmd_seq
                0x00000000      0x170 nand_sunxi/sun50iw2p1/libnand-sun50iw2p1
 .text._setup_ndfc_ddr2_para
                0x00000000        0x4 nand_sunxi/sun50iw2p1/libnand-sun50iw2p1
 .text._set_ndfc_def_timing_param
                0x00000000       0x68 nand_sunxi/sun50iw2p1/libnand-sun50iw2p1
 .text.m0_read_two_plane_page_start
                0x00000000      0x144 nand_sunxi/sun50iw2p1/libnand-sun50iw2p1
 .text.m0_read_two_plane_page_end
                0x00000000        0x8 nand_sunxi/sun50iw2p1/libnand-sun50iw2p1
 .text.m1_vender_get_param
                0x00000000       0x70 nand_sunxi/sun50iw2p1/libnand-sun50iw2p1
 .text.m4_readretry_exit
                0x00000000       0x20 nand_sunxi/sun50iw2p1/libnand-sun50iw2p1
 .text.m5_readretry_exit
                0x00000000        0x8 nand_sunxi/sun50iw2p1/libnand-sun50iw2p1
 .text.m6_readretry_exit
                0x00000000        0x8 nand_sunxi/sun50iw2p1/libnand-sun50iw2p1
 .text.m7_readretry_exit
                0x00000000        0x8 nand_sunxi/sun50iw2p1/libnand-sun50iw2p1
 .text.m9_readretry_exit
                0x00000000        0x8 nand_sunxi/sun50iw2p1/libnand-sun50iw2p1
 .text.m9_read_retry_clock_save
                0x00000000       0x40 nand_sunxi/sun50iw2p1/libnand-sun50iw2p1
 .text.m9_read_retry_clock_recover
                0x00000000       0x30 nand_sunxi/sun50iw2p1/libnand-sun50iw2p1
 .rodata.default_random_seed
                0x00000000        0x4 nand_sunxi/sun50iw2p1/libnand-sun50iw2p1
 .data          0x00000000        0x0 nand_sunxi/sun50iw2p1/libnand-sun50iw2p1
 .data.m2_read_retry_reg_adr_1
                0x00000000        0x8 nand_sunxi/sun50iw2p1/libnand-sun50iw2p1
 .data.m2_read_retry_reg_adr_2
                0x00000000        0x8 nand_sunxi/sun50iw2p1/libnand-sun50iw2p1
 .data.m7_read_retry_enable_cmd_19
                0x00000000        0x1 nand_sunxi/sun50iw2p1/libnand-sun50iw2p1
 .data.m7_read_retry_exit_cmd_1y
                0x00000000        0x1 nand_sunxi/sun50iw2p1/libnand-sun50iw2p1
 .data.m7_read_retry_enable_cmd_1y
                0x00000000        0x1 nand_sunxi/sun50iw2p1/libnand-sun50iw2p1
 .data.m7_read_retry_cmd_24
                0x00000000        0x3 nand_sunxi/sun50iw2p1/libnand-sun50iw2p1
 .data.m9_read_retry_enable_cmd_1y
                0x00000000        0x1 nand_sunxi/sun50iw2p1/libnand-sun50iw2p1
 .data.m9_read_retry_exit_cmd_1y
                0x00000000        0x1 nand_sunxi/sun50iw2p1/libnand-sun50iw2p1
 .bss           0x00000000        0x0 nand_sunxi/sun50iw2p1/libnand-sun50iw2p1
 .bss.st_start_page
                0x00000000        0x4 nand_sunxi/sun50iw2p1/libnand-sun50iw2p1
 .bss.uboot_info
                0x00000000      0x100 nand_sunxi/sun50iw2p1/libnand-sun50iw2p1
 .bss.m9_sclk1_bak
                0x00000000        0x4 nand_sunxi/sun50iw2p1/libnand-sun50iw2p1
 .bss.m9_sclk0_bak
                0x00000000        0x4 nand_sunxi/sun50iw2p1/libnand-sun50iw2p1

Memory Configuration

Name             Origin             Length             Attributes
*default*        0x00000000         0xffffffff

Linker script and memory map

                0x4a000000                . = 0x4a000000
                0x4a000000                . = ALIGN (0x4)

.head           0x4a000000      0x600
 *(.__image_copy_start)
 .__image_copy_start
                0x4a000000        0x0 arch/arm/lib/built-in.o
                0x4a000000                __image_copy_start
 arch/arm/cpu/armv7/spare_head.o(.data*)
 .data.uboot_spare_head
                0x4a000000      0x600 arch/arm/cpu/armv7/spare_head.o
                0x4a000000                uboot_spare_head

.hash           0x4a000600       0x40
 arch/arm/cpu/armv7/uboot_hash.o(.data*)
 .data.uboot_hash_value
                0x4a000600       0x40 arch/arm/cpu/armv7/uboot_hash.o
                0x4a000600                uboot_hash_value
                0x4a000640                . = ALIGN (0x4)

.text           0x4a000640    0x82360
 *(.vectors)
 .vectors       0x4a000640      0x2c0 arch/arm/lib/built-in.o
                0x4a000640                _start
                0x4a000660                _reset_vec
                0x4a000664                _undefined_instruction
                0x4a000668                _software_interrupt
                0x4a00066c                _prefetch_abort
                0x4a000670                _data_abort
                0x4a000674                _not_used
                0x4a000678                _irq
                0x4a00067c                _fiq
                0x4a000680                IRQ_STACK_START_IN
                0x4a000684                IRQ_STACK_START
                0x4a000688                FIQ_STACK_START
 arch/arm/cpu/armv7/start.o(.text*)
 .text          0x4a000900       0xb0 arch/arm/cpu/armv7/start.o
                0x4a000900                _TEXT_BASE
                0x4a000904                reset
                0x4a000944                c_runtime_cpu_setup
                0x4a00095c                save_boot_params
                0x4a000960                cpu_init_cp15
                0x4a0009a8                cpu_init_crit
 *(.text*)
 .text          0x4a0009b0       0x24 arch/arm/cpu/armv7/built-in.o
                0x4a0009b0                lowlevel_init
 .text.v7_maint_dcache_all
                0x4a0009d4       0xe8 arch/arm/cpu/armv7/built-in.o
 .text.v7_dcache_maint_range
                0x4a000abc       0xc8 arch/arm/cpu/armv7/built-in.o
 .text.invalidate_icache_all
                0x4a000b84       0x18 arch/arm/cpu/armv7/built-in.o
                0x4a000b84                invalidate_icache_all
 .text.v7_outer_cache_disable
                0x4a000b9c        0x4 arch/arm/cpu/armv7/built-in.o
                0x4a000b9c                v7_outer_cache_disable
 .text.v7_outer_cache_flush_all
                0x4a000ba0        0x4 arch/arm/cpu/armv7/built-in.o
                0x4a000ba0                v7_outer_cache_flush_all
 .text.flush_dcache_all
                0x4a000ba4       0x14 arch/arm/cpu/armv7/built-in.o
                0x4a000ba4                flush_dcache_all
 .text.invalidate_dcache_all
                0x4a000bb8       0x14 arch/arm/cpu/armv7/built-in.o
                0x4a000bb8                invalidate_dcache_all
 .text.arm_init_before_mmu
                0x4a000bcc       0x28 arch/arm/cpu/armv7/built-in.o
                0x4a000bcc                arm_init_before_mmu
 .text.flush_dcache_range
                0x4a000bf4       0x24 arch/arm/cpu/armv7/built-in.o
                0x4a000bf4                flush_dcache_range
 .text.flush_cache
                0x4a000c18        0x8 arch/arm/cpu/armv7/built-in.o
                0x4a000c18                flush_cache
 .text.v7_outer_cache_inval_range
                0x4a000c20        0x4 arch/arm/cpu/armv7/built-in.o
                0x4a000c20                v7_outer_cache_inval_range
 .text.invalidate_dcache_range
                0x4a000c24       0x24 arch/arm/cpu/armv7/built-in.o
                0x4a000c24                invalidate_dcache_range
 .text.cpu_cache_initialization
                0x4a000c48        0x4 arch/arm/cpu/armv7/built-in.o
                0x4a000c48                cpu_cache_initialization
 .text.cleanup_before_linux
                0x4a000c4c       0x28 arch/arm/cpu/armv7/built-in.o
                0x4a000c4c                cleanup_before_linux
 .text.sunxi_clock_get_corepll
                0x4a000c74       0x6c arch/arm/cpu/armv7/sun50iw2p1/built-in.o
                0x4a000c74                sunxi_clock_get_corepll
 .text.sunxi_clock_get_axi
                0x4a000ce0       0x60 arch/arm/cpu/armv7/sun50iw2p1/built-in.o
                0x4a000ce0                sunxi_clock_get_axi
 .text.sunxi_clock_set_corepll
                0x4a000d40       0xb8 arch/arm/cpu/armv7/sun50iw2p1/built-in.o
                0x4a000d40                sunxi_clock_set_corepll
 .text.sunxi_clock_get_pll6
                0x4a000df8       0x30 arch/arm/cpu/armv7/sun50iw2p1/built-in.o
                0x4a000df8                sunxi_clock_get_pll6
 .text.sunxi_clock_get_mbus
                0x4a000e28       0x48 arch/arm/cpu/armv7/sun50iw2p1/built-in.o
                0x4a000e28                sunxi_clock_get_mbus
 .text.sunxi_clock_get_ahb
                0x4a000e70       0x58 arch/arm/cpu/armv7/sun50iw2p1/built-in.o
                0x4a000e70                sunxi_clock_get_ahb
 .text.sunxi_clock_get_apb1
                0x4a000ec8       0x28 arch/arm/cpu/armv7/sun50iw2p1/built-in.o
                0x4a000ec8                sunxi_clock_get_apb1
 .text.timerX_callback_default
                0x4a000ef0       0x10 arch/arm/cpu/armv7/sun50iw2p1/built-in.o
 .text.timer1_func
                0x4a000f00       0x60 arch/arm/cpu/armv7/sun50iw2p1/built-in.o
                0x4a000f00                timer1_func
 .text.timer0_func
                0x4a000f60       0x60 arch/arm/cpu/armv7/sun50iw2p1/built-in.o
                0x4a000f60                timer0_func
 .text.get_tbclk
                0x4a000fc0        0x8 arch/arm/cpu/armv7/sun50iw2p1/built-in.o
                0x4a000fc0                get_tbclk
 .text.timer_init
                0x4a000fc8       0x40 arch/arm/cpu/armv7/sun50iw2p1/built-in.o
                0x4a000fc8                timer_init
 .text.timer_exit
                0x4a001008       0x48 arch/arm/cpu/armv7/sun50iw2p1/built-in.o
                0x4a001008                timer_exit
 .text.watchdog_disable
                0x4a001050       0x14 arch/arm/cpu/armv7/sun50iw2p1/built-in.o
                0x4a001050                watchdog_disable
 .text.watchdog_enable
                0x4a001064       0x18 arch/arm/cpu/armv7/sun50iw2p1/built-in.o
                0x4a001064                watchdog_enable
 .text.get_timer
                0x4a00107c       0x14 arch/arm/cpu/armv7/sun50iw2p1/built-in.o
                0x4a00107c                get_timer
 .text.get_timer_masked
                0x4a001090       0x10 arch/arm/cpu/armv7/sun50iw2p1/built-in.o
                0x4a001090                get_timer_masked
 .text.__usdelay
                0x4a0010a0       0x28 arch/arm/cpu/armv7/sun50iw2p1/built-in.o
                0x4a0010a0                __usdelay
 .text.__msdelay
                0x4a0010c8       0x20 arch/arm/cpu/armv7/sun50iw2p1/built-in.o
                0x4a0010c8                __msdelay
 .text.get_ticks
                0x4a0010e8       0x14 arch/arm/cpu/armv7/sun50iw2p1/built-in.o
                0x4a0010e8                get_ticks
 .text.init_timer
                0x4a0010fc        0x4 arch/arm/cpu/armv7/sun50iw2p1/built-in.o
                0x4a0010fc                init_timer
 .text.add_timer
                0x4a001100      0x11c arch/arm/cpu/armv7/sun50iw2p1/built-in.o
                0x4a001100                add_timer
 .text.del_timer
                0x4a00121c       0x7c arch/arm/cpu/armv7/sun50iw2p1/built-in.o
                0x4a00121c                del_timer
 .text.s_init   0x4a001298        0x4 arch/arm/cpu/armv7/sun50iw2p1/built-in.o
                0x4a001298                s_init
 .text.reset_cpu
                0x4a00129c        0xc arch/arm/cpu/armv7/sun50iw2p1/built-in.o
                0x4a00129c                reset_cpu
 .text.v7_outer_cache_enable
                0x4a0012a8        0x4 arch/arm/cpu/armv7/sun50iw2p1/built-in.o
                0x4a0012a8                v7_outer_cache_enable
 .text.v7_outer_cache_inval_all
                0x4a0012ac        0x4 arch/arm/cpu/armv7/sun50iw2p1/built-in.o
                0x4a0012ac                v7_outer_cache_inval_all
 .text.v7_outer_cache_flush_range
                0x4a0012b0        0x4 arch/arm/cpu/armv7/sun50iw2p1/built-in.o
                0x4a0012b0                v7_outer_cache_flush_range
 .text.enable_caches
                0x4a0012b4       0x10 arch/arm/cpu/armv7/sun50iw2p1/built-in.o
                0x4a0012b4                enable_caches
 .text.script_init
                0x4a0012c4       0x3c arch/arm/cpu/armv7/sun50iw2p1/built-in.o
                0x4a0012c4                script_init
 .text.power_source_init
                0x4a001300       0xdc arch/arm/cpu/armv7/sun50iw2p1/built-in.o
                0x4a001300                power_source_init
 .text.sunxi_set_fel_flag
                0x4a0013dc       0x18 arch/arm/cpu/armv7/sun50iw2p1/built-in.o
                0x4a0013dc                sunxi_set_fel_flag
 .text.sunxi_probe_securemode
                0x4a0013f4       0xd0 arch/arm/cpu/armv7/sun50iw2p1/built-in.o
                0x4a0013f4                sunxi_probe_securemode
 .text.sunxi_set_secure_mode
                0x4a0014c4       0x34 arch/arm/cpu/armv7/sun50iw2p1/built-in.o
                0x4a0014c4                sunxi_set_secure_mode
 .text.sunxi_get_securemode
                0x4a0014f8        0x8 arch/arm/cpu/armv7/sun50iw2p1/built-in.o
                0x4a0014f8                sunxi_get_securemode
 .text.sunxi_probe_secure_monitor
                0x4a001500       0x1c arch/arm/cpu/armv7/sun50iw2p1/built-in.o
                0x4a001500                sunxi_probe_secure_monitor
 .text.sunxi_board_close_source
                0x4a00151c       0x2c arch/arm/cpu/armv7/sun50iw2p1/built-in.o
                0x4a00151c                sunxi_board_close_source
 .text.sunxi_board_restart
                0x4a001548       0x40 arch/arm/cpu/armv7/sun50iw2p1/built-in.o
                0x4a001548                sunxi_board_restart
 .text.sunxi_board_shutdown
                0x4a001588       0x54 arch/arm/cpu/armv7/sun50iw2p1/built-in.o
                0x4a001588                sunxi_board_shutdown
 .text.sunxi_flush_allcaches
                0x4a0015dc       0x14 arch/arm/cpu/armv7/sun50iw2p1/built-in.o
                0x4a0015dc                sunxi_flush_allcaches
 .text.sunxi_board_run_fel
                0x4a0015f0       0x50 arch/arm/cpu/armv7/sun50iw2p1/built-in.o
                0x4a0015f0                sunxi_board_run_fel
 .text.sunxi_board_run_fel_eraly
                0x4a001640       0x38 arch/arm/cpu/armv7/sun50iw2p1/built-in.o
                0x4a001640                sunxi_board_run_fel_eraly
 .text.sunxi_key_init
                0x4a001678       0x70 arch/arm/cpu/armv7/sun50iw2p1/built-in.o
                0x4a001678                sunxi_key_init
 .text.sunxi_key_exit
                0x4a0016e8       0x20 arch/arm/cpu/armv7/sun50iw2p1/built-in.o
                0x4a0016e8                sunxi_key_exit
 .text.sunxi_key_read
                0x4a001708       0x6c arch/arm/cpu/armv7/sun50iw2p1/built-in.o
                0x4a001708                sunxi_key_read
 .text.do_key_test
                0x4a001774       0xac arch/arm/cpu/armv7/sun50iw2p1/built-in.o
                0x4a001774                do_key_test
 .text.sid_read_key.constprop.0
                0x4a001820       0x58 arch/arm/cpu/armv7/sun50iw2p1/built-in.o
 .text.sid_set_security_mode
                0x4a001878       0x68 arch/arm/cpu/armv7/sun50iw2p1/built-in.o
                0x4a001878                sid_set_security_mode
 .text.sid_probe_security_mode
                0x4a0018e0       0x10 arch/arm/cpu/armv7/sun50iw2p1/built-in.o
                0x4a0018e0                sid_probe_security_mode
 .text.sid_get_security_status
                0x4a0018f0       0x14 arch/arm/cpu/armv7/sun50iw2p1/built-in.o
                0x4a0018f0                sid_get_security_status
 .text.__aw_endian4
                0x4a001904        0x8 arch/arm/cpu/armv7/sun50iw2p1/built-in.o
 .text.__ss_encry_decry_end
                0x4a00190c       0x30 arch/arm/cpu/armv7/sun50iw2p1/built-in.o
 .text.sunxi_ss_open
                0x4a00193c       0x40 arch/arm/cpu/armv7/sun50iw2p1/built-in.o
                0x4a00193c                sunxi_ss_open
 .text.sunxi_sha_calc
                0x4a00197c      0x2bc arch/arm/cpu/armv7/sun50iw2p1/built-in.o
                0x4a00197c                sunxi_sha_calc
 .text.gic_cpuif_init
                0x4a001c38       0x68 arch/arm/cpu/armv7/sun50iw2p1/built-in.o
 .text.gic_distributor_init
                0x4a001ca0       0xf0 arch/arm/cpu/armv7/sun50iw2p1/built-in.o
 .text.default_isr
                0x4a001d90       0x18 arch/arm/cpu/armv7/sun50iw2p1/built-in.o
 .text.irq_enable
                0x4a001da8       0x78 arch/arm/cpu/armv7/sun50iw2p1/built-in.o
                0x4a001da8                irq_enable
 .text.irq_disable
                0x4a001e20       0x74 arch/arm/cpu/armv7/sun50iw2p1/built-in.o
                0x4a001e20                irq_disable
 .text.irq_install_handler
                0x4a001e94       0x5c arch/arm/cpu/armv7/sun50iw2p1/built-in.o
                0x4a001e94                irq_install_handler
 .text.irq_free_handler
                0x4a001ef0       0x38 arch/arm/cpu/armv7/sun50iw2p1/built-in.o
                0x4a001ef0                irq_free_handler
 .text.do_irq   0x4a001f28       0xdc arch/arm/cpu/armv7/sun50iw2p1/built-in.o
                0x4a001f28                do_irq
 .text.do_irqinfo
                0x4a002004       0x74 arch/arm/cpu/armv7/sun50iw2p1/built-in.o
                0x4a002004                do_irqinfo
 .text.arch_interrupt_init
                0x4a002078       0x64 arch/arm/cpu/armv7/sun50iw2p1/built-in.o
                0x4a002078                arch_interrupt_init
 .text.arch_interrupt_exit
                0x4a0020dc       0x20 arch/arm/cpu/armv7/sun50iw2p1/built-in.o
                0x4a0020dc                arch_interrupt_exit
 .text.USBC_ReadLenFromFifo
                0x4a0020fc       0x2c arch/arm/cpu/armv7/sun50iw2p1/built-in.o
                0x4a0020fc                USBC_ReadLenFromFifo
 .text.USBC_WritePacket
                0x4a002128       0x90 arch/arm/cpu/armv7/sun50iw2p1/built-in.o
                0x4a002128                USBC_WritePacket
 .text.USBC_ReadPacket
                0x4a0021b8       0x6c arch/arm/cpu/armv7/sun50iw2p1/built-in.o
                0x4a0021b8                USBC_ReadPacket
 .text.USBC_ConfigFIFO_Base
                0x4a002224       0x3c arch/arm/cpu/armv7/sun50iw2p1/built-in.o
                0x4a002224                USBC_ConfigFIFO_Base
 .text.USBC_SelectFIFO
                0x4a002260       0x10 arch/arm/cpu/armv7/sun50iw2p1/built-in.o
                0x4a002260                USBC_SelectFIFO
 .text.__USBC_ConfigFifo_TxEp
                0x4a002270       0x50 arch/arm/cpu/armv7/sun50iw2p1/built-in.o
                0x4a002270                __USBC_ConfigFifo_TxEp
 .text.__USBC_ConfigFifo_RxEp
                0x4a0022c0       0x50 arch/arm/cpu/armv7/sun50iw2p1/built-in.o
                0x4a0022c0                __USBC_ConfigFifo_RxEp
 .text.USBC_ConfigFifo
                0x4a002310       0x3c arch/arm/cpu/armv7/sun50iw2p1/built-in.o
                0x4a002310                USBC_ConfigFifo
 .text.USBC_SelectBus
                0x4a00234c       0x44 arch/arm/cpu/armv7/sun50iw2p1/built-in.o
                0x4a00234c                USBC_SelectBus
 .text.USBC_INT_EpPending
                0x4a002390       0x3c arch/arm/cpu/armv7/sun50iw2p1/built-in.o
                0x4a002390                USBC_INT_EpPending
 .text.USBC_INT_ClearEpPending
                0x4a0023cc       0x54 arch/arm/cpu/armv7/sun50iw2p1/built-in.o
                0x4a0023cc                USBC_INT_ClearEpPending
 .text.USBC_INT_ClearEpPendingAll
                0x4a002420       0x38 arch/arm/cpu/armv7/sun50iw2p1/built-in.o
                0x4a002420                USBC_INT_ClearEpPendingAll
 .text.USBC_INT_MiscPending
                0x4a002458       0x10 arch/arm/cpu/armv7/sun50iw2p1/built-in.o
                0x4a002458                USBC_INT_MiscPending
 .text.USBC_INT_ClearMiscPending
                0x4a002468       0x14 arch/arm/cpu/armv7/sun50iw2p1/built-in.o
                0x4a002468                USBC_INT_ClearMiscPending
 .text.USBC_INT_ClearMiscPendingAll
                0x4a00247c       0x14 arch/arm/cpu/armv7/sun50iw2p1/built-in.o
                0x4a00247c                USBC_INT_ClearMiscPendingAll
 .text.USBC_INT_EnableEp
                0x4a002490       0x54 arch/arm/cpu/armv7/sun50iw2p1/built-in.o
                0x4a002490                USBC_INT_EnableEp
 .text.USBC_INT_EnableUsbMiscUint
                0x4a0024e4       0x1c arch/arm/cpu/armv7/sun50iw2p1/built-in.o
                0x4a0024e4                USBC_INT_EnableUsbMiscUint
 .text.USBC_INT_DisableUsbMiscUint
                0x4a002500       0x18 arch/arm/cpu/armv7/sun50iw2p1/built-in.o
                0x4a002500                USBC_INT_DisableUsbMiscUint
 .text.USBC_INT_DisableEpAll
                0x4a002518       0x30 arch/arm/cpu/armv7/sun50iw2p1/built-in.o
                0x4a002518                USBC_INT_DisableEpAll
 .text.USBC_INT_DisableUsbMiscAll
                0x4a002548       0x14 arch/arm/cpu/armv7/sun50iw2p1/built-in.o
                0x4a002548                USBC_INT_DisableUsbMiscAll
 .text.USBC_GetActiveEp
                0x4a00255c       0x10 arch/arm/cpu/armv7/sun50iw2p1/built-in.o
                0x4a00255c                USBC_GetActiveEp
 .text.USBC_SelectActiveEp
                0x4a00256c       0x10 arch/arm/cpu/armv7/sun50iw2p1/built-in.o
                0x4a00256c                USBC_SelectActiveEp
 .text.USBC_EnhanceSignal
                0x4a00257c        0x4 arch/arm/cpu/armv7/sun50iw2p1/built-in.o
                0x4a00257c                USBC_EnhanceSignal
 .text.USBC_EnableIdPullUp
                0x4a002580       0x18 arch/arm/cpu/armv7/sun50iw2p1/built-in.o
                0x4a002580                USBC_EnableIdPullUp
 .text.USBC_EnableDpDmPullUp
                0x4a002598       0x18 arch/arm/cpu/armv7/sun50iw2p1/built-in.o
                0x4a002598                USBC_EnableDpDmPullUp
 .text.USBC_ForceId
                0x4a0025b0       0x38 arch/arm/cpu/armv7/sun50iw2p1/built-in.o
                0x4a0025b0                USBC_ForceId
 .text.USBC_ForceVbusValid
                0x4a0025e8       0x48 arch/arm/cpu/armv7/sun50iw2p1/built-in.o
                0x4a0025e8                USBC_ForceVbusValid
 .text.USBC_open_otg
                0x4a002630       0x44 arch/arm/cpu/armv7/sun50iw2p1/built-in.o
                0x4a002630                USBC_open_otg
 .text.USBC_close_otg
                0x4a002674       0x28 arch/arm/cpu/armv7/sun50iw2p1/built-in.o
                0x4a002674                USBC_close_otg
 .text.USBC_Dev_SetAddress_default
                0x4a00269c       0x14 arch/arm/cpu/armv7/sun50iw2p1/built-in.o
                0x4a00269c                USBC_Dev_SetAddress_default
 .text.USBC_Dev_SetAddress
                0x4a0026b0       0x10 arch/arm/cpu/armv7/sun50iw2p1/built-in.o
                0x4a0026b0                USBC_Dev_SetAddress
 .text.USBC_Dev_QueryTransferMode
                0x4a0026c0       0x20 arch/arm/cpu/armv7/sun50iw2p1/built-in.o
                0x4a0026c0                USBC_Dev_QueryTransferMode
 .text.USBC_Dev_ConfigTransferMode
                0x4a0026e0       0x70 arch/arm/cpu/armv7/sun50iw2p1/built-in.o
                0x4a0026e0                USBC_Dev_ConfigTransferMode
 .text.USBC_Dev_ConectSwitch
                0x4a002750       0x24 arch/arm/cpu/armv7/sun50iw2p1/built-in.o
                0x4a002750                USBC_Dev_ConectSwitch
 .text.USBC_Dev_ConfigEp
                0x4a002774      0x10c arch/arm/cpu/armv7/sun50iw2p1/built-in.o
                0x4a002774                USBC_Dev_ConfigEp
 .text.USBC_Dev_ConfigEpDma
                0x4a002880       0x68 arch/arm/cpu/armv7/sun50iw2p1/built-in.o
                0x4a002880                USBC_Dev_ConfigEpDma
 .text.USBC_Dev_ClearEpDma
                0x4a0028e8       0x70 arch/arm/cpu/armv7/sun50iw2p1/built-in.o
                0x4a0028e8                USBC_Dev_ClearEpDma
 .text.USBC_Dev_IsEpStall
                0x4a002958       0x48 arch/arm/cpu/armv7/sun50iw2p1/built-in.o
                0x4a002958                USBC_Dev_IsEpStall
 .text.USBC_Dev_EpSendStall
                0x4a0029a0       0x68 arch/arm/cpu/armv7/sun50iw2p1/built-in.o
                0x4a0029a0                USBC_Dev_EpSendStall
 .text.USBC_Dev_EpClearStall
                0x4a002a08       0x98 arch/arm/cpu/armv7/sun50iw2p1/built-in.o
                0x4a002a08                USBC_Dev_EpClearStall
 .text.USBC_Dev_Ctrl_IsSetupEnd
                0x4a002aa0       0x14 arch/arm/cpu/armv7/sun50iw2p1/built-in.o
                0x4a002aa0                USBC_Dev_Ctrl_IsSetupEnd
 .text.USBC_Dev_Ctrl_ClearSetupEnd
                0x4a002ab4       0x18 arch/arm/cpu/armv7/sun50iw2p1/built-in.o
                0x4a002ab4                USBC_Dev_Ctrl_ClearSetupEnd
 .text.USBC_Dev_WriteDataStatus
                0x4a002acc       0x8c arch/arm/cpu/armv7/sun50iw2p1/built-in.o
                0x4a002acc                USBC_Dev_WriteDataStatus
 .text.USBC_Dev_ReadDataStatus
                0x4a002b58       0x80 arch/arm/cpu/armv7/sun50iw2p1/built-in.o
                0x4a002b58                USBC_Dev_ReadDataStatus
 .text.USBC_Dev_IsReadDataReady
                0x4a002bd8       0x40 arch/arm/cpu/armv7/sun50iw2p1/built-in.o
                0x4a002bd8                USBC_Dev_IsReadDataReady
 .text.USBC_Dev_IsWriteDataReady
                0x4a002c18       0x3c arch/arm/cpu/armv7/sun50iw2p1/built-in.o
                0x4a002c18                USBC_Dev_IsWriteDataReady
 .text.USBC_Dma_Set_ChannalPara
                0x4a002c54       0x44 arch/arm/cpu/armv7/sun50iw2p1/built-in.o
                0x4a002c54                USBC_Dma_Set_ChannalPara
 .text.USBC_Dma_Set_PktLen
                0x4a002c98       0x40 arch/arm/cpu/armv7/sun50iw2p1/built-in.o
                0x4a002c98                USBC_Dma_Set_PktLen
 .text.USBC_Dma_Start
                0x4a002cd8       0x78 arch/arm/cpu/armv7/sun50iw2p1/built-in.o
                0x4a002cd8                USBC_Dma_Start
 .text.USBC_Dma_Int_Stop
                0x4a002d50       0x34 arch/arm/cpu/armv7/sun50iw2p1/built-in.o
                0x4a002d50                USBC_Dma_Int_Stop
 .text.USBC_Dma_Int_Query
                0x4a002d84       0x1c arch/arm/cpu/armv7/sun50iw2p1/built-in.o
                0x4a002d84                USBC_Dma_Int_Query
 .text.USBC_Dma_Int_Clear
                0x4a002da0       0x24 arch/arm/cpu/armv7/sun50iw2p1/built-in.o
                0x4a002da0                USBC_Dma_Int_Clear
 .text.usb_open_clock
                0x4a002dc4       0x80 arch/arm/cpu/armv7/sun50iw2p1/built-in.o
                0x4a002dc4                usb_open_clock
 .text.usb_close_clock
                0x4a002e44       0x54 arch/arm/cpu/armv7/sun50iw2p1/built-in.o
                0x4a002e44                usb_close_clock
 .text.usb_probe_vbus_type
                0x4a002e98       0x64 arch/arm/cpu/armv7/sun50iw2p1/built-in.o
                0x4a002e98                usb_probe_vbus_type
 *fill*         0x4a002efc        0x4 00
 .text          0x4a002f00      0x58c arch/arm/lib/built-in.o
                0x4a002f00                _main
                0x4a002f84                relocate_code
                0x4a003020                memset
                0x4a0030e0                memcpy
 .text.arch_fixup_memory_node
                0x4a00348c       0x38 arch/arm/lib/built-in.o
                0x4a00348c                arch_fixup_memory_node
 .text.boot_jump_linux
                0x4a0034c4       0xb0 arch/arm/lib/built-in.o
 .text.arch_lmb_reserve
                0x4a003574       0x24 arch/arm/lib/built-in.o
                0x4a003574                arch_lmb_reserve
 .text.setup_board_tags
                0x4a003598        0x4 arch/arm/lib/built-in.o
                0x4a003598                setup_board_tags
 .text.boot_prep_linux
                0x4a00359c      0x178 arch/arm/lib/built-in.o
 .text.do_bootm_linux
                0x4a003714       0x5c arch/arm/lib/built-in.o
                0x4a003714                do_bootm_linux
 .text.boot_prep_vxworks
                0x4a003770       0x4c arch/arm/lib/built-in.o
                0x4a003770                boot_prep_vxworks
 .text.boot_jump_vxworks
                0x4a0037bc       0x14 arch/arm/lib/built-in.o
                0x4a0037bc                boot_jump_vxworks
 .text.interrupt_init
                0x4a0037d0       0x40 arch/arm/lib/built-in.o
                0x4a0037d0                interrupt_init
 .text.interrupt_exit
                0x4a003810        0x4 arch/arm/lib/built-in.o
                0x4a003810                interrupt_exit
 .text.enable_interrupts
                0x4a003814       0x10 arch/arm/lib/built-in.o
                0x4a003814                enable_interrupts
 .text.interrupts_is_open
                0x4a003824       0x14 arch/arm/lib/built-in.o
                0x4a003824                interrupts_is_open
 .text.disable_interrupts
                0x4a003838       0x1c arch/arm/lib/built-in.o
                0x4a003838                disable_interrupts
 .text.bad_mode
                0x4a003854       0x10 arch/arm/lib/built-in.o
                0x4a003854                bad_mode
 .text.show_regs
                0x4a003864      0x140 arch/arm/lib/built-in.o
                0x4a003864                show_regs
 .text.do_undefined_instruction
                0x4a0039a4       0x20 arch/arm/lib/built-in.o
                0x4a0039a4                do_undefined_instruction
 .text.do_software_interrupt
                0x4a0039c4       0x20 arch/arm/lib/built-in.o
                0x4a0039c4                do_software_interrupt
 .text.do_prefetch_abort
                0x4a0039e4       0x20 arch/arm/lib/built-in.o
                0x4a0039e4                do_prefetch_abort
 .text.do_data_abort
                0x4a003a04       0x20 arch/arm/lib/built-in.o
                0x4a003a04                do_data_abort
 .text.do_not_used
                0x4a003a24       0x20 arch/arm/lib/built-in.o
                0x4a003a24                do_not_used
 .text.do_fiq   0x4a003a44       0x20 arch/arm/lib/built-in.o
                0x4a003a44                do_fiq
 .text.do_reset
                0x4a003a64       0x2c arch/arm/lib/built-in.o
                0x4a003a64                do_reset
 .text.cp_delay
                0x4a003a90       0x30 arch/arm/lib/built-in.o
 .text.cache_disable
                0x4a003ac0       0x44 arch/arm/lib/built-in.o
 .text.arm_init_domains
                0x4a003b04        0x4 arch/arm/lib/built-in.o
                0x4a003b04                arm_init_domains
 .text.set_section_dcache
                0x4a003b08       0x14 arch/arm/lib/built-in.o
                0x4a003b08                set_section_dcache
 .text.dram_bank_mmu_setup
                0x4a003b1c       0x88 arch/arm/lib/built-in.o
                0x4a003b1c                dram_bank_mmu_setup
 .text.cache_enable
                0x4a003ba4       0x78 arch/arm/lib/built-in.o
 .text.icache_enable
                0x4a003c1c        0x8 arch/arm/lib/built-in.o
                0x4a003c1c                icache_enable
 .text.icache_disable
                0x4a003c24        0x8 arch/arm/lib/built-in.o
                0x4a003c24                icache_disable
 .text.dcache_enable
                0x4a003c2c        0x8 arch/arm/lib/built-in.o
                0x4a003c2c                dcache_enable
 .text.dcache_disable
                0x4a003c34        0x8 arch/arm/lib/built-in.o
                0x4a003c34                dcache_disable
 .text.dcache_status
                0x4a003c3c        0xc arch/arm/lib/built-in.o
                0x4a003c3c                dcache_status
 .text.sprite_cartoon_screen_set
                0x4a003c48       0xb8 board/sunxi/cartoon/built-in.o
                0x4a003c48                sprite_cartoon_screen_set
 .text.sprite_cartoon_test
                0x4a003d00      0x19c board/sunxi/cartoon/built-in.o
                0x4a003d00                sprite_cartoon_test
 .text.do_sunxi_screen_char
                0x4a003e9c        0x4 board/sunxi/cartoon/built-in.o
                0x4a003e9c                do_sunxi_screen_char
 .text.sprite_cartoon_create
                0x4a003ea0      0x10c board/sunxi/cartoon/built-in.o
                0x4a003ea0                sprite_cartoon_create
 .text.sprite_cartoon_upgrade
                0x4a003fac       0x4c board/sunxi/cartoon/built-in.o
                0x4a003fac                sprite_cartoon_upgrade
 .text.sprite_cartoon_progressbar_create
                0x4a003ff8       0xb0 board/sunxi/cartoon/built-in.o
                0x4a003ff8                sprite_cartoon_progressbar_create
 .text.sprite_cartoon_progressbar_config
                0x4a0040a8       0x48 board/sunxi/cartoon/built-in.o
                0x4a0040a8                sprite_cartoon_progressbar_config
 .text.sprite_cartoon_progressbar_active
                0x4a0040f0       0x64 board/sunxi/cartoon/built-in.o
                0x4a0040f0                sprite_cartoon_progressbar_active
 .text.sprite_cartoon_progressbar_upgrate
                0x4a004154       0xc4 board/sunxi/cartoon/built-in.o
                0x4a004154                sprite_cartoon_progressbar_upgrate
 .text.sprite_cartoon_ui_draw_hollowrectangle
                0x4a004218       0xd4 board/sunxi/cartoon/built-in.o
                0x4a004218                sprite_cartoon_ui_draw_hollowrectangle
 .text.sprite_cartoon_ui_draw_solidrectangle
                0x4a0042ec       0xac board/sunxi/cartoon/built-in.o
                0x4a0042ec                sprite_cartoon_ui_draw_solidrectangle
 .text.sprite_cartoon_ui_set_color
                0x4a004398       0x14 board/sunxi/cartoon/built-in.o
                0x4a004398                sprite_cartoon_ui_set_color
 .text.sprite_cartoon_ui_get_color
                0x4a0043ac       0x10 board/sunxi/cartoon/built-in.o
                0x4a0043ac                sprite_cartoon_ui_get_color
 .text.uichar_change_newline
                0x4a0043bc       0x74 board/sunxi/cartoon/built-in.o
 .text.sprite_uichar_init
                0x4a004430      0x124 board/sunxi/cartoon/built-in.o
                0x4a004430                sprite_uichar_init
 .text.sprite_uichar_printf
                0x4a004554      0x128 board/sunxi/cartoon/built-in.o
                0x4a004554                sprite_uichar_printf
 .text.sprite_uichar_printf_ex
                0x4a00467c       0x84 board/sunxi/cartoon/built-in.o
                0x4a00467c                sprite_uichar_printf_ex
 .text.draw_pixel
                0x4a004700       0x60 board/sunxi/cartoon/built-in.o
 .text.open_font
                0x4a004760       0xe0 board/sunxi/cartoon/built-in.o
                0x4a004760                open_font
 .text.check_change_line
                0x4a004840       0x60 board/sunxi/cartoon/built-in.o
                0x4a004840                check_change_line
 .text.draw_bmp_ulc
                0x4a0048a0       0xd4 board/sunxi/cartoon/built-in.o
                0x4a0048a0                draw_bmp_ulc
 .text.is_valid_face
                0x4a004974       0x28 board/sunxi/cartoon/built-in.o
 .text.release_hdl_res
                0x4a00499c       0xb4 board/sunxi/cartoon/built-in.o
 .text.SFTE_New_Face
                0x4a004a50      0x214 board/sunxi/cartoon/built-in.o
                0x4a004a50                SFTE_New_Face
 .text.SFTE_Done_Face
                0x4a004c64       0x40 board/sunxi/cartoon/built-in.o
                0x4a004c64                SFTE_Done_Face
 .text.SFTE_Set_Pixel_Sizes
                0x4a004ca4      0x170 board/sunxi/cartoon/built-in.o
                0x4a004ca4                SFTE_Set_Pixel_Sizes
 .text.SFTE_Get_Glyph
                0x4a004e14      0x208 board/sunxi/cartoon/built-in.o
                0x4a004e14                SFTE_Get_Glyph
 .text.sunxi_dump
                0x4a00501c       0x5c board/sunxi/common/built-in.o
                0x4a00501c                sunxi_dump
 .text.gpio_set_axpgpio_value.constprop.6
                0x4a005078       0x50 board/sunxi/common/built-in.o
 .text.PIO_REG_CFG
                0x4a0050c8       0x34 board/sunxi/common/built-in.o
                0x4a0050c8                PIO_REG_CFG
 .text.PIO_REG_PULL
                0x4a0050fc       0x38 board/sunxi/common/built-in.o
                0x4a0050fc                PIO_REG_PULL
 .text.PIO_REG_DLEVEL
                0x4a005134       0x38 board/sunxi/common/built-in.o
                0x4a005134                PIO_REG_DLEVEL
 .text.PIO_REG_DATA
                0x4a00516c       0x30 board/sunxi/common/built-in.o
                0x4a00516c                PIO_REG_DATA
 .text.PIO_REG_CFG_VALUE
                0x4a00519c       0x38 board/sunxi/common/built-in.o
                0x4a00519c                PIO_REG_CFG_VALUE
 .text.PIO_REG_DATA_VALUE
                0x4a0051d4       0x30 board/sunxi/common/built-in.o
                0x4a0051d4                PIO_REG_DATA_VALUE
 .text.gpio_set_one_pin_io_status
                0x4a005204       0xc4 board/sunxi/common/built-in.o
                0x4a005204                gpio_set_one_pin_io_status
 .text.gpio_read_one_pin_value
                0x4a0052c8       0xb8 board/sunxi/common/built-in.o
                0x4a0052c8                gpio_read_one_pin_value
 .text.gpio_write_one_pin_value
                0x4a005380       0xdc board/sunxi/common/built-in.o
                0x4a005380                gpio_write_one_pin_value
 .text.gpio_request_early
                0x4a00545c      0x568 board/sunxi/common/built-in.o
                0x4a00545c                gpio_request_early
 .text.gpio_request
                0x4a0059c4      0x5bc board/sunxi/common/built-in.o
                0x4a0059c4                gpio_request
 .text.gpio_release
                0x4a005f80       0x30 board/sunxi/common/built-in.o
                0x4a005f80                gpio_release
 .text.fdt_get_all_pin
                0x4a005fb0      0x454 board/sunxi/common/built-in.o
                0x4a005fb0                fdt_get_all_pin
 .text.fdt_set_all_pin
                0x4a006404       0x88 board/sunxi/common/built-in.o
                0x4a006404                fdt_set_all_pin
 .text.fdt_set_all_pin_by_offset
                0x4a00648c       0x7c board/sunxi/common/built-in.o
                0x4a00648c                fdt_set_all_pin_by_offset
 .text.fdt_get_one_gpio_by_offset
                0x4a006508       0xa4 board/sunxi/common/built-in.o
                0x4a006508                fdt_get_one_gpio_by_offset
 .text.fdt_get_one_gpio
                0x4a0065ac       0xac board/sunxi/common/built-in.o
                0x4a0065ac                fdt_get_one_gpio
 .text._test_str_length
                0x4a006658       0x30 board/sunxi/common/built-in.o
                0x4a006658                _test_str_length
 .text.script_parser_init
                0x4a006688       0x20 board/sunxi/common/built-in.o
                0x4a006688                script_parser_init
 .text.script_parser_fetch
                0x4a0066a8      0x210 board/sunxi/common/built-in.o
                0x4a0066a8                script_parser_fetch
 .text.script_parser_offset
                0x4a0068b8       0xb8 board/sunxi/common/built-in.o
                0x4a0068b8                script_parser_offset
 .text.script_parser_fetch_by_offset
                0x4a006970      0x140 board/sunxi/common/built-in.o
                0x4a006970                script_parser_fetch_by_offset
 .text.script_parser_patch
                0x4a006ab0      0x214 board/sunxi/common/built-in.o
                0x4a006ab0                script_parser_patch
 .text.sunxi_partition_get_total_num
                0x4a006cc4       0x3c board/sunxi/common/built-in.o
                0x4a006cc4                sunxi_partition_get_total_num
 .text.sunxi_partition_get_name
                0x4a006d00       0x50 board/sunxi/common/built-in.o
                0x4a006d00                sunxi_partition_get_name
 .text.sunxi_partition_get_offset
                0x4a006d50       0x74 board/sunxi/common/built-in.o
                0x4a006d50                sunxi_partition_get_offset
 .text.sunxi_partition_get_size
                0x4a006dc4       0x74 board/sunxi/common/built-in.o
                0x4a006dc4                sunxi_partition_get_size
 .text.sunxi_partition_get_offset_byname
                0x4a006e38       0xa4 board/sunxi/common/built-in.o
                0x4a006e38                sunxi_partition_get_offset_byname
 .text.sunxi_partition_get_partno_byname
                0x4a006edc       0x78 board/sunxi/common/built-in.o
                0x4a006edc                sunxi_partition_get_partno_byname
 .text.sunxi_partition_get_size_byname
                0x4a006f54       0xa4 board/sunxi/common/built-in.o
                0x4a006f54                sunxi_partition_get_size_byname
 .text.sunxi_partition_init
                0x4a006ff8       0xf4 board/sunxi/common/built-in.o
                0x4a006ff8                sunxi_partition_init
 .text.sunxi_update_subsequent_processing
                0x4a0070ec       0x8c board/sunxi/common/built-in.o
                0x4a0070ec                sunxi_update_subsequent_processing
 .text.sunxi_fastboot_init
                0x4a007178      0x200 board/sunxi/common/built-in.o
                0x4a007178                sunxi_fastboot_init
 .text.respond_ir_boot_recovery_action
                0x4a007378       0x24 board/sunxi/common/built-in.o
                0x4a007378                respond_ir_boot_recovery_action
 .text.check_physical_key_early
                0x4a00739c      0x170 board/sunxi/common/built-in.o
                0x4a00739c                check_physical_key_early
 .text.update_bootcmd
                0x4a00750c      0x3e0 board/sunxi/common/built-in.o
                0x4a00750c                update_bootcmd
 .text.disable_node
                0x4a0078ec       0x68 board/sunxi/common/built-in.o
                0x4a0078ec                disable_node
 .text.update_fdt_para_for_kernel
                0x4a007954      0x504 board/sunxi/common/built-in.o
                0x4a007954                update_fdt_para_for_kernel
 .text.get_boot_work_mode
                0x4a007e58       0x10 board/sunxi/common/built-in.o
                0x4a007e58                get_boot_work_mode
 .text.get_boot_storage_type
                0x4a007e68       0x10 board/sunxi/common/built-in.o
                0x4a007e68                get_boot_storage_type
 .text.get_boot_dram_para_addr
                0x4a007e78        0xc board/sunxi/common/built-in.o
                0x4a007e78                get_boot_dram_para_addr
 .text.get_boot_dram_para_size
                0x4a007e84        0x8 board/sunxi/common/built-in.o
                0x4a007e84                get_boot_dram_para_size
 .text.get_boot_dram_update_flag
                0x4a007e8c       0x18 board/sunxi/common/built-in.o
                0x4a007e8c                get_boot_dram_update_flag
 .text.set_boot_dram_update_flag
                0x4a007ea4       0x10 board/sunxi/common/built-in.o
                0x4a007ea4                set_boot_dram_update_flag
 .text.get_debugmode_flag
                0x4a007eb4       0x60 board/sunxi/common/built-in.o
                0x4a007eb4                get_debugmode_flag
 .text.write_usb_recovery_to_misc
                0x4a007f14       0x9c board/sunxi/common/built-in.o
                0x4a007f14                write_usb_recovery_to_misc
 .text.respond_physical_key_action
                0x4a007fb0       0x4c board/sunxi/common/built-in.o
                0x4a007fb0                respond_physical_key_action
 .text.update_dram_para_for_ota
                0x4a007ffc       0x94 board/sunxi/common/built-in.o
                0x4a007ffc                update_dram_para_for_ota
 .text.board_late_init
                0x4a008090       0x48 board/sunxi/common/built-in.o
                0x4a008090                board_late_init
 .text.sunxi_led_init
                0x4a0080d8      0x108 board/sunxi/common/built-in.o
                0x4a0080d8                sunxi_led_init
 .text.sunxi_led_exit
                0x4a0081e0        0x4 board/sunxi/common/built-in.o
                0x4a0081e0                sunxi_led_exit
 .text.sunxi_str_replace
                0x4a0081e4      0x1c8 board/sunxi/common/built-in.o
                0x4a0081e4                sunxi_str_replace
 .text.power_limit_init
                0x4a0083ac       0x44 board/sunxi/common/built-in.o
                0x4a0083ac                power_limit_init
 .text.power_limit_for_vbus
                0x4a0083f0       0x84 board/sunxi/common/built-in.o
                0x4a0083f0                power_limit_for_vbus
 .text.EnterAndroidChargeMode
                0x4a008474       0x28 board/sunxi/common/built-in.o
 .text.EnterNormalBootMode
                0x4a00849c       0x20 board/sunxi/common/built-in.o
 .text.ProbePreSystemMode
                0x4a0084bc       0x4c board/sunxi/common/built-in.o
                0x4a0084bc                ProbePreSystemMode
 .text.PowerCheck
                0x4a008508      0x254 board/sunxi/common/built-in.o
                0x4a008508                PowerCheck
 .text.check_update_key
                0x4a00875c      0x1b8 board/sunxi/common/built-in.o
                0x4a00875c                check_update_key
 .text.check_uart_input
                0x4a008914       0x74 board/sunxi/common/built-in.o
                0x4a008914                check_uart_input
 .text.debug_mode_get
                0x4a008988        0x8 board/sunxi/common/built-in.o
                0x4a008988                debug_mode_get
 .text.debug_mode_set
                0x4a008990        0x8 board/sunxi/common/built-in.o
                0x4a008990                debug_mode_set
 .text.debug_mode_update_info
                0x4a008998        0x4 board/sunxi/common/built-in.o
                0x4a008998                debug_mode_update_info
 .text.do_efuse_read
                0x4a00899c       0xac board/sunxi/common/built-in.o
                0x4a00899c                do_efuse_read
 .text.sunxi_keydata_burn_by_usb
                0x4a008a48      0x1b8 board/sunxi/common/built-in.o
                0x4a008a48                sunxi_keydata_burn_by_usb
 .text.get_serial_num_from_chipid
                0x4a008c00       0x64 board/sunxi/common/built-in.o
                0x4a008c00                get_serial_num_from_chipid
 .text.sunxi_set_serial_num
                0x4a008c64       0x7c board/sunxi/common/built-in.o
                0x4a008c64                sunxi_set_serial_num
 .text.set_int_gate_onoff
                0x4a008ce0       0x6c board/sunxi/common/built-in.o
                0x4a008ce0                set_int_gate_onoff
 .text.set_int_mode
                0x4a008d4c       0x84 board/sunxi/common/built-in.o
                0x4a008d4c                set_int_mode
 .text.clean_int_pending
                0x4a008dd0       0x5c board/sunxi/common/built-in.o
                0x4a008dd0                clean_int_pending
 .text.standby_led_control
                0x4a008e2c       0xcc board/sunxi/common/built-in.o
                0x4a008e2c                standby_led_control
 .text.init_standby_wakeup_src
                0x4a008ef8      0x118 board/sunxi/common/built-in.o
                0x4a008ef8                init_standby_wakeup_src
 .text.sunxi_arisc_standby
                0x4a009010       0x14 board/sunxi/common/built-in.o
                0x4a009010                sunxi_arisc_standby
 .text.do_box_standby
                0x4a009024      0x180 board/sunxi/common/built-in.o
                0x4a009024                do_box_standby
 .text.disp_getprop_by_name
                0x4a0091a4       0xbc board/sunxi/common/built-in.o
 .text.board_display_update_para_for_kernel
                0x4a009260       0xa4 board/sunxi/common/built-in.o
 .text.board_display_wait_lcd_open
                0x4a009304       0x64 board/sunxi/common/built-in.o
                0x4a009304                board_display_wait_lcd_open
 .text.board_display_wait_lcd_close
                0x4a009368       0x64 board/sunxi/common/built-in.o
                0x4a009368                board_display_wait_lcd_close
 .text.board_display_set_exit_mode
                0x4a0093cc       0x5c board/sunxi/common/built-in.o
                0x4a0093cc                board_display_set_exit_mode
 .text.board_display_layer_open
                0x4a009428       0x58 board/sunxi/common/built-in.o
                0x4a009428                board_display_layer_open
 .text.board_display_layer_para_set
                0x4a009480       0x48 board/sunxi/common/built-in.o
                0x4a009480                board_display_layer_para_set
 .text.board_display_show_until_lcd_open
                0x4a0094c8       0x38 board/sunxi/common/built-in.o
                0x4a0094c8                board_display_show_until_lcd_open
 .text.board_display_show
                0x4a009500       0x14 board/sunxi/common/built-in.o
                0x4a009500                board_display_show
 .text.board_display_framebuffer_set
                0x4a009514      0x1e4 board/sunxi/common/built-in.o
                0x4a009514                board_display_framebuffer_set
 .text.save_disp_cmd
                0x4a0096f8       0x14 board/sunxi/common/built-in.o
                0x4a0096f8                save_disp_cmd
 .text.set_interest_region
                0x4a00970c       0x84 board/sunxi/common/built-in.o
 .text.fb_init  0x4a009790      0x2e0 board/sunxi/common/built-in.o
                0x4a009790                fb_init
 .text.fb_lock  0x4a009a70       0x7c board/sunxi/common/built-in.o
                0x4a009a70                fb_lock
 .text.fb_unlock
                0x4a009aec       0xa0 board/sunxi/common/built-in.o
                0x4a009aec                fb_unlock
 .text.fb_save_para
                0x4a009b8c      0x110 board/sunxi/common/built-in.o
                0x4a009b8c                fb_save_para
 .text.do_nothing
                0x4a009c9c        0x8 board/sunxi/common/built-in.o
 .text.get_canvas_utils
                0x4a009ca4       0x28 board/sunxi/common/built-in.o
                0x4a009ca4                get_canvas_utils
 .text.disp_devices_open
                0x4a009ccc       0x9c board/sunxi/common/built-in.o
                0x4a009ccc                disp_devices_open
 .text.hdmi_verify_mode
                0x4a009d68      0x288 board/sunxi/common/built-in.o
                0x4a009d68                hdmi_verify_mode
 .text._show_layer_on_dev
                0x4a009ff0       0xc8 board/sunxi/common/built-in.o
 .text.get_disp_fdt_node
                0x4a00a0b8       0x38 board/sunxi/common/built-in.o
 .text.hal_save_int_to_kernel
                0x4a00a0f0       0x70 board/sunxi/common/built-in.o
                0x4a00a0f0                hal_save_int_to_kernel
 .text.hal_save_string_to_kernel
                0x4a00a160       0x74 board/sunxi/common/built-in.o
                0x4a00a160                hal_save_string_to_kernel
 .text.hal_fat_fsload
                0x4a00a1d4        0x4 board/sunxi/common/built-in.o
                0x4a00a1d4                hal_fat_fsload
 .text.hal_get_mode_check
                0x4a00a1d8       0x30 board/sunxi/common/built-in.o
                0x4a00a1d8                hal_get_mode_check
 .text.hal_switch_device
                0x4a00a208      0x190 board/sunxi/common/built-in.o
                0x4a00a208                hal_switch_device
 .text.hal_get_hpd_state
                0x4a00a398       0x5c board/sunxi/common/built-in.o
                0x4a00a398                hal_get_hpd_state
 .text.hal_get_disp_devices
                0x4a00a3f4      0x380 board/sunxi/common/built-in.o
                0x4a00a3f4                hal_get_disp_devices
 .text.hal_is_support_mode
                0x4a00a774       0x4c board/sunxi/common/built-in.o
                0x4a00a774                hal_is_support_mode
 .text.hal_get_hdmi_edid
                0x4a00a7c0       0x64 board/sunxi/common/built-in.o
                0x4a00a7c0                hal_get_hdmi_edid
 .text.hal_get_fb_configs
                0x4a00a824       0xf8 board/sunxi/common/built-in.o
                0x4a00a824                hal_get_fb_configs
 .text.hal_request_layer
                0x4a00a91c       0xb4 board/sunxi/common/built-in.o
                0x4a00a91c                hal_request_layer
 .text.hal_show_layer
                0x4a00a9d0       0x58 board/sunxi/common/built-in.o
                0x4a00a9d0                hal_show_layer
 .text.hal_set_layer_geometry
                0x4a00aa28       0xb0 board/sunxi/common/built-in.o
                0x4a00aa28                hal_set_layer_geometry
 .text.hal_set_layer_addr
                0x4a00aad8       0x3c board/sunxi/common/built-in.o
                0x4a00aad8                hal_set_layer_addr
 .text.enable_smp
                0x4a00ab14       0x14 board/sunxi/sun50iw2p1/built-in.o
                0x4a00ab14                enable_smp
 .text.board_init
                0x4a00ab28       0x20 board/sunxi/sun50iw2p1/built-in.o
                0x4a00ab28                board_init
 .text.dram_init_banksize
                0x4a00ab48       0x1c board/sunxi/sun50iw2p1/built-in.o
                0x4a00ab48                dram_init_banksize
 .text.dram_init
                0x4a00ab64       0x70 board/sunxi/sun50iw2p1/built-in.o
                0x4a00ab64                dram_init
 .text.board_mmc_init
                0x4a00abd4       0x14 board/sunxi/sun50iw2p1/built-in.o
                0x4a00abd4                board_mmc_init
 .text.board_mmc_pre_init
                0x4a00abe8       0x14 board/sunxi/sun50iw2p1/built-in.o
                0x4a00abe8                board_mmc_pre_init
 .text.board_mmc_set_num
                0x4a00abfc        0x8 board/sunxi/sun50iw2p1/built-in.o
                0x4a00abfc                board_mmc_set_num
 .text.platform_axp_probe
                0x4a00ac04       0x54 board/sunxi/sun50iw2p1/built-in.o
                0x4a00ac04                platform_axp_probe
 .text.__show_boot_progress
                0x4a00ac58        0x4 common/built-in.o
                0x4a00ac58                __show_boot_progress
                0x4a00ac58                show_boot_progress
 .text.main_loop
                0x4a00ac5c       0x44 common/built-in.o
                0x4a00ac5c                main_loop
 .text.find_cmd_tbl
                0x4a00aca0       0x9c common/built-in.o
                0x4a00aca0                find_cmd_tbl
 .text.find_cmd
                0x4a00ad3c       0x28 common/built-in.o
                0x4a00ad3c                find_cmd
 .text.cmd_usage
                0x4a00ad64       0x5c common/built-in.o
                0x4a00ad64                cmd_usage
 .text._do_help
                0x4a00adc0      0x188 common/built-in.o
                0x4a00adc0                _do_help
 .text.var_complete
                0x4a00af48       0x84 common/built-in.o
                0x4a00af48                var_complete
 .text.cmd_auto_complete
                0x4a00afcc      0x480 common/built-in.o
                0x4a00afcc                cmd_auto_complete
 .text.cmd_get_data_size
                0x4a00b44c       0x50 common/built-in.o
                0x4a00b44c                cmd_get_data_size
 .text.cmd_process
                0x4a00b49c       0xec common/built-in.o
                0x4a00b49c                cmd_process
 .text.dummy    0x4a00b588        0x4 common/built-in.o
 .text.get_version
                0x4a00b58c        0x8 common/built-in.o
                0x4a00b58c                get_version
 .text.jumptable_init
                0x4a00b594      0x190 common/built-in.o
                0x4a00b594                jumptable_init
 .text.hash_command
                0x4a00b724       0xa0 common/built-in.o
                0x4a00b724                hash_command
 .text.b_reset  0x4a00b7c4       0x1c common/built-in.o
 .text.static_get
                0x4a00b7e0       0x1c common/built-in.o
 .text.static_peek
                0x4a00b7fc        0xc common/built-in.o
 .text.file_peek
                0x4a00b808        0xc common/built-in.o
 .text.mapset   0x4a00b814       0x20 common/built-in.o
 .text.syntax_err
                0x4a00b834        0xc common/built-in.o
 .text.do_showvar
                0x4a00b840       0xf0 common/built-in.o
 .text.free_pipe_list
                0x4a00b930       0xe8 common/built-in.o
 .text.b_addchr
                0x4a00ba18       0x78 common/built-in.o
 .text.b_addqchr
                0x4a00ba90       0x4c common/built-in.o
 .text.is_assignment.part.0
                0x4a00badc       0x30 common/built-in.o
 .text.xmalloc  0x4a00bb0c       0x20 common/built-in.o
 .text.new_pipe
                0x4a00bb2c       0x28 common/built-in.o
 .text.file_get
                0x4a00bb54      0x1c4 common/built-in.o
 .text.xrealloc
                0x4a00bd18       0x20 common/built-in.o
 .text.done_command
                0x4a00bd38       0x8c common/built-in.o
 .text.done_pipe
                0x4a00bdc4       0x48 common/built-in.o
 .text.done_word
                0x4a00be0c      0x2cc common/built-in.o
 .text.get_local_var
                0x4a00c0d8       0x94 common/built-in.o
                0x4a00c0d8                get_local_var
 .text.set_local_var
                0x4a00c16c      0x1bc common/built-in.o
                0x4a00c16c                set_local_var
 .text.insert_var_value_sub
                0x4a00c328      0x2c0 common/built-in.o
 .text.parse_string_outer
                0x4a00c5e8       0xf0 common/built-in.o
                0x4a00c5e8                parse_string_outer
 .text.run_list_real
                0x4a00c6d8      0x87c common/built-in.o
 .text.parse_stream_outer
                0x4a00cf54      0x6e8 common/built-in.o
 .text.parse_file_outer
                0x4a00d63c       0x44 common/built-in.o
                0x4a00d63c                parse_file_outer
 .text.u_boot_hush_start
                0x4a00d680       0x54 common/built-in.o
                0x4a00d680                u_boot_hush_start
 .text.run_command
                0x4a00d6d4        0x8 common/built-in.o
                0x4a00d6d4                run_command
 .text.run_command_list
                0x4a00d6dc       0x5c common/built-in.o
                0x4a00d6dc                run_command_list
 .text.do_run   0x4a00d738       0x78 common/built-in.o
                0x4a00d738                do_run
 .text.cli_process_fdt
                0x4a00d7b0       0x40 common/built-in.o
                0x4a00d7b0                cli_process_fdt
 .text.cli_secure_boot_cmd
                0x4a00d7f0       0x78 common/built-in.o
                0x4a00d7f0                cli_secure_boot_cmd
 .text.cli_loop
                0x4a00d868        0xc common/built-in.o
                0x4a00d868                cli_loop
 .text.cli_init
                0x4a00d874        0x4 common/built-in.o
                0x4a00d874                cli_init
 .text.delete_char.part.0
                0x4a00d878       0xd4 common/built-in.o
 .text.cread_add_char
                0x4a00d94c       0xec common/built-in.o
 .text.cli_readline_into_buffer
                0x4a00da38      0x9b0 common/built-in.o
                0x4a00da38                cli_readline_into_buffer
 .text.cli_readline
                0x4a00e3e8       0x14 common/built-in.o
                0x4a00e3e8                cli_readline
 .text.bootdelay_process
                0x4a00e3fc       0xbc common/built-in.o
                0x4a00e3fc                bootdelay_process
 .text.autoboot_command
                0x4a00e4b8       0xd4 common/built-in.o
                0x4a00e4b8                autoboot_command
 .text.print_cpuinfo
                0x4a00e58c        0x8 common/built-in.o
 .text.trace_early_init
                0x4a00e594        0x8 common/built-in.o
 .text.setup_mon_len
                0x4a00e59c       0x24 common/built-in.o
 .text.arch_cpu_init
                0x4a00e5c0        0x8 common/built-in.o
                0x4a00e5c0                arch_cpu_init
 .text.reserve_round_4k
                0x4a00e5c8       0x18 common/built-in.o
 .text.reserve_mmu
                0x4a00e5e0       0x38 common/built-in.o
 .text.reserve_trace
                0x4a00e618        0x8 common/built-in.o
 .text.reserve_uboot
                0x4a00e620       0x30 common/built-in.o
 .text.reserve_malloc
                0x4a00e650       0x2c common/built-in.o
 .text.setup_machine
                0x4a00e67c       0x14 common/built-in.o
 .text.reserve_global_data
                0x4a00e690       0x1c common/built-in.o
 .text.reserve_sysconfig
                0x4a00e6ac       0x44 common/built-in.o
 .text.reserve_stacks
                0x4a00e6f0       0x4c common/built-in.o
 .text.display_new_sp
                0x4a00e73c        0x8 common/built-in.o
 .text.setup_dram_config
                0x4a00e744       0x10 common/built-in.o
 .text.reloc_sysconfig
                0x4a00e754       0x2c common/built-in.o
 .text.setup_reloc
                0x4a00e780       0x38 common/built-in.o
 .text.reloc_fdt
                0x4a00e7b8       0x40 common/built-in.o
 .text.display_text_info
                0x4a00e7f8       0x20 common/built-in.o
 .text.reserve_fdt
                0x4a00e818       0x80 common/built-in.o
 .text.reserve_board
                0x4a00e898       0x30 common/built-in.o
 .text.announce_dram_init
                0x4a00e8c8       0x18 common/built-in.o
 .text.init_func_pmubus
                0x4a00e8e0       0x30 common/built-in.o
 .text.init_baud_rate
                0x4a00e910       0x2c common/built-in.o
 .text.mark_bootstage
                0x4a00e93c       0x14 common/built-in.o
 .text.setup_fdt
                0x4a00e950       0x4c common/built-in.o
 .text.__coloured_LED_init
                0x4a00e99c        0x4 common/built-in.o
                0x4a00e99c                __coloured_LED_init
                0x4a00e99c                coloured_LED_init
 .text.__red_led_on
                0x4a00e9a0        0x4 common/built-in.o
                0x4a00e9a0                red_led_on
                0x4a00e9a0                __red_led_on
 .text.board_get_usable_ram_top
                0x4a00e9a4        0x8 common/built-in.o
                0x4a00e9a4                board_get_usable_ram_top
 .text.setup_dest_addr
                0x4a00e9ac       0x40 common/built-in.o
 .text.board_init_f
                0x4a00e9ec       0x54 common/built-in.o
                0x4a00e9ec                board_init_f
 .text.bootstage_relocate
                0x4a00ea40        0x8 common/built-in.o
 .text.initr_secondary_cpu
                0x4a00ea48       0x10 common/built-in.o
 .text.initr_trace
                0x4a00ea58        0x8 common/built-in.o
 .text.initr_reloc_global_data
                0x4a00ea60       0x28 common/built-in.o
 .text.initr_announce
                0x4a00ea88        0x8 common/built-in.o
 .text.usb_net_init
                0x4a00ea90        0x8 common/built-in.o
 .text.show_platform_info
                0x4a00ea98        0x8 common/built-in.o
                0x4a00ea98                show_platform_info
 .text.run_main_loop
                0x4a00eaa0       0x18 common/built-in.o
 .text.initr_sunxi_base
                0x4a00eab8       0x10 common/built-in.o
 .text.initr_env
                0x4a00eac8       0x54 common/built-in.o
 .text.sunxi_prepare_hdcpkey
                0x4a00eb1c      0x100 common/built-in.o
 .text.sunxi_burn_key
                0x4a00ec1c       0x10 common/built-in.o
 .text.initr_sunxi_flash
                0x4a00ec2c       0x24 common/built-in.o
 .text.platform_dma_init
                0x4a00ec50       0x10 common/built-in.o
 .text.initr_enable_interrupts
                0x4a00ec60       0x10 common/built-in.o
 .text.initr_jumptable
                0x4a00ec70       0x10 common/built-in.o
 .text.initr_malloc
                0x4a00ec80       0x30 common/built-in.o
 .text.initr_serial
                0x4a00ecb0       0x10 common/built-in.o
 .text.initr_caches
                0x4a00ecc0       0x10 common/built-in.o
 .text.initr_reloc
                0x4a00ecd0       0x28 common/built-in.o
 .text.power_init_board
                0x4a00ecf8       0x10 common/built-in.o
                0x4a00ecf8                power_init_board
 .text.initr_sunxi_display
                0x4a00ed08       0x54 common/built-in.o
 .text.__cpu_secondary_init_r
                0x4a00ed5c        0x4 common/built-in.o
                0x4a00ed5c                cpu_secondary_init_r
                0x4a00ed5c                __cpu_secondary_init_r
 .text.intr_vector_fix
                0x4a00ed60       0xa8 common/built-in.o
                0x4a00ed60                intr_vector_fix
 .text.board_init_r
                0x4a00ee08       0x1c common/built-in.o
                0x4a00ee08                board_init_r
 .text.do_go_exec
                0x4a00ee24       0x18 common/built-in.o
                0x4a00ee24                do_go_exec
 .text.do_go    0x4a00ee3c       0x6c common/built-in.o
                0x4a00ee3c                do_go
 .text.do_bootd
                0x4a00eea8       0x20 common/built-in.o
                0x4a00eea8                do_bootd
 .text.do_bootm
                0x4a00eec8       0xf8 common/built-in.o
                0x4a00eec8                do_bootm
 .text.bootm_find_ramdisk_fdt
                0x4a00efc0       0x88 common/built-in.o
                0x4a00efc0                bootm_find_ramdisk_fdt
 .text.do_bootm_states
                0x4a00f048      0x79c common/built-in.o
                0x4a00f048                do_bootm_states
 .text.copy_args
                0x4a00f7e4       0x4c common/built-in.o
 .text.do_bootm_rtems
                0x4a00f830       0x40 common/built-in.o
 .text.do_bootm_plan9
                0x4a00f870       0xa4 common/built-in.o
 .text.do_bootm_standalone
                0x4a00f914       0x64 common/built-in.o
 .text.do_bootm_qnxelf
                0x4a00f978       0x5c common/built-in.o
 .text.do_bootm_netbsd
                0x4a00f9d4       0xf4 common/built-in.o
 .text.do_bootvx_fdt
                0x4a00fac8      0x104 common/built-in.o
                0x4a00fac8                do_bootvx_fdt
 .text.do_bootm_vxworks
                0x4a00fbcc       0x24 common/built-in.o
 .text.__arch_preboot_os
                0x4a00fbf0        0x4 common/built-in.o
                0x4a00fbf0                arch_preboot_os
 .text.boot_selected_os
                0x4a00fbf4       0x58 common/built-in.o
                0x4a00fbf4                boot_selected_os
 .text.bootm_os_get_boot_func
                0x4a00fc4c       0x10 common/built-in.o
                0x4a00fc4c                bootm_os_get_boot_func
 .text.do_help  0x4a00fc5c       0x44 common/built-in.o
 .text.do_version
                0x4a00fca0       0x38 common/built-in.o
 .text.do_efex_test
                0x4a00fcd8       0x3c common/built-in.o
                0x4a00fcd8                do_efex_test
 .text.do_mass_test
                0x4a00fd14       0x3c common/built-in.o
                0x4a00fd14                do_mass_test
 .text.do_fastboot_test
                0x4a00fd50       0x3c common/built-in.o
                0x4a00fd50                do_fastboot_test
 .text.do_sprite_test
                0x4a00fd8c      0x104 common/built-in.o
                0x4a00fd8c                do_sprite_test
 .text.timer1_test_func
                0x4a00fe90       0x30 common/built-in.o
 .text.timer0_test_func
                0x4a00fec0       0x30 common/built-in.o
 .text.do_delay_test
                0x4a00fef0       0x50 common/built-in.o
                0x4a00fef0                do_delay_test
 .text.do_timer_test1
                0x4a00ff40       0x84 common/built-in.o
                0x4a00ff40                do_timer_test1
 .text.do_timer_test
                0x4a00ffc4       0x84 common/built-in.o
                0x4a00ffc4                do_timer_test
 .text.do_efex  0x4a010048       0x1c common/built-in.o
                0x4a010048                do_efex
 .text.do_shutdown
                0x4a010064        0x4 common/built-in.o
                0x4a010064                do_shutdown
 .text.memtester_pagesize
                0x4a010068       0x18 common/built-in.o
                0x4a010068                memtester_pagesize
 .text.usage    0x4a010080       0x10 common/built-in.o
                0x4a010080                usage
 .text.do_memtester
                0x4a010090      0x310 common/built-in.o
 .text.do_sunxi_bmp_info
                0x4a0103a0      0x198 common/built-in.o
 .text.fat_read_file_ex.constprop.1
                0x4a010538      0x114 common/built-in.o
 .text.show_bmp_on_fb
                0x4a01064c      0x2f8 common/built-in.o
                0x4a01064c                show_bmp_on_fb
 .text.sunxi_bmp_decode
                0x4a010944      0x298 common/built-in.o
                0x4a010944                sunxi_bmp_decode
 .text.do_sunxi_bmp_display
                0x4a010bdc      0x1ac common/built-in.o
 .text.sunxi_advert_display
                0x4a010d88      0x164 common/built-in.o
                0x4a010d88                sunxi_advert_display
 .text.sunxi_bmp_display
                0x4a010eec      0x104 common/built-in.o
                0x4a010eec                sunxi_bmp_display
 .text.do_sunxi_logo
                0x4a010ff0        0xc common/built-in.o
                0x4a010ff0                do_sunxi_logo
 .text.do_read_from_boot
                0x4a010ffc       0xc0 common/built-in.o
                0x4a010ffc                do_read_from_boot
 .text.do_probe_secure_storage
                0x4a0110bc      0x174 common/built-in.o
                0x4a0110bc                do_probe_secure_storage
 .text.probe_usb_overtime
                0x4a011230       0x30 common/built-in.o
 .text.do_burn_from_boot
                0x4a011260      0x20c common/built-in.o
                0x4a011260                do_burn_from_boot
 .text.reverse_strstr.part.0
                0x4a01146c       0x50 common/built-in.o
 .text.env_attr_walk
                0x4a0114bc      0x10c common/built-in.o
                0x4a0114bc                env_attr_walk
 .text.env_attr_lookup
                0x4a0115c8      0x144 common/built-in.o
                0x4a0115c8                env_attr_lookup
 .text.clear_callback
                0x4a01170c       0x10 common/built-in.o
 .text.on_callbacks
                0x4a01171c       0x48 common/built-in.o
 .text.find_env_callback
                0x4a011764       0x64 common/built-in.o
 .text.set_callback
                0x4a0117c8       0x94 common/built-in.o
 .text.env_callback_init
                0x4a01185c       0xc0 common/built-in.o
                0x4a01185c                env_callback_init
 .text.clear_flags
                0x4a01191c       0x10 common/built-in.o
 .text.on_flags
                0x4a01192c       0x48 common/built-in.o
 .text.skip_num.constprop.0
                0x4a011974       0x70 common/built-in.o
 .text.env_flags_parse_vartype
                0x4a0119e4       0x4c common/built-in.o
                0x4a0119e4                env_flags_parse_vartype
 .text.env_flags_parse_varaccess
                0x4a011a30       0x54 common/built-in.o
                0x4a011a30                env_flags_parse_varaccess
 .text.set_flags
                0x4a011a84       0xac common/built-in.o
 .text.env_flags_init
                0x4a011b30       0xd0 common/built-in.o
                0x4a011b30                env_flags_init
 .text.env_flags_validate
                0x4a011c00      0x214 common/built-in.o
                0x4a011c00                env_flags_validate
 .text.flash_env_relocate_spec
                0x4a011e14       0xec common/built-in.o
 .text.env_get_char_spec
                0x4a011f00        0xc common/built-in.o
                0x4a011f00                env_get_char_spec
 .text.env_init
                0x4a011f0c       0x1c common/built-in.o
                0x4a011f0c                env_init
 .text.saveenv  0x4a011f28       0x84 common/built-in.o
                0x4a011f28                saveenv
 .text.env_relocate_spec
                0x4a011fac       0x10 common/built-in.o
                0x4a011fac                env_relocate_spec
 .text.do_echo  0x4a011fbc       0xc0 common/built-in.o
 .text.load_elf_image_shdr
                0x4a01207c       0x90 common/built-in.o
 .text.do_bootelf_exec
                0x4a01210c       0x44 common/built-in.o
                0x4a01210c                do_bootelf_exec
 .text.valid_elf_image
                0x4a012150       0x4c common/built-in.o
                0x4a012150                valid_elf_image
 .text.do_bootvx
                0x4a01219c      0x254 common/built-in.o
                0x4a01219c                do_bootvx
 .text.do_bootelf
                0x4a0123f0      0x154 common/built-in.o
                0x4a0123f0                do_bootelf
 .text.do_exit  0x4a012544       0x30 common/built-in.o
 .text.do_fat_ls
                0x4a012574       0x14 common/built-in.o
 .text.do_aw_fat_fsload
                0x4a012588       0x14 common/built-in.o
                0x4a012588                do_aw_fat_fsload
 .text.do_fat_fsload
                0x4a01259c       0x14 common/built-in.o
                0x4a01259c                do_fat_fsload
 .text.do_fat_fsinfo
                0x4a0125b0       0x90 common/built-in.o
 .text.aw_fat_fsload
                0x4a012640      0x14c common/built-in.o
                0x4a012640                aw_fat_fsload
 .text.get_cells_len
                0x4a01278c       0x3c common/built-in.o
 .text.fdt_find_or_add_subnode.constprop.6
                0x4a0127c8       0x6c common/built-in.o
 .text.set_working_fdt_addr
                0x4a012834       0x1c common/built-in.o
                0x4a012834                set_working_fdt_addr
 .text.fdt_getprop_u32
                0x4a012850       0x88 common/built-in.o
                0x4a012850                fdt_getprop_u32
 .text.fdt_getprop_u64
                0x4a0128d8       0xa4 common/built-in.o
                0x4a0128d8                fdt_getprop_u64
 .text.fdt_getprop_string
                0x4a01297c       0x2c common/built-in.o
                0x4a01297c                fdt_getprop_string
 .text.fdt_find_and_setprop
                0x4a0129a8       0x70 common/built-in.o
                0x4a0129a8                fdt_find_and_setprop
 .text.fdt_initrd
                0x4a012a18      0x1e4 common/built-in.o
                0x4a012a18                fdt_initrd
 .text.fdt_chosen
                0x4a012bfc       0xa0 common/built-in.o
                0x4a012bfc                fdt_chosen
 .text.do_fixup_by_path
                0x4a012c9c       0x54 common/built-in.o
                0x4a012c9c                do_fixup_by_path
 .text.fdt_fixup_memory_banks
                0x4a012cf0      0x1cc common/built-in.o
                0x4a012cf0                fdt_fixup_memory_banks
 .text.fdt_fixup_memory
                0x4a012ebc       0x20 common/built-in.o
                0x4a012ebc                fdt_fixup_memory
 .text.fdt_fixup_ethernet
                0x4a012edc      0x158 common/built-in.o
                0x4a012edc                fdt_fixup_ethernet
 .text.fdt_resize
                0x4a013034       0xd0 common/built-in.o
                0x4a013034                fdt_resize
 .text.fdt_set_node_status
                0x4a013104      0x10c common/built-in.o
                0x4a013104                fdt_set_node_status
 .text.do_fdt_test
                0x4a013210      0x390 common/built-in.o
 .text.fdt_valid
                0x4a0135a0       0xc4 common/built-in.o
 .text.is_printable_string
                0x4a013664       0x98 common/built-in.o
 .text.print_data
                0x4a0136fc      0x174 common/built-in.o
 .text.save_fdt_to_flash
                0x4a013870       0x38 common/built-in.o
                0x4a013870                save_fdt_to_flash
 .text.do_fdt   0x4a0138a8      0xf5c common/built-in.o
 .text.do_interrupts
                0x4a014804       0x44 common/built-in.o
 .text.do_memcpy_test
                0x4a014848       0x34 common/built-in.o
                0x4a014848                do_memcpy_test
 .text.do_mem_loop
                0x4a01487c      0x104 common/built-in.o
 .text.do_mem_mw
                0x4a014980       0xb8 common/built-in.o
 .text.do_mem_base
                0x4a014a38       0x40 common/built-in.o
 .text.do_mem_cmp
                0x4a014a78      0x160 common/built-in.o
 .text.do_mem_crc
                0x4a014bd8       0x44 common/built-in.o
 .text.do_mem_cp
                0x4a014c1c       0xdc common/built-in.o
 .text.do_mem_md
                0x4a014cf8       0xe4 common/built-in.o
 .text.mod_mem.isra.2
                0x4a014ddc      0x15c common/built-in.o
 .text.do_mem_nm
                0x4a014f38        0x8 common/built-in.o
 .text.do_mem_mm
                0x4a014f40        0x8 common/built-in.o
 .text.do_mmcops
                0x4a014f48       0xb8 common/built-in.o
 .text.do_mmc_list
                0x4a015000       0x14 common/built-in.o
 .text.init_mmc_device
                0x4a015014       0x50 common/built-in.o
 .text.do_mmc_rescan
                0x4a015064       0x24 common/built-in.o
 .text.do_mmcinfo
                0x4a015088      0x16c common/built-in.o
 .text.do_mmc_dev
                0x4a0151f4       0xec common/built-in.o
 .text.do_mmc_part
                0x4a0152e0       0x64 common/built-in.o
 .text.do_mmc_erase
                0x4a015344       0xec common/built-in.o
 .text.do_mmc_write
                0x4a015430      0x104 common/built-in.o
 .text.do_mmc_read
                0x4a015534       0xe8 common/built-in.o
 .text.do_mmc_setdsr
                0x4a01561c       0xa8 common/built-in.o
 .text.do_card0_probe
                0x4a0156c4       0x94 common/built-in.o
                0x4a0156c4                do_card0_probe
 .text.do_false
                0x4a015758        0x8 common/built-in.o
 .text.do_true  0x4a015760        0x8 common/built-in.o
 .text.do_test  0x4a015768      0x330 common/built-in.o
 .text.sunxi_verify_rotpk_hash
                0x4a015a98      0x234 common/built-in.o
                0x4a015a98                sunxi_verify_rotpk_hash
 .text.do_rotpk_test
                0x4a015ccc       0x2c common/built-in.o
                0x4a015ccc                do_rotpk_test
 .text.do_fastboot
                0x4a015cf8       0x38 common/built-in.o
 .text.do_env_delete
                0x4a015d30       0xa8 common/built-in.o
 .text.env_print
                0x4a015dd8       0xc8 common/built-in.o
 .text.do_env_print
                0x4a015ea0       0xc4 common/built-in.o
 .text.do_env   0x4a015f64       0x60 common/built-in.o
 .text.do_env_import
                0x4a015fc4      0x270 common/built-in.o
 .text.do_env_default
                0x4a016234       0xb4 common/built-in.o
 .text.do_env_save
                0x4a0162e8       0x2c common/built-in.o
 .text._do_env_set.isra.1
                0x4a016314      0x1d8 common/built-in.o
 .text.do_env_set
                0x4a0164ec       0x1c common/built-in.o
 .text.setenv   0x4a016508       0x58 common/built-in.o
                0x4a016508                setenv
 .text.setenv_ulong
                0x4a016560       0x20 common/built-in.o
                0x4a016560                setenv_ulong
 .text.setenv_hex
                0x4a016580       0x34 common/built-in.o
                0x4a016580                setenv_hex
 .text.do_env_export
                0x4a0165b4      0x26c common/built-in.o
 .text.envmatch
                0x4a016820       0x6c common/built-in.o
                0x4a016820                envmatch
 .text.getenv_f
                0x4a01688c       0xbc common/built-in.o
                0x4a01688c                getenv_f
 .text.getenv   0x4a016948       0x78 common/built-in.o
                0x4a016948                getenv
 .text.getenv_ulong
                0x4a0169c0       0x30 common/built-in.o
                0x4a0169c0                getenv_ulong
 .text.getenv_hex
                0x4a0169f0       0x34 common/built-in.o
                0x4a0169f0                getenv_hex
 .text.env_get_addr
                0x4a016a24       0x24 common/built-in.o
                0x4a016a24                env_get_addr
 .text.env_get_char_memory
                0x4a016a48       0x10 common/built-in.o
                0x4a016a48                env_get_char_memory
 .text.env_get_char
                0x4a016a58       0x30 common/built-in.o
                0x4a016a58                env_get_char
 .text.getenv_yesno
                0x4a016a88       0x54 common/built-in.o
                0x4a016a88                getenv_yesno
 .text.getenv_default
                0x4a016adc       0x30 common/built-in.o
                0x4a016adc                getenv_default
 .text.set_default_env
                0x4a016b0c       0xb8 common/built-in.o
                0x4a016b0c                set_default_env
 .text.set_default_vars
                0x4a016bc4       0x34 common/built-in.o
                0x4a016bc4                set_default_vars
 .text.env_import
                0x4a016bf8       0xdc common/built-in.o
                0x4a016bf8                env_import
 .text.env_export
                0x4a016cd4       0xa4 common/built-in.o
                0x4a016cd4                env_export
 .text.env_relocate
                0x4a016d78       0x30 common/built-in.o
                0x4a016d78                env_relocate
 .text.env_complete
                0x4a016da8       0xe4 common/built-in.o
                0x4a016da8                env_complete
 .text.console_setfile
                0x4a016e8c       0xa4 common/built-in.o
 .text.fgetc    0x4a016f30       0x2c common/built-in.o
                0x4a016f30                fgetc
 .text.ftstc    0x4a016f5c       0x2c common/built-in.o
                0x4a016f5c                ftstc
 .text.fputc    0x4a016f88       0x28 common/built-in.o
                0x4a016f88                fputc
 .text.fputs    0x4a016fb0       0x28 common/built-in.o
                0x4a016fb0                fputs
 .text.fprintf  0x4a016fd8       0x48 common/built-in.o
                0x4a016fd8                fprintf
 .text.getc     0x4a017020       0x24 common/built-in.o
                0x4a017020                getc
 .text.tstc     0x4a017044       0x24 common/built-in.o
                0x4a017044                tstc
 .text.putc     0x4a017068       0x28 common/built-in.o
                0x4a017068                putc
 .text.puts     0x4a017090       0x28 common/built-in.o
                0x4a017090                puts
 .text.printf   0x4a0170b8       0x58 common/built-in.o
                0x4a0170b8                printf
 .text.tick_printf
                0x4a017110       0x94 common/built-in.o
                0x4a017110                tick_printf
 .text.sunxi_tick_printf
                0x4a0171a4       0x88 common/built-in.o
                0x4a0171a4                sunxi_tick_printf
 .text.vprintf  0x4a01722c       0x40 common/built-in.o
                0x4a01722c                vprintf
 .text.ctrlc    0x4a01726c       0x54 common/built-in.o
                0x4a01726c                ctrlc
 .text.disable_ctrlc
                0x4a0172c0       0x18 common/built-in.o
                0x4a0172c0                disable_ctrlc
 .text.had_ctrlc
                0x4a0172d8       0x10 common/built-in.o
                0x4a0172d8                had_ctrlc
 .text.clear_ctrlc
                0x4a0172e8       0x14 common/built-in.o
                0x4a0172e8                clear_ctrlc
 .text.search_device
                0x4a0172fc       0x28 common/built-in.o
                0x4a0172fc                search_device
 .text.console_assign
                0x4a017324       0x40 common/built-in.o
                0x4a017324                console_assign
 .text.on_console
                0x4a017364       0xc4 common/built-in.o
 .text.console_init_f
                0x4a017428       0x10 common/built-in.o
                0x4a017428                console_init_f
 .text.stdio_print_current_devices
                0x4a017438       0xb4 common/built-in.o
                0x4a017438                stdio_print_current_devices
 .text.console_init_r
                0x4a0174ec       0xe0 common/built-in.o
                0x4a0174ec                console_init_r
 .text.sbrk     0x4a0175cc       0x6c common/built-in.o
                0x4a0175cc                sbrk
 .text.mem_malloc_init
                0x4a017638       0x34 common/built-in.o
                0x4a017638                mem_malloc_init
 .text.malloc_trim
                0x4a01766c       0xd8 common/built-in.o
                0x4a01766c                malloc_trim
 .text.free     0x4a017744      0x228 common/built-in.o
                0x4a017744                free
 .text.malloc   0x4a01796c      0x5f8 common/built-in.o
                0x4a01796c                malloc
 .text.calloc   0x4a017f64       0xd4 common/built-in.o
                0x4a017f64                calloc
 .text.memalign
                0x4a018038      0x110 common/built-in.o
                0x4a018038                memalign
 .text.realloc  0x4a018148      0x408 common/built-in.o
                0x4a018148                realloc
 .text.on_loadaddr
                0x4a018550       0x38 common/built-in.o
 .text.image_check_hcrc
                0x4a018588       0x4c common/built-in.o
                0x4a018588                image_check_hcrc
 .text.image_check_dcrc
                0x4a0185d4       0x38 common/built-in.o
                0x4a0185d4                image_check_dcrc
 .text.image_multi_count
                0x4a01860c       0x24 common/built-in.o
                0x4a01860c                image_multi_count
 .text.image_multi_getimg
                0x4a018630       0x7c common/built-in.o
                0x4a018630                image_multi_getimg
 .text.getenv_bootm_low
                0x4a0186ac       0x30 common/built-in.o
                0x4a0186ac                getenv_bootm_low
 .text.getenv_bootm_size
                0x4a0186dc       0x5c common/built-in.o
                0x4a0186dc                getenv_bootm_size
 .text.getenv_bootm_mapsize
                0x4a018738       0x30 common/built-in.o
                0x4a018738                getenv_bootm_mapsize
 .text.memmove_wd
                0x4a018768        0xc common/built-in.o
                0x4a018768                memmove_wd
 .text.genimg_print_size
                0x4a018774       0x30 common/built-in.o
                0x4a018774                genimg_print_size
 .text.get_table_entry_name
                0x4a0187a4       0x2c common/built-in.o
                0x4a0187a4                get_table_entry_name
 .text.genimg_get_os_name
                0x4a0187d0       0x18 common/built-in.o
                0x4a0187d0                genimg_get_os_name
 .text.genimg_get_arch_name
                0x4a0187e8       0x18 common/built-in.o
                0x4a0187e8                genimg_get_arch_name
 .text.genimg_get_type_name
                0x4a018800       0x18 common/built-in.o
                0x4a018800                genimg_get_type_name
 .text.genimg_get_comp_name
                0x4a018818       0x18 common/built-in.o
                0x4a018818                genimg_get_comp_name
 .text.image_print_contents
                0x4a018830      0x170 common/built-in.o
                0x4a018830                image_print_contents
 .text.genimg_get_format
                0x4a0189a0       0x38 common/built-in.o
                0x4a0189a0                genimg_get_format
 .text.genimg_get_image
                0x4a0189d8        0x4 common/built-in.o
                0x4a0189d8                genimg_get_image
 .text.boot_get_ramdisk
                0x4a0189dc      0x278 common/built-in.o
                0x4a0189dc                boot_get_ramdisk
 .text.boot_ramdisk_high
                0x4a018c54      0x120 common/built-in.o
                0x4a018c54                boot_ramdisk_high
 .text.boot_get_cmdline
                0x4a018d74       0x80 common/built-in.o
                0x4a018d74                boot_get_cmdline
 .text.image_setup_linux
                0x4a018df4       0xb4 common/built-in.o
                0x4a018df4                image_setup_linux
 .text.fdt_error
                0x4a018ea8       0x2c common/built-in.o
 .text.boot_fdt_add_mem_rsv_regions
                0x4a018ed4       0x88 common/built-in.o
                0x4a018ed4                boot_fdt_add_mem_rsv_regions
 .text.boot_relocate_fdt
                0x4a018f5c      0x19c common/built-in.o
                0x4a018f5c                boot_relocate_fdt
 .text.ft_verify_fdt
                0x4a0190f8        0x8 common/built-in.o
                0x4a0190f8                ft_verify_fdt
 .text.image_setup_libfdt
                0x4a019100       0xcc common/built-in.o
                0x4a019100                image_setup_libfdt
 .text.get_ram_size
                0x4a0191cc      0x108 common/built-in.o
                0x4a0191cc                get_ram_size
 .text.get_effective_memsize
                0x4a0192d4        0x8 common/built-in.o
                0x4a0192d4                get_effective_memsize
 .text.stdio_get_list
                0x4a0192dc        0xc common/built-in.o
                0x4a0192dc                stdio_get_list
 .text.stdio_get_by_name
                0x4a0192e8       0x54 common/built-in.o
                0x4a0192e8                stdio_get_by_name
 .text.stdio_clone
                0x4a01933c       0x38 common/built-in.o
                0x4a01933c                stdio_clone
 .text.stdio_register
                0x4a019374       0x44 common/built-in.o
                0x4a019374                stdio_register
 .text.stdio_init
                0x4a0193b8       0x8c common/built-in.o
                0x4a0193b8                stdio_init
 .text.mem_noncache_malloc_init
                0x4a019444       0x30 common/built-in.o
                0x4a019444                mem_noncache_malloc_init
 .text.malloc_noncache
                0x4a019474       0x7c common/built-in.o
                0x4a019474                malloc_noncache
 .text.do_sunxi_aes
                0x4a0194f0      0x1c4 common/built-in.o
                0x4a0194f0                do_sunxi_aes
 .text.do_sunxi_smc
                0x4a0196b4      0x140 common/built-in.o
                0x4a0196b4                do_sunxi_smc
 .text.user_data_list
                0x4a0197f4       0xec common/built-in.o
 .text.save_user_data_to_secure_storage
                0x4a0198e0       0xcc common/built-in.o
 .text.do_check_userdata
                0x4a0199ac       0x28 common/built-in.o
                0x4a0199ac                do_check_userdata
 .text.save_user_private_data
                0x4a0199d4      0x23c common/built-in.o
                0x4a0199d4                save_user_private_data
 .text.do_save_user_data
                0x4a019c10      0x138 common/built-in.o
                0x4a019c10                do_save_user_data
 .text.erase_all_private_data
                0x4a019d48       0xd0 common/built-in.o
                0x4a019d48                erase_all_private_data
 .text.erase_private_data
                0x4a019e18       0x28 common/built-in.o
                0x4a019e18                erase_private_data
 .text.read_private_key_by_name
                0x4a019e40      0x134 common/built-in.o
                0x4a019e40                read_private_key_by_name
 .text.check_user_data
                0x4a019f74      0x1b0 common/built-in.o
                0x4a019f74                check_user_data
 .text.update_user_data
                0x4a01a124      0x218 common/built-in.o
                0x4a01a124                update_user_data
 .text.get_dev_hwpart
                0x4a01a33c       0xb4 disk/built-in.o
                0x4a01a33c                get_dev_hwpart
 .text.dev_print
                0x4a01a3f0      0x218 disk/built-in.o
                0x4a01a3f0                dev_print
 .text.init_part
                0x4a01a608       0x20 disk/built-in.o
                0x4a01a608                init_part
 .text.print_part
                0x4a01a628       0xf8 disk/built-in.o
                0x4a01a628                print_part
 .text.get_partition_info
                0x4a01a720       0x28 disk/built-in.o
                0x4a01a720                get_partition_info
 .text.get_device
                0x4a01a748      0x110 disk/built-in.o
                0x4a01a748                get_device
 .text.get_device_and_partition
                0x4a01a858      0x424 disk/built-in.o
                0x4a01a858                get_device_and_partition
 .text.test_block_type
                0x4a01ac7c       0x88 disk/built-in.o
 .text.print_partition_extended
                0x4a01ad04      0x250 disk/built-in.o
 .text.get_partition_info_extended.constprop.1
                0x4a01af54      0x2ec disk/built-in.o
 .text.test_part_dos
                0x4a01b240       0x60 disk/built-in.o
                0x4a01b240                test_part_dos
 .text.print_part_dos
                0x4a01b2a0       0x30 disk/built-in.o
                0x4a01b2a0                print_part_dos
 .text.get_partition_info_dos
                0x4a01b2d0       0x1c disk/built-in.o
                0x4a01b2d0                get_partition_info_dos
 .text.ir_mode_set
                0x4a01b2ec       0x40 drivers/built-in.o
 .text.ir_sample_config
                0x4a01b32c       0x58 drivers/built-in.o
 .text.ir_irq_config
                0x4a01b384       0x54 drivers/built-in.o
 .text.ir_packet_handle
                0x4a01b3d8       0x40 drivers/built-in.o
                0x4a01b3d8                ir_packet_handle
 .text.ir_recv_irq_service
                0x4a01b418      0x1e0 drivers/built-in.o
                0x4a01b418                ir_recv_irq_service
 .text.rc_keydown
                0x4a01b5f8        0x8 drivers/built-in.o
                0x4a01b5f8                rc_keydown
 .text.ir_setup
                0x4a01b600      0x118 drivers/built-in.o
                0x4a01b600                ir_setup
 .text.ir_disable
                0x4a01b718       0x18 drivers/built-in.o
                0x4a01b718                ir_disable
 .text.ir_nec_decode
                0x4a01b730      0x344 drivers/built-in.o
                0x4a01b730                ir_nec_decode
 .text.ir_boot_recovery_mode_detect
                0x4a01ba74       0xb4 drivers/built-in.o
                0x4a01ba74                ir_boot_recovery_mode_detect
 .text.check_ir_boot_recovery
                0x4a01bb28      0x188 drivers/built-in.o
                0x4a01bb28                check_ir_boot_recovery
 .text.drv_lcd_open_callback
                0x4a01bcb0       0xcc drivers/built-in.o
 .text.disp_blank
                0x4a01bd7c       0x60 drivers/built-in.o
 .text.disp_getprop_regbase
                0x4a01bddc       0xcc drivers/built-in.o
                0x4a01bddc                disp_getprop_regbase
 .text.disp_getprop_irq
                0x4a01bea8       0xd4 drivers/built-in.o
                0x4a01bea8                disp_getprop_irq
 .text.disp_set_hdmi_func
                0x4a01bf7c        0x4 drivers/built-in.o
                0x4a01bf7c                disp_set_hdmi_func
 .text.disp_tv_register
                0x4a01bf80        0x4 drivers/built-in.o
                0x4a01bf80                disp_tv_register
 .text.drv_disp_init
                0x4a01bf84      0x2d0 drivers/built-in.o
                0x4a01bf84                drv_disp_init
 .text.drv_disp_exit
                0x4a01c254       0x48 drivers/built-in.o
                0x4a01c254                drv_disp_exit
 .text.sunxi_disp_get_source_ops
                0x4a01c29c       0xb0 drivers/built-in.o
                0x4a01c29c                sunxi_disp_get_source_ops
 .text.disp_ioctl
                0x4a01c34c      0x7e0 drivers/built-in.o
                0x4a01c34c                disp_ioctl
 .text.disp_sys_register_irq
                0x4a01cb2c       0x18 drivers/built-in.o
                0x4a01cb2c                disp_sys_register_irq
 .text.disp_sys_unregister_irq
                0x4a01cb44        0x4 drivers/built-in.o
                0x4a01cb44                disp_sys_unregister_irq
 .text.disp_sys_enable_irq
                0x4a01cb48        0x4 drivers/built-in.o
                0x4a01cb48                disp_sys_enable_irq
 .text.disp_sys_disable_irq
                0x4a01cb4c        0x4 drivers/built-in.o
                0x4a01cb4c                disp_sys_disable_irq
 .text.spin_lock_init
                0x4a01cb50        0x4 drivers/built-in.o
                0x4a01cb50                spin_lock_init
 .text.mutex_init
                0x4a01cb54        0x4 drivers/built-in.o
                0x4a01cb54                mutex_init
 .text.mutex_lock
                0x4a01cb58        0x4 drivers/built-in.o
                0x4a01cb58                mutex_lock
 .text.mutex_unlock
                0x4a01cb5c        0x4 drivers/built-in.o
                0x4a01cb5c                mutex_unlock
 .text.tasklet_init
                0x4a01cb60       0x2c drivers/built-in.o
                0x4a01cb60                tasklet_init
 .text.tasklet_schedule
                0x4a01cb8c       0x2c drivers/built-in.o
                0x4a01cb8c                tasklet_schedule
 .text.kmalloc  0x4a01cbb8       0x28 drivers/built-in.o
                0x4a01cbb8                kmalloc
 .text.kfree    0x4a01cbe0        0x4 drivers/built-in.o
                0x4a01cbe0                kfree
 .text.disp_fdt_init
                0x4a01cbe4       0x54 drivers/built-in.o
                0x4a01cbe4                disp_fdt_init
 .text.disp_fdt_nodeoffset
                0x4a01cc38       0x54 drivers/built-in.o
                0x4a01cc38                disp_fdt_nodeoffset
 .text.disp_sys_script_get_item
                0x4a01cc8c      0x100 drivers/built-in.o
                0x4a01cc8c                disp_sys_script_get_item
 .text.disp_sys_gpio_request
                0x4a01cd8c       0x40 drivers/built-in.o
                0x4a01cd8c                disp_sys_gpio_request
 .text.disp_sys_gpio_request_simple
                0x4a01cdcc       0x44 drivers/built-in.o
                0x4a01cdcc                disp_sys_gpio_request_simple
 .text.disp_sys_gpio_release
                0x4a01ce10       0x1c drivers/built-in.o
                0x4a01ce10                disp_sys_gpio_release
 .text.disp_sys_gpio_set_direction
                0x4a01ce2c        0x4 drivers/built-in.o
                0x4a01ce2c                disp_sys_gpio_set_direction
 .text.disp_sys_gpio_set_value
                0x4a01ce30        0x4 drivers/built-in.o
                0x4a01ce30                disp_sys_gpio_set_value
 .text.disp_sys_pin_set_state
                0x4a01ce34       0xb4 drivers/built-in.o
                0x4a01ce34                disp_sys_pin_set_state
 .text.disp_sys_power_enable
                0x4a01cee8       0x3c drivers/built-in.o
                0x4a01cee8                disp_sys_power_enable
 .text.disp_sys_power_disable
                0x4a01cf24       0x2c drivers/built-in.o
                0x4a01cf24                disp_sys_power_disable
 .text.disp_sys_pwm_request
                0x4a01cf50       0x1c drivers/built-in.o
                0x4a01cf50                disp_sys_pwm_request
 .text.disp_sys_pwm_enable
                0x4a01cf6c        0x8 drivers/built-in.o
                0x4a01cf6c                disp_sys_pwm_enable
 .text.disp_sys_pwm_disable
                0x4a01cf74       0x14 drivers/built-in.o
                0x4a01cf74                disp_sys_pwm_disable
 .text.disp_sys_pwm_config
                0x4a01cf88        0x8 drivers/built-in.o
                0x4a01cf88                disp_sys_pwm_config
 .text.disp_sys_pwm_set_polarity
                0x4a01cf90        0x8 drivers/built-in.o
                0x4a01cf90                disp_sys_pwm_set_polarity
 .text.disp_tasklet
                0x4a01cf98       0x3c drivers/built-in.o
                0x4a01cf98                disp_tasklet
 .text.bsp_disp_shadow_protect
                0x4a01cfd4       0xe8 drivers/built-in.o
                0x4a01cfd4                bsp_disp_shadow_protect
 .text.bsp_disp_exit
                0x4a01d0bc        0x8 drivers/built-in.o
                0x4a01d0bc                bsp_disp_exit
 .text.bsp_disp_open
                0x4a01d0c4        0x8 drivers/built-in.o
                0x4a01d0c4                bsp_disp_open
 .text.bsp_disp_close
                0x4a01d0cc        0x8 drivers/built-in.o
                0x4a01d0cc                bsp_disp_close
 .text.disp_device_attached_and_enable
                0x4a01d0d4      0x1e4 drivers/built-in.o
                0x4a01d0d4                disp_device_attached_and_enable
 .text.bsp_disp_device_switch
                0x4a01d2b8       0x68 drivers/built-in.o
                0x4a01d2b8                bsp_disp_device_switch
 .text.disp_init_connections
                0x4a01d320      0x19c drivers/built-in.o
                0x4a01d320                disp_init_connections
 .text.bsp_disp_init
                0x4a01d4bc       0xe4 drivers/built-in.o
                0x4a01d4bc                bsp_disp_init
 .text.bsp_disp_vsync_event_enable
                0x4a01d5a0       0x1c drivers/built-in.o
                0x4a01d5a0                bsp_disp_vsync_event_enable
 .text.sync_event_proc
                0x4a01d5bc      0x130 drivers/built-in.o
                0x4a01d5bc                sync_event_proc
 .text.bsp_disp_get_output_type
                0x4a01d6ec       0x48 drivers/built-in.o
                0x4a01d6ec                bsp_disp_get_output_type
 .text.bsp_disp_set_hdmi_func
                0x4a01d734       0x88 drivers/built-in.o
                0x4a01d734                bsp_disp_set_hdmi_func
 .text.bsp_disp_hdmi_check_support_mode
                0x4a01d7bc       0x58 drivers/built-in.o
                0x4a01d7bc                bsp_disp_hdmi_check_support_mode
 .text.bsp_disp_hdmi_get_hpd_status
                0x4a01d814       0x50 drivers/built-in.o
                0x4a01d814                bsp_disp_hdmi_get_hpd_status
 .text.bsp_disp_hdmi_get_edid
                0x4a01d864       0x58 drivers/built-in.o
                0x4a01d864                bsp_disp_hdmi_get_edid
 .text.bsp_disp_tv_get_hpd_status
                0x4a01d8bc       0x50 drivers/built-in.o
                0x4a01d8bc                bsp_disp_tv_get_hpd_status
 .text.bsp_disp_tv_set_hpd
                0x4a01d90c       0x6c drivers/built-in.o
                0x4a01d90c                bsp_disp_tv_set_hpd
 .text.bsp_disp_tv_register
                0x4a01d978       0x8c drivers/built-in.o
                0x4a01d978                bsp_disp_tv_register
 .text.bsp_disp_lcd_get_open_flow
                0x4a01da04       0x30 drivers/built-in.o
                0x4a01da04                bsp_disp_lcd_get_open_flow
 .text.bsp_disp_lcd_set_panel_funs
                0x4a01da34       0x70 drivers/built-in.o
                0x4a01da34                bsp_disp_lcd_set_panel_funs
 .text.LCD_OPEN_FUNC
                0x4a01daa4       0x34 drivers/built-in.o
                0x4a01daa4                LCD_OPEN_FUNC
 .text.LCD_CLOSE_FUNC
                0x4a01dad8       0x34 drivers/built-in.o
                0x4a01dad8                LCD_CLOSE_FUNC
 .text.bsp_disp_lcd_backlight_enable
                0x4a01db0c       0x30 drivers/built-in.o
                0x4a01db0c                bsp_disp_lcd_backlight_enable
 .text.bsp_disp_lcd_backlight_disable
                0x4a01db3c       0x30 drivers/built-in.o
                0x4a01db3c                bsp_disp_lcd_backlight_disable
 .text.bsp_disp_lcd_pwm_enable
                0x4a01db6c       0x30 drivers/built-in.o
                0x4a01db6c                bsp_disp_lcd_pwm_enable
 .text.bsp_disp_lcd_pwm_disable
                0x4a01db9c       0x30 drivers/built-in.o
                0x4a01db9c                bsp_disp_lcd_pwm_disable
 .text.bsp_disp_lcd_power_enable
                0x4a01dbcc       0x38 drivers/built-in.o
                0x4a01dbcc                bsp_disp_lcd_power_enable
 .text.bsp_disp_lcd_power_disable
                0x4a01dc04       0x38 drivers/built-in.o
                0x4a01dc04                bsp_disp_lcd_power_disable
 .text.bsp_disp_lcd_get_bright
                0x4a01dc3c       0x30 drivers/built-in.o
                0x4a01dc3c                bsp_disp_lcd_get_bright
 .text.bsp_disp_lcd_tcon_enable
                0x4a01dc6c       0x30 drivers/built-in.o
                0x4a01dc6c                bsp_disp_lcd_tcon_enable
 .text.bsp_disp_lcd_tcon_disable
                0x4a01dc9c       0x30 drivers/built-in.o
                0x4a01dc9c                bsp_disp_lcd_tcon_disable
 .text.bsp_disp_lcd_pin_cfg
                0x4a01dccc       0x38 drivers/built-in.o
                0x4a01dccc                bsp_disp_lcd_pin_cfg
 .text.bsp_disp_lcd_gpio_set_value
                0x4a01dd04       0x40 drivers/built-in.o
                0x4a01dd04                bsp_disp_lcd_gpio_set_value
 .text.bsp_disp_lcd_gpio_set_direction
                0x4a01dd44       0x40 drivers/built-in.o
                0x4a01dd44                bsp_disp_lcd_gpio_set_direction
 .text.bsp_disp_get_panel_info
                0x4a01dd84       0x50 drivers/built-in.o
                0x4a01dd84                bsp_disp_get_panel_info
 .text.bsp_disp_feat_get_num_screens
                0x4a01ddd4        0x4 drivers/built-in.o
                0x4a01ddd4                bsp_disp_feat_get_num_screens
 .text.bsp_disp_feat_get_num_devices
                0x4a01ddd8        0x4 drivers/built-in.o
                0x4a01ddd8                bsp_disp_feat_get_num_devices
 .text.bsp_disp_feat_get_num_channels
                0x4a01dddc        0x4 drivers/built-in.o
                0x4a01dddc                bsp_disp_feat_get_num_channels
 .text.bsp_disp_feat_get_num_layers
                0x4a01dde0        0x4 drivers/built-in.o
                0x4a01dde0                bsp_disp_feat_get_num_layers
 .text.bsp_disp_feat_get_num_layers_by_chn
                0x4a01dde4        0x4 drivers/built-in.o
                0x4a01dde4                bsp_disp_feat_get_num_layers_by_chn
 .text.bsp_disp_feat_is_supported_output_types
                0x4a01dde8        0x4 drivers/built-in.o
                0x4a01dde8                bsp_disp_feat_is_supported_output_types
 .text.disp_feat_is_support_smbl
                0x4a01ddec        0x4 drivers/built-in.o
                0x4a01ddec                disp_feat_is_support_smbl
 .text.disp_init_feat
                0x4a01ddf0       0x10 drivers/built-in.o
                0x4a01ddf0                disp_init_feat
 .text.disp_device_set_manager
                0x4a01de00       0x3c drivers/built-in.o
                0x4a01de00                disp_device_set_manager
 .text.disp_device_unset_manager
                0x4a01de3c       0x3c drivers/built-in.o
                0x4a01de3c                disp_device_unset_manager
 .text.disp_device_get_resolution
                0x4a01de78       0x38 drivers/built-in.o
                0x4a01de78                disp_device_get_resolution
 .text.disp_device_get_timings
                0x4a01deb0       0x40 drivers/built-in.o
                0x4a01deb0                disp_device_get_timings
 .text.disp_device_is_interlace
                0x4a01def0       0x28 drivers/built-in.o
                0x4a01def0                disp_device_is_interlace
 .text.disp_device_get
                0x4a01df18       0x4c drivers/built-in.o
                0x4a01df18                disp_device_get
 .text.disp_device_find
                0x4a01df64       0x40 drivers/built-in.o
                0x4a01df64                disp_device_find
 .text.disp_device_register
                0x4a01dfa4       0x24 drivers/built-in.o
                0x4a01dfa4                disp_device_register
 .text.disp_lcd_get_priv
                0x4a01dfc8       0x28 drivers/built-in.o
 .text.disp_lcd_is_used
                0x4a01dff0       0x20 drivers/built-in.o
 .text.disp_lcd_bright_curve_init
                0x4a01e010      0x160 drivers/built-in.o
 .text.disp_lcd_get_close_flow
                0x4a01e170       0xc8 drivers/built-in.o
 .text.disp_lcd_get_open_flow
                0x4a01e238       0xc0 drivers/built-in.o
 .text.disp_lcd_init
                0x4a01e2f8      0xb90 drivers/built-in.o
 .text.lcd_clk_disable
                0x4a01ee88       0x88 drivers/built-in.o
 .text.disp_lcd_event_proc
                0x4a01ef10       0x80 drivers/built-in.o
 .text.lcd_clk_enable
                0x4a01ef90      0x278 drivers/built-in.o
 .text.disp_lcd_set_panel_funs
                0x4a01f208       0xd0 drivers/built-in.o
 .text.disp_lcd_pin_cfg
                0x4a01f2d8      0x138 drivers/built-in.o
 .text.disp_lcd_backlight_disable
                0x4a01f410       0xd8 drivers/built-in.o
 .text.disp_lcd_sw_enable
                0x4a01f4e8      0x2b0 drivers/built-in.o
 .text.disp_lcd_get_dimensions
                0x4a01f798       0x54 drivers/built-in.o
 .text.disp_lcd_set_close_func
                0x4a01f7ec       0x68 drivers/built-in.o
 .text.disp_lcd_set_open_func
                0x4a01f854       0x64 drivers/built-in.o
 .text.disp_lcd_is_enabled
                0x4a01f8b8       0x34 drivers/built-in.o
                0x4a01f8b8                disp_lcd_is_enabled
 .text.disp_lcd_get_bright
                0x4a01f8ec       0x34 drivers/built-in.o
                0x4a01f8ec                disp_lcd_get_bright
 .text.disp_lcd_bright_get_adjust_value
                0x4a01f920       0x44 drivers/built-in.o
 .text.disp_lcd_set_bright
                0x4a01f964      0x178 drivers/built-in.o
                0x4a01f964                disp_lcd_set_bright
 .text.disp_lcd_backlight_enable
                0x4a01fadc       0xe8 drivers/built-in.o
 .text.disp_lcd_exit
                0x4a01fbc4       0x6c drivers/built-in.o
 .text.disp_lcd_set_bright_dimming
                0x4a01fc30       0x60 drivers/built-in.o
 .text.disp_lcd_get_status
                0x4a01fc90       0x38 drivers/built-in.o
 .text.disp_lcd_power_disable
                0x4a01fcc8       0x74 drivers/built-in.o
 .text.disp_lcd_power_enable
                0x4a01fd3c       0x74 drivers/built-in.o
 .text.disp_lcd_tcon_disable
                0x4a01fdb0       0x40 drivers/built-in.o
 .text.disp_lcd_tcon_enable
                0x4a01fdf0       0x40 drivers/built-in.o
 .text.disp_lcd_pwm_disable
                0x4a01fe30       0x5c drivers/built-in.o
 .text.disp_lcd_pwm_enable
                0x4a01fe8c       0x5c drivers/built-in.o
 .text.disp_lcd_get_panel_info
                0x4a01fee8       0x54 drivers/built-in.o
 .text.disp_lcd_gpio_set_value
                0x4a01ff3c       0x6c drivers/built-in.o
                0x4a01ff3c                disp_lcd_gpio_set_value
 .text.disp_lcd_gpio_set_direction
                0x4a01ffa8       0x6c drivers/built-in.o
                0x4a01ffa8                disp_lcd_gpio_set_direction
 .text.disp_get_lcd
                0x4a020014       0x44 drivers/built-in.o
                0x4a020014                disp_get_lcd
 .text.disp_lcd_pre_disable_ex
                0x4a020058       0x50 drivers/built-in.o
 .text.disp_lcd_post_enable_ex
                0x4a0200a8       0x60 drivers/built-in.o
 .text.disp_lcd_gpio_init
                0x4a020108       0xfc drivers/built-in.o
                0x4a020108                disp_lcd_gpio_init
 .text.disp_lcd_pre_enable_ex
                0x4a020204      0x17c drivers/built-in.o
 .text.__disp_lcd_enable
                0x4a020380      0x228 drivers/built-in.o
 .text.disp_lcd_fake_enable
                0x4a0205a8        0x8 drivers/built-in.o
 .text.disp_lcd_enable
                0x4a0205b0        0x8 drivers/built-in.o
 .text.disp_lcd_gpio_exit
                0x4a0205b8      0x108 drivers/built-in.o
                0x4a0205b8                disp_lcd_gpio_exit
 .text.disp_lcd_post_disable_ex
                0x4a0206c0       0xdc drivers/built-in.o
 .text.disp_lcd_disable
                0x4a02079c      0x184 drivers/built-in.o
 .text.disp_init_lcd
                0x4a020920      0x2e4 drivers/built-in.o
                0x4a020920                disp_init_lcd
 .text.disp_lyr_get_priv
                0x4a020c04       0x28 drivers/built-in.o
 .text.disp_lyr_dump
                0x4a020c2c      0x258 drivers/built-in.o
 .text.disp_lyr_save_and_dirty_check
                0x4a020e84       0x74 drivers/built-in.o
 .text.disp_lyr_dirty_clear
                0x4a020ef8       0x44 drivers/built-in.o
 .text.disp_lyr_is_dirty
                0x4a020f3c       0x3c drivers/built-in.o
 .text.disp_lyr_check
                0x4a020f78       0x34 drivers/built-in.o
 .text.disp_lyr_apply
                0x4a020fac       0x34 drivers/built-in.o
 .text.disp_lyr_force_apply
                0x4a020fe0       0x60 drivers/built-in.o
 .text.disp_lyr_unset_manager
                0x4a021040       0x60 drivers/built-in.o
 .text.disp_lyr_set_manager
                0x4a0210a0       0x70 drivers/built-in.o
 .text.disp_mgr_get_priv
                0x4a021110       0x3c drivers/built-in.o
 .text.disp_mgr_tasklet
                0x4a02114c       0xc0 drivers/built-in.o
 .text.disp_mgr_update_color_space
                0x4a02120c       0xb8 drivers/built-in.o
 .text.disp_mgr_sync
                0x4a0212c4       0xf0 drivers/built-in.o
 .text.disp_mgr_shadow_protect
                0x4a0213b4       0x54 drivers/built-in.o
 .text.disp_mgr_apply
                0x4a021408      0x190 drivers/built-in.o
 .text.disp_mgr_dump
                0x4a021598       0x34 drivers/built-in.o
 .text.disp_mgr_get_output_color_range
                0x4a0215cc       0x38 drivers/built-in.o
 .text.disp_mgr_set_output_color_range
                0x4a021604       0x74 drivers/built-in.o
 .text.disp_mgr_is_enabled
                0x4a021678       0x34 drivers/built-in.o
 .text.disp_lyr_get_config
                0x4a0216ac       0x6c drivers/built-in.o
 .text.disp_mgr_get_back_color
                0x4a021718       0x64 drivers/built-in.o
 .text.disp_mgr_set_back_color
                0x4a02177c       0x80 drivers/built-in.o
 .text.disp_mgr_get_color_key
                0x4a0217fc       0x64 drivers/built-in.o
 .text.disp_mgr_set_color_key
                0x4a021860       0x84 drivers/built-in.o
 .text.disp_mgr_update_regs
                0x4a0218e4       0x5c drivers/built-in.o
 .text.disp_mgr_force_apply
                0x4a021940       0xe0 drivers/built-in.o
 .text.disp_mgr_sw_enable
                0x4a021a20      0x128 drivers/built-in.o
 .text.disp_mgr_disable
                0x4a021b48       0xa0 drivers/built-in.o
 .text.disp_mgr_enable
                0x4a021be8      0x174 drivers/built-in.o
 .text.disp_mgr_exit
                0x4a021d5c       0x6c drivers/built-in.o
 .text.disp_mgr_init
                0x4a021dc8       0x78 drivers/built-in.o
 .text.disp_mgr_blank
                0x4a021e40       0x9c drivers/built-in.o
 .text.disp_get_layer
                0x4a021edc       0xcc drivers/built-in.o
                0x4a021edc                disp_get_layer
 .text.disp_mgr_get_layer_config
                0x4a021fa8       0xb8 drivers/built-in.o
 .text.disp_mgr_set_layer_config
                0x4a022060       0xfc drivers/built-in.o
 .text.disp_get_layer_1
                0x4a02215c       0xd0 drivers/built-in.o
                0x4a02215c                disp_get_layer_1
 .text.disp_get_layer_manager
                0x4a02222c       0x44 drivers/built-in.o
                0x4a02222c                disp_get_layer_manager
 .text.disp_init_mgr
                0x4a022270      0x4f0 drivers/built-in.o
                0x4a022270                disp_init_mgr
 .text.disp_delay_ms
                0x4a022760       0x10 drivers/built-in.o
                0x4a022760                disp_delay_ms
 .text.disp_delay_us
                0x4a022770       0x10 drivers/built-in.o
                0x4a022770                disp_delay_us
 .text.disp_smbl_get_priv
                0x4a022780       0x1c drivers/built-in.o
 .text.disp_smbl_update_backlight
                0x4a02279c       0x28 drivers/built-in.o
 .text.disp_smbl_is_enabled
                0x4a0227c4       0x34 drivers/built-in.o
 .text.disp_smbl_init
                0x4a0227f8       0x24 drivers/built-in.o
 .text.disp_smbl_exit
                0x4a02281c       0x24 drivers/built-in.o
 .text.disp_smbl_dump
                0x4a022840       0xac drivers/built-in.o
 .text.disp_smbl_get_window
                0x4a0228ec       0x5c drivers/built-in.o
 .text.disp_smbl_unset_manager
                0x4a022948       0x58 drivers/built-in.o
 .text.disp_smbl_set_manager
                0x4a0229a0       0x5c drivers/built-in.o
 .text.disp_smbl_tasklet
                0x4a0229fc       0x9c drivers/built-in.o
 .text.disp_smbl_update_regs
                0x4a022a98       0x5c drivers/built-in.o
 .text.disp_smbl_sync
                0x4a022af4       0x20 drivers/built-in.o
 .text.disp_get_smbl
                0x4a022b14       0x50 drivers/built-in.o
                0x4a022b14                disp_get_smbl
 .text.disp_smbl_shadow_protect
                0x4a022b64       0x44 drivers/built-in.o
                0x4a022b64                disp_smbl_shadow_protect
 .text.disp_smbl_apply
                0x4a022ba8       0xbc drivers/built-in.o
 .text.disp_smbl_set_window
                0x4a022c64       0x70 drivers/built-in.o
 .text.disp_smbl_force_apply
                0x4a022cd4       0x60 drivers/built-in.o
 .text.disp_smbl_disable
                0x4a022d34       0x60 drivers/built-in.o
 .text.disp_smbl_enable
                0x4a022d94       0xac drivers/built-in.o
 .text.disp_init_smbl
                0x4a022e40      0x1ec drivers/built-in.o
                0x4a022e40                disp_init_smbl
 .text.disp_enhance_get_priv
                0x4a02302c       0x24 drivers/built-in.o
 .text.disp_enhance_is_enabled
                0x4a023050       0x30 drivers/built-in.o
 .text.disp_enhance_get_mode
                0x4a023080       0x20 drivers/built-in.o
 .text.disp_enhance_set_manager
                0x4a0230a0       0x30 drivers/built-in.o
 .text.disp_enhance_unset_manager
                0x4a0230d0       0x38 drivers/built-in.o
 .text.disp_enhance_shadow_protect
                0x4a023108       0x44 drivers/built-in.o
 .text.disp_enhance_init
                0x4a02314c       0x24 drivers/built-in.o
 .text.disp_enhance_exit
                0x4a023170       0x24 drivers/built-in.o
 .text.disp_enhance_dump
                0x4a023194       0x90 drivers/built-in.o
 .text.disp_enhance_update_regs
                0x4a023224       0x50 drivers/built-in.o
 .text.disp_enhance_apply
                0x4a023274       0xd0 drivers/built-in.o
 .text.disp_enhance_set_mode
                0x4a023344       0x60 drivers/built-in.o
 .text.disp_enhance_demo_disable
                0x4a0233a4       0x54 drivers/built-in.o
 .text.disp_enhance_demo_enable
                0x4a0233f8       0x58 drivers/built-in.o
 .text.disp_enhance_disable
                0x4a023450       0x58 drivers/built-in.o
 .text.disp_enhance_enable
                0x4a0234a8       0xd0 drivers/built-in.o
 .text.disp_enhance_set_para
                0x4a023578      0x124 drivers/built-in.o
                0x4a023578                disp_enhance_set_para
 .text.disp_enhance_tasklet
                0x4a02369c       0x44 drivers/built-in.o
 .text.disp_enhance_sync
                0x4a0236e0       0x54 drivers/built-in.o
 .text.disp_enhance_force_apply
                0x4a023734       0x88 drivers/built-in.o
 .text.disp_get_enhance
                0x4a0237bc       0x44 drivers/built-in.o
                0x4a0237bc                disp_get_enhance
 .text.disp_init_enhance
                0x4a023800      0x1cc drivers/built-in.o
                0x4a023800                disp_init_enhance
 .text.disp_get_capture
                0x4a0239cc        0x8 drivers/built-in.o
                0x4a0239cc                disp_get_capture
 .text.disp_init_capture
                0x4a0239d4        0x8 drivers/built-in.o
                0x4a0239d4                disp_init_capture
 .text.disp_hdmi_event_proc
                0x4a0239dc       0x60 drivers/built-in.o
 .text.disp_hdmi_get_priv
                0x4a023a3c       0x28 drivers/built-in.o
 .text.disp_hdmi_set_detect
                0x4a023a64       0xd8 drivers/built-in.o
 .text.disp_hdmi_disable
                0x4a023b3c      0x128 drivers/built-in.o
 .text.disp_hdmi_sw_enable
                0x4a023c64      0x100 drivers/built-in.o
 .text.disp_hdmi_enable
                0x4a023d64      0x1d8 drivers/built-in.o
                0x4a023d64                disp_hdmi_enable
 .text.disp_hdmi_get_edid
                0x4a023f3c       0x50 drivers/built-in.o
 .text.disp_hdmi_detect
                0x4a023f8c       0x48 drivers/built-in.o
 .text.disp_hdmi_get_input_csc
                0x4a023fd4       0x40 drivers/built-in.o
 .text.disp_hdmi_get_input_color_range
                0x4a024014       0x44 drivers/built-in.o
 .text.disp_hdmi_check_support_mode
                0x4a024058       0x50 drivers/built-in.o
 .text.disp_hdmi_get_mode
                0x4a0240a8       0x34 drivers/built-in.o
 .text.disp_hdmi_is_enabled
                0x4a0240dc       0x34 drivers/built-in.o
 .text.disp_hdmi_exit
                0x4a024110       0x60 drivers/built-in.o
 .text.disp_hdmi_init
                0x4a024170       0x60 drivers/built-in.o
 .text.disp_hdmi_set_mode
                0x4a0241d0       0x5c drivers/built-in.o
                0x4a0241d0                disp_hdmi_set_mode
 .text.disp_hdmi_get_status
                0x4a02422c       0x38 drivers/built-in.o
 .text.disp_hdmi_resume
                0x4a024264       0x70 drivers/built-in.o
 .text.disp_hdmi_suspend
                0x4a0242d4       0x70 drivers/built-in.o
 .text.disp_hdmi_set_func
                0x4a024344       0x50 drivers/built-in.o
 .text.disp_init_hdmi
                0x4a024394      0x274 drivers/built-in.o
                0x4a024394                disp_init_hdmi
 .text.disp_tv_get_priv
                0x4a024608       0x28 drivers/built-in.o
 .text.disp_tv_set_func
                0x4a024630       0x68 drivers/built-in.o
                0x4a024630                disp_tv_set_func
 .text.disp_tv_sw_enable
                0x4a024698      0x124 drivers/built-in.o
                0x4a024698                disp_tv_sw_enable
 .text.disp_tv_enable
                0x4a0247bc      0x188 drivers/built-in.o
                0x4a0247bc                disp_tv_enable
 .text.disp_tv_init
                0x4a024944       0x34 drivers/built-in.o
 .text.disp_set_enhance_mode
                0x4a024978       0x58 drivers/built-in.o
                0x4a024978                disp_set_enhance_mode
 .text.disp_tv_check_support_mode
                0x4a0249d0       0x58 drivers/built-in.o
                0x4a0249d0                disp_tv_check_support_mode
 .text.disp_tv_detect
                0x4a024a28       0x4c drivers/built-in.o
                0x4a024a28                disp_tv_detect
 .text.disp_tv_get_input_csc
                0x4a024a74       0x4c drivers/built-in.o
                0x4a024a74                disp_tv_get_input_csc
 .text.disp_tv_get_mode
                0x4a024ac0       0x60 drivers/built-in.o
                0x4a024ac0                disp_tv_get_mode
 .text.disp_tv_set_mode
                0x4a024b20       0x60 drivers/built-in.o
                0x4a024b20                disp_tv_set_mode
 .text.disp_tv_resume
                0x4a024b80       0x5c drivers/built-in.o
                0x4a024b80                disp_tv_resume
 .text.disp_tv_suspend
                0x4a024bdc       0x70 drivers/built-in.o
                0x4a024bdc                disp_tv_suspend
 .text.disp_tv_is_enabled
                0x4a024c4c       0x34 drivers/built-in.o
                0x4a024c4c                disp_tv_is_enabled
 .text.disp_tv_event_proc
                0x4a024c80       0x70 drivers/built-in.o
 .text.disp_init_tv_para
                0x4a024cf0       0x38 drivers/built-in.o
                0x4a024cf0                disp_init_tv_para
 .text.disp_tv_set_hpd
                0x4a024d28       0x50 drivers/built-in.o
                0x4a024d28                disp_tv_set_hpd
 .text.disp_tv_disable
                0x4a024d78      0x11c drivers/built-in.o
                0x4a024d78                disp_tv_disable
 .text.disp_tv_exit
                0x4a024e94       0x58 drivers/built-in.o
                0x4a024e94                disp_tv_exit
 .text.disp_init_tv
                0x4a024eec      0x308 drivers/built-in.o
                0x4a024eec                disp_init_tv
 .text.lcd_init
                0x4a0251f4       0x34 drivers/built-in.o
                0x4a0251f4                lcd_init
 .text.sunxi_lcd_delay_ms
                0x4a025228       0x28 drivers/built-in.o
                0x4a025228                sunxi_lcd_delay_ms
 .text.sunxi_lcd_delay_us
                0x4a025250       0x28 drivers/built-in.o
                0x4a025250                sunxi_lcd_delay_us
 .text.sunxi_lcd_tcon_enable
                0x4a025278       0x20 drivers/built-in.o
                0x4a025278                sunxi_lcd_tcon_enable
 .text.sunxi_lcd_tcon_disable
                0x4a025298       0x20 drivers/built-in.o
                0x4a025298                sunxi_lcd_tcon_disable
 .text.sunxi_lcd_backlight_enable
                0x4a0252b8       0x20 drivers/built-in.o
                0x4a0252b8                sunxi_lcd_backlight_enable
 .text.sunxi_lcd_backlight_disable
                0x4a0252d8       0x20 drivers/built-in.o
                0x4a0252d8                sunxi_lcd_backlight_disable
 .text.sunxi_lcd_power_enable
                0x4a0252f8       0x20 drivers/built-in.o
                0x4a0252f8                sunxi_lcd_power_enable
 .text.sunxi_lcd_power_disable
                0x4a025318       0x20 drivers/built-in.o
                0x4a025318                sunxi_lcd_power_disable
 .text.sunxi_lcd_pwm_enable
                0x4a025338       0x28 drivers/built-in.o
                0x4a025338                sunxi_lcd_pwm_enable
 .text.sunxi_lcd_pwm_disable
                0x4a025360       0x28 drivers/built-in.o
                0x4a025360                sunxi_lcd_pwm_disable
 .text.sunxi_lcd_dsi_dcs_write
                0x4a025388       0x28 drivers/built-in.o
                0x4a025388                sunxi_lcd_dsi_dcs_write
 .text.sunxi_lcd_dsi_dcs_write_0para
                0x4a0253b0       0x18 drivers/built-in.o
                0x4a0253b0                sunxi_lcd_dsi_dcs_write_0para
 .text.sunxi_lcd_dsi_dcs_write_1para
                0x4a0253c8       0x20 drivers/built-in.o
                0x4a0253c8                sunxi_lcd_dsi_dcs_write_1para
 .text.sunxi_lcd_dsi_dcs_write_2para
                0x4a0253e8       0x20 drivers/built-in.o
                0x4a0253e8                sunxi_lcd_dsi_dcs_write_2para
 .text.sunxi_lcd_dsi_dcs_write_4para
                0x4a025408       0x30 drivers/built-in.o
                0x4a025408                sunxi_lcd_dsi_dcs_write_4para
 .text.sunxi_lcd_dsi_dcs_write_5para
                0x4a025438       0x38 drivers/built-in.o
                0x4a025438                sunxi_lcd_dsi_dcs_write_5para
 .text.sunxi_lcd_dsi_gen_write
                0x4a025470       0x28 drivers/built-in.o
                0x4a025470                sunxi_lcd_dsi_gen_write
 .text.sunxi_lcd_dsi_gen_write_1para
                0x4a025498       0x20 drivers/built-in.o
                0x4a025498                sunxi_lcd_dsi_gen_write_1para
 .text.sunxi_lcd_dsi_gen_write_2para
                0x4a0254b8       0x20 drivers/built-in.o
                0x4a0254b8                sunxi_lcd_dsi_gen_write_2para
 .text.sunxi_lcd_dsi_gen_write_5para
                0x4a0254d8       0x38 drivers/built-in.o
                0x4a0254d8                sunxi_lcd_dsi_gen_write_5para
 .text.sunxi_lcd_dsi_clk_enable
                0x4a025510       0x2c drivers/built-in.o
                0x4a025510                sunxi_lcd_dsi_clk_enable
 .text.sunxi_lcd_dsi_clk_disable
                0x4a02553c       0x2c drivers/built-in.o
                0x4a02553c                sunxi_lcd_dsi_clk_disable
 .text.sunxi_lcd_set_panel_funs
                0x4a025568       0x28 drivers/built-in.o
                0x4a025568                sunxi_lcd_set_panel_funs
 .text.sunxi_lcd_pin_cfg
                0x4a025590       0x28 drivers/built-in.o
                0x4a025590                sunxi_lcd_pin_cfg
 .text.sunxi_lcd_gpio_set_value
                0x4a0255b8       0x28 drivers/built-in.o
                0x4a0255b8                sunxi_lcd_gpio_set_value
 .text.LCD_panel_init
                0x4a0255e0     0x2c40 drivers/built-in.o
 .text.LCD_panel_exit
                0x4a028220      0x138 drivers/built-in.o
 .text.LCD_user_defined_func
                0x4a028358       0x40 drivers/built-in.o
 .text.LCD_close_flow
                0x4a028398      0x2e0 drivers/built-in.o
 .text.LCD_power_off
                0x4a028678      0x238 drivers/built-in.o
 .text.LCD_bl_close
                0x4a0288b0       0xb4 drivers/built-in.o
 .text.LCD_open_flow
                0x4a028964      0x2e0 drivers/built-in.o
 .text.LCD_bl_open
                0x4a028c44       0xc8 drivers/built-in.o
 .text.LCD_power_on
                0x4a028d0c      0x290 drivers/built-in.o
 .text.LCD_cfg_panel_info
                0x4a028f9c      0x640 drivers/built-in.o
 .text.LCD_set_bright
                0x4a0295dc       0x18 drivers/built-in.o
 .text.t27p06_spi_wr
                0x4a0295f4       0xe0 drivers/built-in.o
 .text.lcd_user_defined_func
                0x4a0296d4        0x8 drivers/built-in.o
 .text.lcd_set_bright
                0x4a0296dc        0x8 drivers/built-in.o
 .text.lcd_close_flow
                0x4a0296e4       0x5c drivers/built-in.o
 .text.lcd_power_off
                0x4a029740       0x50 drivers/built-in.o
 .text.lcd_panel_exit
                0x4a029790       0x30 drivers/built-in.o
 .text.lcd_backlight_close
                0x4a0297c0       0x18 drivers/built-in.o
 .text.lcd_open_flow
                0x4a0297d8       0x5c drivers/built-in.o
 .text.lcd_backlight_open
                0x4a029834       0x58 drivers/built-in.o
 .text.lcd_panel_init
                0x4a02988c       0x9c drivers/built-in.o
 .text.lcd_power_on
                0x4a029928       0x50 drivers/built-in.o
 .text.lcd_cfg_panel_info
                0x4a029978       0xc8 drivers/built-in.o
 .text.de_gsu_init
                0x4a029a40      0x16c drivers/built-in.o
                0x4a029a40                de_gsu_init
 .text.de_gsu_update_regs
                0x4a029bac      0x104 drivers/built-in.o
                0x4a029bac                de_gsu_update_regs
 .text.de_gsu_set_para
                0x4a029cb0      0x184 drivers/built-in.o
                0x4a029cb0                de_gsu_set_para
 .text.de_gsu_calc_scaler_para
                0x4a029e34      0x1a0 drivers/built-in.o
                0x4a029e34                de_gsu_calc_scaler_para
 .text.de_calc_ovl_coord
                0x4a029fd4       0x24 drivers/built-in.o
                0x4a029fd4                de_calc_ovl_coord
 .text.de_gsu_sel_ovl_scaler_para
                0x4a029ff8      0x12c drivers/built-in.o
                0x4a029ff8                de_gsu_sel_ovl_scaler_para
 .text.de_update_device_fps
                0x4a02a124       0x14 drivers/built-in.o
                0x4a02a124                de_update_device_fps
 .text.de_update_clk_rate
                0x4a02a138       0x24 drivers/built-in.o
                0x4a02a138                de_update_clk_rate
 .text.de_get_clk_rate
                0x4a02a15c       0x1c drivers/built-in.o
                0x4a02a15c                de_get_clk_rate
 .text.de_al_lyr_apply
                0x4a02a178     0x1240 drivers/built-in.o
                0x4a02a178                de_al_lyr_apply
 .text.de_al_mgr_apply
                0x4a02b3b8      0x13c drivers/built-in.o
                0x4a02b3b8                de_al_mgr_apply
 .text.de_al_mgr_sync
                0x4a02b4f4        0x4 drivers/built-in.o
                0x4a02b4f4                de_al_mgr_sync
 .text.de_al_mgr_update_regs
                0x4a02b4f8       0x34 drivers/built-in.o
                0x4a02b4f8                de_al_mgr_update_regs
 .text.de_al_init
                0x4a02b52c       0x50 drivers/built-in.o
                0x4a02b52c                de_al_init
 .text.disp_al_layer_apply
                0x4a02b57c        0x4 drivers/built-in.o
                0x4a02b57c                disp_al_layer_apply
 .text.disp_al_manager_init
                0x4a02b580        0x8 drivers/built-in.o
                0x4a02b580                disp_al_manager_init
 .text.disp_al_manager_exit
                0x4a02b588        0x8 drivers/built-in.o
                0x4a02b588                disp_al_manager_exit
 .text.disp_al_manager_apply
                0x4a02b590       0x98 drivers/built-in.o
                0x4a02b590                disp_al_manager_apply
 .text.disp_al_manager_sync
                0x4a02b628        0x4 drivers/built-in.o
                0x4a02b628                disp_al_manager_sync
 .text.disp_al_manager_update_regs
                0x4a02b62c        0x4 drivers/built-in.o
                0x4a02b62c                disp_al_manager_update_regs
 .text.disp_al_enhance_apply
                0x4a02b630       0x4c drivers/built-in.o
                0x4a02b630                disp_al_enhance_apply
 .text.disp_al_enhance_update_regs
                0x4a02b67c        0x4 drivers/built-in.o
                0x4a02b67c                disp_al_enhance_update_regs
 .text.disp_al_enhance_sync
                0x4a02b680        0x4 drivers/built-in.o
                0x4a02b680                disp_al_enhance_sync
 .text.disp_al_enhance_tasklet
                0x4a02b684        0x4 drivers/built-in.o
                0x4a02b684                disp_al_enhance_tasklet
 .text.disp_al_smbl_apply
                0x4a02b688        0x4 drivers/built-in.o
                0x4a02b688                disp_al_smbl_apply
 .text.disp_al_smbl_update_regs
                0x4a02b68c        0x4 drivers/built-in.o
                0x4a02b68c                disp_al_smbl_update_regs
 .text.disp_al_smbl_tasklet
                0x4a02b690        0x4 drivers/built-in.o
                0x4a02b690                disp_al_smbl_tasklet
 .text.disp_al_smbl_get_status
                0x4a02b694        0x4 drivers/built-in.o
                0x4a02b694                disp_al_smbl_get_status
 .text.disp_al_lcd_get_clk_info
                0x4a02b698       0xe0 drivers/built-in.o
                0x4a02b698                disp_al_lcd_get_clk_info
 .text.disp_al_lcd_cfg
                0x4a02b778       0xe4 drivers/built-in.o
                0x4a02b778                disp_al_lcd_cfg
 .text.disp_al_lcd_enable
                0x4a02b85c       0x30 drivers/built-in.o
                0x4a02b85c                disp_al_lcd_enable
 .text.disp_al_lcd_disable
                0x4a02b88c       0x40 drivers/built-in.o
                0x4a02b88c                disp_al_lcd_disable
 .text.disp_al_lcd_query_irq
                0x4a02b8cc       0x1c drivers/built-in.o
                0x4a02b8cc                disp_al_lcd_query_irq
 .text.disp_al_lcd_enable_irq
                0x4a02b8e8       0x1c drivers/built-in.o
                0x4a02b8e8                disp_al_lcd_enable_irq
 .text.disp_al_lcd_disable_irq
                0x4a02b904       0x1c drivers/built-in.o
                0x4a02b904                disp_al_lcd_disable_irq
 .text.disp_al_lcd_io_cfg
                0x4a02b920        0x8 drivers/built-in.o
                0x4a02b920                disp_al_lcd_io_cfg
 .text.disp_al_lcd_get_cur_line
                0x4a02b928       0x14 drivers/built-in.o
                0x4a02b928                disp_al_lcd_get_cur_line
 .text.disp_al_lcd_get_start_delay
                0x4a02b93c       0x14 drivers/built-in.o
                0x4a02b93c                disp_al_lcd_get_start_delay
 .text.disp_al_hdmi_enable
                0x4a02b950       0x20 drivers/built-in.o
                0x4a02b950                disp_al_hdmi_enable
 .text.disp_al_hdmi_disable
                0x4a02b970       0x38 drivers/built-in.o
                0x4a02b970                disp_al_hdmi_disable
 .text.disp_al_hdmi_cfg
                0x4a02b9a8       0xc0 drivers/built-in.o
                0x4a02b9a8                disp_al_hdmi_cfg
 .text.disp_al_tv_enable
                0x4a02ba68       0x20 drivers/built-in.o
                0x4a02ba68                disp_al_tv_enable
 .text.disp_al_tv_disable
                0x4a02ba88       0x38 drivers/built-in.o
                0x4a02ba88                disp_al_tv_disable
 .text.disp_al_tv_cfg
                0x4a02bac0       0x98 drivers/built-in.o
                0x4a02bac0                disp_al_tv_cfg
 .text.disp_al_device_get_cur_line
                0x4a02bb58       0x14 drivers/built-in.o
                0x4a02bb58                disp_al_device_get_cur_line
 .text.disp_al_device_get_start_delay
                0x4a02bb6c       0x1c drivers/built-in.o
                0x4a02bb6c                disp_al_device_get_start_delay
 .text.disp_al_device_query_irq
                0x4a02bb88       0x20 drivers/built-in.o
                0x4a02bb88                disp_al_device_query_irq
 .text.disp_al_device_get_status
                0x4a02bba8       0x14 drivers/built-in.o
                0x4a02bba8                disp_al_device_get_status
 .text.disp_init_al
                0x4a02bbbc      0x148 drivers/built-in.o
                0x4a02bbbc                disp_init_al
 .text.de_rtmx_update_regs
                0x4a02bd04      0x308 drivers/built-in.o
                0x4a02bd04                de_rtmx_update_regs
 .text.de_rtmx_set_overlay_reg_base
                0x4a02c00c       0x48 drivers/built-in.o
                0x4a02c00c                de_rtmx_set_overlay_reg_base
 .text.de_rtmx_init
                0x4a02c054      0x3e4 drivers/built-in.o
                0x4a02c054                de_rtmx_init
 .text.de_rtmx_set_display_size
                0x4a02c438       0x68 drivers/built-in.o
                0x4a02c438                de_rtmx_set_display_size
 .text.de_rtmx_set_dbuff_rdy
                0x4a02c4a0       0x34 drivers/built-in.o
                0x4a02c4a0                de_rtmx_set_dbuff_rdy
 .text.de_rtmx_set_enable
                0x4a02c4d4      0x19c drivers/built-in.o
                0x4a02c4d4                de_rtmx_set_enable
 .text.de_rtmx_set_lay_cfg
                0x4a02c670      0x2f0 drivers/built-in.o
                0x4a02c670                de_rtmx_set_lay_cfg
 .text.de_rtmx_set_lay_haddr
                0x4a02c960      0x150 drivers/built-in.o
                0x4a02c960                de_rtmx_set_lay_haddr
 .text.de_rtmx_get_3d_in_single_size
                0x4a02cab0       0x7c drivers/built-in.o
                0x4a02cab0                de_rtmx_get_3d_in_single_size
 .text.de_rtmx_get_3d_in
                0x4a02cb2c      0x86c drivers/built-in.o
                0x4a02cb2c                de_rtmx_get_3d_in
 .text.de_rtmx_get_li_addr_offset
                0x4a02d398       0x28 drivers/built-in.o
                0x4a02d398                de_rtmx_get_li_addr_offset
 .text.de_rtmx_set_lay_laddr
                0x4a02d3c0      0x320 drivers/built-in.o
                0x4a02d3c0                de_rtmx_set_lay_laddr
 .text.de_rtmx_get_3d_out
                0x4a02d6e0       0x88 drivers/built-in.o
                0x4a02d6e0                de_rtmx_get_3d_out
 .text.de_rtmx_set_lay_fcolor
                0x4a02d768      0x108 drivers/built-in.o
                0x4a02d768                de_rtmx_set_lay_fcolor
 .text.de_rtmx_set_overlay_size
                0x4a02d870       0xf8 drivers/built-in.o
                0x4a02d870                de_rtmx_set_overlay_size
 .text.de_rtmx_set_coarse_fac
                0x4a02d968      0x334 drivers/built-in.o
                0x4a02d968                de_rtmx_set_coarse_fac
 .text.de_rtmx_set_pf_en
                0x4a02dc9c       0x78 drivers/built-in.o
                0x4a02dc9c                de_rtmx_set_pf_en
 .text.de_rtmx_set_pipe_cfg
                0x4a02dd14       0xb0 drivers/built-in.o
                0x4a02dd14                de_rtmx_set_pipe_cfg
 .text.de_rtmx_set_route
                0x4a02ddc4       0x4c drivers/built-in.o
                0x4a02ddc4                de_rtmx_set_route
 .text.de_rtmx_set_premul
                0x4a02de10       0x44 drivers/built-in.o
                0x4a02de10                de_rtmx_set_premul
 .text.de_rtmx_set_background_color
                0x4a02de54       0x38 drivers/built-in.o
                0x4a02de54                de_rtmx_set_background_color
 .text.de_rtmx_set_blend_size
                0x4a02de8c       0x68 drivers/built-in.o
                0x4a02de8c                de_rtmx_set_blend_size
 .text.de_rtmx_set_blend_mode
                0x4a02def4       0xf8 drivers/built-in.o
                0x4a02def4                de_rtmx_set_blend_mode
 .text.de_rtmx_set_outitl
                0x4a02dfec       0x40 drivers/built-in.o
                0x4a02dfec                de_rtmx_set_outitl
 .text.de_rtmx_extend_rect
                0x4a02e02c       0xb4 drivers/built-in.o
                0x4a02e02c                de_rtmx_extend_rect
 .text.de_rtmx_calc_chnrect
                0x4a02e0e0      0x1f0 drivers/built-in.o
                0x4a02e0e0                de_rtmx_calc_chnrect
 .text.de_rtmx_get_premul_ctl
                0x4a02e2d0       0x68 drivers/built-in.o
                0x4a02e2d0                de_rtmx_get_premul_ctl
 .text.de_rtmx_mux
                0x4a02e338       0x2c drivers/built-in.o
                0x4a02e338                de_rtmx_mux
 .text.de_rtmx_get_mux
                0x4a02e364       0x1c drivers/built-in.o
                0x4a02e364                de_rtmx_get_mux
 .text.de_rtmx_sync_hw
                0x4a02e380      0x1d0 drivers/built-in.o
                0x4a02e380                de_rtmx_sync_hw
 .text.de_rtmx_get_display_size
                0x4a02e550       0x44 drivers/built-in.o
                0x4a02e550                de_rtmx_get_display_size
 .text.de_vsu_calc_fir_coef
                0x4a02e594       0x50 drivers/built-in.o
 .text.de_vsu_update_regs
                0x4a02e5e4      0x220 drivers/built-in.o
                0x4a02e5e4                de_vsu_update_regs
 .text.de_vsu_init
                0x4a02e804      0x2a4 drivers/built-in.o
                0x4a02e804                de_vsu_init
 .text.de_vsu_set_para
                0x4a02eaa8      0x31c drivers/built-in.o
                0x4a02eaa8                de_vsu_set_para
 .text.de_vsu_calc_scaler_para
                0x4a02edc4      0x3a4 drivers/built-in.o
                0x4a02edc4                de_vsu_calc_scaler_para
 .text.de_vsu_sel_ovl_scaler_para
                0x4a02f168      0x1c0 drivers/built-in.o
                0x4a02f168                de_vsu_sel_ovl_scaler_para
 .text.de_vsu_recalc_scale_para
                0x4a02f328       0x90 drivers/built-in.o
                0x4a02f328                de_vsu_recalc_scale_para
 .text.de_recalc_ovl_bld_for_scale
                0x4a02f3b8      0x20c drivers/built-in.o
                0x4a02f3b8                de_recalc_ovl_bld_for_scale
 .text.de_feat_get_num_screens
                0x4a02f5c4       0x14 drivers/built-in.o
                0x4a02f5c4                de_feat_get_num_screens
 .text.de_feat_get_num_devices
                0x4a02f5d8       0x14 drivers/built-in.o
                0x4a02f5d8                de_feat_get_num_devices
 .text.de_feat_get_num_chns
                0x4a02f5ec       0x18 drivers/built-in.o
                0x4a02f5ec                de_feat_get_num_chns
 .text.de_feat_get_num_vi_chns
                0x4a02f604       0x18 drivers/built-in.o
                0x4a02f604                de_feat_get_num_vi_chns
 .text.de_feat_get_num_ui_chns
                0x4a02f61c       0x24 drivers/built-in.o
                0x4a02f61c                de_feat_get_num_ui_chns
 .text.de_feat_get_num_layers
                0x4a02f640       0x80 drivers/built-in.o
                0x4a02f640                de_feat_get_num_layers
 .text.de_feat_get_num_layers_by_chn
                0x4a02f6c0       0x70 drivers/built-in.o
                0x4a02f6c0                de_feat_get_num_layers_by_chn
 .text.de_feat_is_support_vep_by_chn
                0x4a02f730       0x70 drivers/built-in.o
                0x4a02f730                de_feat_is_support_vep_by_chn
 .text.de_feat_is_support_smbl
                0x4a02f7a0       0x18 drivers/built-in.o
                0x4a02f7a0                de_feat_is_support_smbl
 .text.de_feat_is_supported_output_types
                0x4a02f7b8       0x1c drivers/built-in.o
                0x4a02f7b8                de_feat_is_supported_output_types
 .text.de_feat_is_support_scale
                0x4a02f7d4       0x80 drivers/built-in.o
                0x4a02f7d4                de_feat_is_support_scale
 .text.de_feat_get_scale_linebuf
                0x4a02f854       0x18 drivers/built-in.o
                0x4a02f854                de_feat_get_scale_linebuf
 .text.de_feat_init
                0x4a02f86c       0x1c drivers/built-in.o
                0x4a02f86c                de_feat_init
 .text.tcon0_cfg_mode_auto
                0x4a02f888      0x22c drivers/built-in.o
 .text.tcon0_cfg_mode_tri
                0x4a02fab4      0x244 drivers/built-in.o
 .text.tcon1_tv_clk_enable
                0x4a02fcf8        0x8 drivers/built-in.o
                0x4a02fcf8                tcon1_tv_clk_enable
 .text.tcon1_hdmi_clk_enable
                0x4a02fd00        0x8 drivers/built-in.o
                0x4a02fd00                tcon1_hdmi_clk_enable
 .text.lvds_open
                0x4a02fd08      0x19c drivers/built-in.o
                0x4a02fd08                lvds_open
 .text.lvds_close
                0x4a02fea4       0xa0 drivers/built-in.o
                0x4a02fea4                lvds_close
 .text.tcon_set_reg_base
                0x4a02ff44       0x14 drivers/built-in.o
                0x4a02ff44                tcon_set_reg_base
 .text.tcon_init
                0x4a02ff58       0x4c drivers/built-in.o
                0x4a02ff58                tcon_init
 .text.tcon_exit
                0x4a02ffa4       0x2c drivers/built-in.o
                0x4a02ffa4                tcon_exit
 .text.tcon_irq_enable
                0x4a02ffd0       0x28 drivers/built-in.o
                0x4a02ffd0                tcon_irq_enable
 .text.tcon_irq_disable
                0x4a02fff8       0x24 drivers/built-in.o
                0x4a02fff8                tcon_irq_disable
 .text.tcon_irq_query
                0x4a03001c       0x34 drivers/built-in.o
                0x4a03001c                tcon_irq_query
 .text.tcon_get_start_delay
                0x4a030050       0x3c drivers/built-in.o
                0x4a030050                tcon_get_start_delay
 .text.tcon_get_cur_line
                0x4a03008c       0x40 drivers/built-in.o
                0x4a03008c                tcon_get_cur_line
 .text.tcon_get_status
                0x4a0300cc       0x64 drivers/built-in.o
                0x4a0300cc                tcon_get_status
 .text.tcon0_src_select
                0x4a030130       0x20 drivers/built-in.o
                0x4a030130                tcon0_src_select
 .text.tcon0_open
                0x4a030150       0xcc drivers/built-in.o
                0x4a030150                tcon0_open
 .text.tcon0_close
                0x4a03021c       0x5c drivers/built-in.o
                0x4a03021c                tcon0_close
 .text.tcon0_frm
                0x4a030278      0x118 drivers/built-in.o
                0x4a030278                tcon0_frm
 .text.tcon0_cfg
                0x4a030390      0x308 drivers/built-in.o
                0x4a030390                tcon0_cfg
 .text.tcon0_set_dclk_div
                0x4a030698       0x20 drivers/built-in.o
                0x4a030698                tcon0_set_dclk_div
 .text.tcon1_open
                0x4a0306b8       0x2c drivers/built-in.o
                0x4a0306b8                tcon1_open
 .text.tcon1_close
                0x4a0306e4       0x2c drivers/built-in.o
                0x4a0306e4                tcon1_close
 .text.tcon1_cfg
                0x4a030710      0x1dc drivers/built-in.o
                0x4a030710                tcon1_cfg
 .text.tcon1_hdmi_color_remap
                0x4a0308ec       0xe0 drivers/built-in.o
                0x4a0308ec                tcon1_hdmi_color_remap
 .text.tcon1_yuv_range
                0x4a0309cc       0xe0 drivers/built-in.o
                0x4a0309cc                tcon1_yuv_range
 .text.tcon1_set_timming
                0x4a030aac       0x6c drivers/built-in.o
                0x4a030aac                tcon1_set_timming
 .text.tcon1_src_select
                0x4a030b18       0x28 drivers/built-in.o
                0x4a030b18                tcon1_src_select
 .text.tcon_gamma
                0x4a030b40       0x5c drivers/built-in.o
                0x4a030b40                tcon_gamma
 .text.tcon_cmap
                0x4a030b9c      0x150 drivers/built-in.o
                0x4a030b9c                tcon_cmap
 .text.tcon0_cfg_ext
                0x4a030cec       0x34 drivers/built-in.o
                0x4a030cec                tcon0_cfg_ext
 .text.de_enhance_set_format
                0x4a030d20        0x8 drivers/built-in.o
                0x4a030d20                de_enhance_set_format
 .text.de_enhance_apply
                0x4a030d28        0x8 drivers/built-in.o
                0x4a030d28                de_enhance_apply
 .text.de_enhance_set_size
                0x4a030d30        0x8 drivers/built-in.o
                0x4a030d30                de_enhance_set_size
 .text.de_enhance_sync
                0x4a030d38        0x8 drivers/built-in.o
                0x4a030d38                de_enhance_sync
 .text.de_enhance_tasklet
                0x4a030d40        0x8 drivers/built-in.o
                0x4a030d40                de_enhance_tasklet
 .text.de_enhance_update_regs
                0x4a030d48        0x8 drivers/built-in.o
                0x4a030d48                de_enhance_update_regs
 .text.de_enhance_init
                0x4a030d50        0x8 drivers/built-in.o
                0x4a030d50                de_enhance_init
 .text.de_smbl_update_regs
                0x4a030d58        0x8 drivers/built-in.o
                0x4a030d58                de_smbl_update_regs
 .text.de_smbl_tasklet
                0x4a030d60        0x8 drivers/built-in.o
                0x4a030d60                de_smbl_tasklet
 .text.de_smbl_apply
                0x4a030d68        0x8 drivers/built-in.o
                0x4a030d68                de_smbl_apply
 .text.de_smbl_init
                0x4a030d70        0x8 drivers/built-in.o
                0x4a030d70                de_smbl_init
 .text.de_smbl_get_status
                0x4a030d78        0x8 drivers/built-in.o
                0x4a030d78                de_smbl_get_status
 .text.de_ccsc_update_regs
                0x4a030d80       0xb0 drivers/built-in.o
                0x4a030d80                de_ccsc_update_regs
 .text.de_ccsc_init
                0x4a030e30      0x204 drivers/built-in.o
                0x4a030e30                de_ccsc_init
 .text.de_csc_coeff_calc
                0x4a031034     0x1994 drivers/built-in.o
                0x4a031034                de_csc_coeff_calc
 .text.de_ccsc_apply
                0x4a0329c8      0x184 drivers/built-in.o
                0x4a0329c8                de_ccsc_apply
 .text.de_dcsc_apply
                0x4a032b4c      0x214 drivers/built-in.o
                0x4a032b4c                de_dcsc_apply
 .text.de_dcsc_get_config
                0x4a032d60       0x28 drivers/built-in.o
                0x4a032d60                de_dcsc_get_config
 .text.de_dcsc_update_regs
                0x4a032d88       0xb4 drivers/built-in.o
                0x4a032d88                de_dcsc_update_regs
 .text.de_dcsc_init
                0x4a032e3c      0x174 drivers/built-in.o
                0x4a032e3c                de_dcsc_init
 .text.wb_ebios_init
                0x4a032fb0        0x8 drivers/built-in.o
                0x4a032fb0                wb_ebios_init
 .text.de_clk_enable
                0x4a032fb8      0x1a4 drivers/built-in.o
                0x4a032fb8                de_clk_enable
 .text.de_clk_disable
                0x4a03315c       0xec drivers/built-in.o
                0x4a03315c                de_clk_disable
 .text.de_clk_set_reg_base
                0x4a033248       0x14 drivers/built-in.o
                0x4a033248                de_clk_set_reg_base
 .text.hdmi_suspend
                0x4a03325c        0x8 drivers/built-in.o
 .text.hdmi_resume
                0x4a033264        0x8 drivers/built-in.o
 .text.hdmi_clk_disable
                0x4a03326c       0x3c drivers/built-in.o
 .text.hdmi_get_edid
                0x4a0332a8       0x18 drivers/built-in.o
 .text.hdmi_get_video_timming_info
                0x4a0332c0       0x58 drivers/built-in.o
 .text.hdmi_get_input_csc
                0x4a033318        0x4 drivers/built-in.o
 .text.hdmi_get_HPD_status
                0x4a03331c       0x10 drivers/built-in.o
 .text.hdmi_mode_support
                0x4a03332c       0x40 drivers/built-in.o
 .text.hdmi_disable
                0x4a03336c       0x44 drivers/built-in.o
 .text.hdmi_enable
                0x4a0333b0       0x90 drivers/built-in.o
 .text.hdmi_set_display_mode
                0x4a033440       0x64 drivers/built-in.o
 .text.hdmi_delay_ms
                0x4a0334a4        0x4 drivers/built-in.o
                0x4a0334a4                hdmi_delay_ms
 .text.hdmi_delay_us
                0x4a0334a8        0x4 drivers/built-in.o
                0x4a0334a8                hdmi_delay_us
 .text.hdmi_get_soc_version
                0x4a0334ac        0x8 drivers/built-in.o
                0x4a0334ac                hdmi_get_soc_version
 .text.hdmi_hpd_event
                0x4a0334b4        0x8 drivers/built-in.o
                0x4a0334b4                hdmi_hpd_event
 .text.hdmi_init
                0x4a0334bc      0x48c drivers/built-in.o
                0x4a0334bc                hdmi_init
 .text.hdmi_core_view_on
                0x4a033948       0x30 drivers/built-in.o
 .text.hdmi_core_initial
                0x4a033978      0x138 drivers/built-in.o
                0x4a033978                hdmi_core_initial
 .text.hdmi_core_set_base_addr
                0x4a033ab0        0x4 drivers/built-in.o
                0x4a033ab0                hdmi_core_set_base_addr
 .text.hdmi_core_hpd_check
                0x4a033ab4       0x1c drivers/built-in.o
                0x4a033ab4                hdmi_core_hpd_check
 .text.hdmi_core_get_video_info
                0x4a033ad0       0x48 drivers/built-in.o
                0x4a033ad0                hdmi_core_get_video_info
 .text.hdmi_core_set_hdcp_enable
                0x4a033b18       0x14 drivers/built-in.o
                0x4a033b18                hdmi_core_set_hdcp_enable
 .text.hdmi_core_set_cts_enable
                0x4a033b2c       0x14 drivers/built-in.o
                0x4a033b2c                hdmi_core_set_cts_enable
 .text.hdmi_core_get_csc_type
                0x4a033b40       0x94 drivers/built-in.o
                0x4a033b40                hdmi_core_get_csc_type
 .text.hdmi_core_set_video_mode
                0x4a033bd4       0x40 drivers/built-in.o
                0x4a033bd4                hdmi_core_set_video_mode
 .text.hdmi_core_set_video_enable
                0x4a033c14      0x138 drivers/built-in.o
                0x4a033c14                hdmi_core_set_video_enable
 .text.hdmi_core_loop
                0x4a033d4c      0x21c drivers/built-in.o
                0x4a033d4c                hdmi_core_loop
 .text.hdmi_core_get_list_num
                0x4a033f68        0x8 drivers/built-in.o
                0x4a033f68                hdmi_core_get_list_num
 .text.hdmi_core_mode_support
                0x4a033f70       0x20 drivers/built-in.o
                0x4a033f70                hdmi_core_mode_support
 .text.hdmi_core_cec_enable
                0x4a033f90       0x14 drivers/built-in.o
                0x4a033f90                hdmi_core_cec_enable
 .text.hdmi_core_update_detect_time
                0x4a033fa4       0x14 drivers/built-in.o
                0x4a033fa4                hdmi_core_update_detect_time
 .text.edid_parse_dtd_block
                0x4a033fb8      0x1d4 drivers/built-in.o
 .text.edid_check_special.constprop.1
                0x4a03418c       0x84 drivers/built-in.o
 .text.edid_read_data.constprop.2
                0x4a034210       0x34 drivers/built-in.o
 .text.hdmi_edid_parse
                0x4a034244      0x3f0 drivers/built-in.o
                0x4a034244                hdmi_edid_parse
 .text.hdmi_edid_is_hdmi
                0x4a034634       0x10 drivers/built-in.o
                0x4a034634                hdmi_edid_is_hdmi
 .text.hdmi_edid_is_yuv
                0x4a034644       0x10 drivers/built-in.o
                0x4a034644                hdmi_edid_is_yuv
 .text.hdmi_edid_get_data
                0x4a034654        0xc drivers/built-in.o
                0x4a034654                hdmi_edid_get_data
 .text.hdmi_write
                0x4a034660       0x18 drivers/built-in.o
 .text.hdmi_writel
                0x4a034678       0x18 drivers/built-in.o
 .text.hdmi_udelay
                0x4a034690       0x48 drivers/built-in.o
 .text.bsp_hdmi_inner_init
                0x4a0346d8      0x1bc drivers/built-in.o
 .text.hdmi_mdelay
                0x4a034894       0x48 drivers/built-in.o
 .text.hdmi_phy_init.isra.2
                0x4a0348dc      0x264 drivers/built-in.o
 .text.bsp_hdmi_set_func
                0x4a034b40       0x30 drivers/built-in.o
                0x4a034b40                bsp_hdmi_set_func
 .text.bsp_hdmi_set_bias_source
                0x4a034b70       0x14 drivers/built-in.o
                0x4a034b70                bsp_hdmi_set_bias_source
 .text.bsp_hdmi_set_version
                0x4a034b84       0x10 drivers/built-in.o
                0x4a034b84                bsp_hdmi_set_version
 .text.bsp_hdmi_set_addr
                0x4a034b94       0x20 drivers/built-in.o
                0x4a034b94                bsp_hdmi_set_addr
 .text.bsp_hdmi_init
                0x4a034bb4       0x10 drivers/built-in.o
                0x4a034bb4                bsp_hdmi_init
 .text.bsp_hdmi_set_video_en
                0x4a034bc4       0x2c drivers/built-in.o
                0x4a034bc4                bsp_hdmi_set_video_en
 .text.bsp_hdmi_video
                0x4a034bf0      0x974 drivers/built-in.o
                0x4a034bf0                bsp_hdmi_video
 .text.bsp_hdmi_ddc_read
                0x4a035564      0x1ec drivers/built-in.o
                0x4a035564                bsp_hdmi_ddc_read
 .text.bsp_hdmi_get_hpd
                0x4a035750       0xa8 drivers/built-in.o
                0x4a035750                bsp_hdmi_get_hpd
 .text.bsp_hdmi_standby
                0x4a0357f8       0x28 drivers/built-in.o
                0x4a0357f8                bsp_hdmi_standby
 .text.bsp_hdmi_hrst
                0x4a035820       0x20 drivers/built-in.o
                0x4a035820                bsp_hdmi_hrst
 .text.bsp_hdmi_hdl
                0x4a035840        0x4 drivers/built-in.o
                0x4a035840                bsp_hdmi_hdl
 .text.bsp_hdmi_cec_send
                0x4a035844      0x138 drivers/built-in.o
                0x4a035844                bsp_hdmi_cec_send
 .text.bsp_hdmi_cec_free_time_set
                0x4a03597c       0xc0 drivers/built-in.o
                0x4a03597c                bsp_hdmi_cec_free_time_set
 .text.tv_get_input_csc
                0x4a035a3c       0x28 drivers/built-in.o
                0x4a035a3c                tv_get_input_csc
 .text.tv_hot_plugging_detect
                0x4a035a64       0x24 drivers/built-in.o
                0x4a035a64                tv_hot_plugging_detect
 .text.tve_clk_enable
                0x4a035a88       0x40 drivers/built-in.o
 .text.__pin_config
                0x4a035ac8       0x6c drivers/built-in.o
 .text.tve_clk_config
                0x4a035b34      0x15c drivers/built-in.o
 .text.tv_get_hpd_status
                0x4a035c90        0x4 drivers/built-in.o
                0x4a035c90                tv_get_hpd_status
 .text.tv_set_enhance_mode
                0x4a035c94        0x4 drivers/built-in.o
                0x4a035c94                tv_set_enhance_mode
 .text.tv_set_mode
                0x4a035c98       0x4c drivers/built-in.o
                0x4a035c98                tv_set_mode
 .text.tv_get_mode
                0x4a035ce4       0x38 drivers/built-in.o
                0x4a035ce4                tv_get_mode
 .text.tv_disable
                0x4a035d1c       0x74 drivers/built-in.o
                0x4a035d1c                tv_disable
 .text.tv_mode_support
                0x4a035d90       0x60 drivers/built-in.o
                0x4a035d90                tv_mode_support
 .text.tv_enable
                0x4a035df0       0x9c drivers/built-in.o
                0x4a035df0                tv_enable
 .text.tv_get_video_timing_info
                0x4a035e8c       0x70 drivers/built-in.o
                0x4a035e8c                tv_get_video_timing_info
 .text.tv_detect_enable
                0x4a035efc       0x1c drivers/built-in.o
                0x4a035efc                tv_detect_enable
 .text.tv_resume
                0x4a035f18       0xb0 drivers/built-in.o
                0x4a035f18                tv_resume
 .text.tv_detect_disable
                0x4a035fc8       0x1c drivers/built-in.o
                0x4a035fc8                tv_detect_disable
 .text.tv_suspend
                0x4a035fe4       0x70 drivers/built-in.o
                0x4a035fe4                tv_suspend
 .text.tv_init  0x4a036054      0x328 drivers/built-in.o
                0x4a036054                tv_init
 .text.tve_low_set_reg_base
                0x4a03637c       0x18 drivers/built-in.o
                0x4a03637c                tve_low_set_reg_base
 .text.tve_low_init
                0x4a036394       0x4c drivers/built-in.o
                0x4a036394                tve_low_init
 .text.tve_low_dac_enable
                0x4a0363e0       0x20 drivers/built-in.o
                0x4a0363e0                tve_low_dac_enable
 .text.tve_low_open
                0x4a036400       0x24 drivers/built-in.o
                0x4a036400                tve_low_open
 .text.tve_low_close
                0x4a036424       0x24 drivers/built-in.o
                0x4a036424                tve_low_close
 .text.tve_low_set_tv_mode
                0x4a036448      0x334 drivers/built-in.o
                0x4a036448                tve_low_set_tv_mode
 .text.tve_low_get_dac_status
                0x4a03677c       0x18 drivers/built-in.o
                0x4a03677c                tve_low_get_dac_status
 .text.tve_low_dac_autocheck_enable
                0x4a036794       0x38 drivers/built-in.o
                0x4a036794                tve_low_dac_autocheck_enable
 .text.tve_low_dac_autocheck_disable
                0x4a0367cc       0x1c drivers/built-in.o
                0x4a0367cc                tve_low_dac_autocheck_disable
 .text.tve_low_enhance
                0x4a0367e8       0x94 drivers/built-in.o
                0x4a0367e8                tve_low_enhance
 .text.tve_low_get_sid
                0x4a03687c       0x2c drivers/built-in.o
                0x4a03687c                tve_low_get_sid
 .text.sunxi_arisc_probe
                0x4a0368a8      0x5d8 drivers/built-in.o
                0x4a0368a8                sunxi_arisc_probe
 .text.sunxi_arisc_fake_poweroff
                0x4a036e80       0x10 drivers/built-in.o
                0x4a036e80                sunxi_arisc_fake_poweroff
 .text.sunxi_clk_fators_is_enabled
                0x4a036e90       0x28 drivers/clk/built-in.o
 .text.sunxi_clk_factors_recalc_rate
                0x4a036eb8      0x160 drivers/clk/built-in.o
 .text.sunxi_clk_factors_round_rate
                0x4a037018       0x50 drivers/clk/built-in.o
 .text.sunxi_clk_is_lock
                0x4a037068      0x190 drivers/clk/built-in.o
 .text.sunxi_clk_disable_plllock
                0x4a0371f8       0x8c drivers/clk/built-in.o
 .text.sunxi_clk_fators_disable
                0x4a037284       0x94 drivers/clk/built-in.o
 .text.sunxi_clk_factors_set_rate
                0x4a037318      0x22c drivers/clk/built-in.o
 .text.sunxi_clk_fators_enable
                0x4a037544       0xd4 drivers/clk/built-in.o
 .text.sunxi_clk_register_factors
                0x4a037618      0x120 drivers/clk/built-in.o
                0x4a037618                sunxi_clk_register_factors
 .text.sunxi_clk_com_ftr_sr
                0x4a037738      0x1a0 drivers/clk/built-in.o
                0x4a037738                sunxi_clk_com_ftr_sr
 .text.sunxi_clk_periph_get_parent
                0x4a0378d8       0x40 drivers/clk/built-in.o
 .text.sunxi_clk_periph_is_enabled
                0x4a037918       0x8c drivers/clk/built-in.o
 .text.sunxi_clk_periph_set_rate
                0x4a0379a4       0xf0 drivers/clk/built-in.o
 .text.sunxi_clk_periph_round_rate
                0x4a037a94       0xa0 drivers/clk/built-in.o
 .text.sunxi_clk_periph_recalc_rate
                0x4a037b34       0xa8 drivers/clk/built-in.o
 .text.sunxi_clk_periph_set_parent
                0x4a037bdc       0x4c drivers/clk/built-in.o
 .text.sunxi_clk_periph_enable
                0x4a037c28      0x278 drivers/clk/built-in.o
 .text.sunxi_clk_periph_disable
                0x4a037ea0      0x244 drivers/clk/built-in.o
 .text.sunxi_clk_register_periph
                0x4a0380e4       0xc8 drivers/clk/built-in.o
                0x4a0380e4                sunxi_clk_register_periph
 .text.__clk_disable
                0x4a0381ac       0x4c drivers/clk/built-in.o
 .text.__clk_enable
                0x4a0381f8       0x94 drivers/clk/built-in.o
 .text.__clk_lookup
                0x4a03828c       0x58 drivers/clk/built-in.o
                0x4a03828c                __clk_lookup
 .text.__clk_init
                0x4a0382e4      0x2bc drivers/clk/built-in.o
                0x4a0382e4                __clk_init
 .text.clk_disable
                0x4a0385a0       0x20 drivers/clk/built-in.o
                0x4a0385a0                clk_disable
 .text.clk_prepare_enable
                0x4a0385c0       0x14 drivers/clk/built-in.o
                0x4a0385c0                clk_prepare_enable
 .text.clk_round_rate
                0x4a0385d4       0x48 drivers/clk/built-in.o
                0x4a0385d4                clk_round_rate
 .text.clk_get_parent
                0x4a03861c        0xc drivers/clk/built-in.o
                0x4a03861c                clk_get_parent
 .text.clk_set_parent
                0x4a038628      0x1d0 drivers/clk/built-in.o
                0x4a038628                clk_set_parent
 .text.clk_get_rate
                0x4a0387f8        0xc drivers/clk/built-in.o
                0x4a0387f8                clk_get_rate
 .text.clk_set_rate
                0x4a038804       0xdc drivers/clk/built-in.o
                0x4a038804                clk_set_rate
 .text.clk_put  0x4a0388e0        0x4 drivers/clk/built-in.o
                0x4a0388e0                clk_put
 .text.clk_init
                0x4a0388e4        0x4 drivers/clk/built-in.o
                0x4a0388e4                clk_init
 .text.clk_register
                0x4a0388e8       0x94 drivers/clk/built-in.o
                0x4a0388e8                clk_register
 .text.of_pll_clk_config_setup
                0x4a03897c      0x168 drivers/clk/built-in.o
                0x4a03897c                of_pll_clk_config_setup
 .text.of_periph_clk_config_setup
                0x4a038ae4      0x214 drivers/clk/built-in.o
                0x4a038ae4                of_periph_clk_config_setup
 .text.of_clk_get
                0x4a038cf8      0x118 drivers/clk/built-in.o
                0x4a038cf8                of_clk_get
 .text.clk_fixed_rate_recalc_rate
                0x4a038e10        0x8 drivers/clk/built-in.o
 .text.clk_register_fixed_rate
                0x4a038e18       0xc0 drivers/clk/built-in.o
                0x4a038e18                clk_register_fixed_rate
 .text.get_factors_pll_audio
                0x4a038ed8       0x4c drivers/clk/built-in.o
 .text.calc_rate_pll_periph
                0x4a038f24       0x2c drivers/clk/built-in.o
 .text.calc_rate_pll_ddr
                0x4a038f50       0x84 drivers/clk/built-in.o
 .text.calc_rate_media
                0x4a038fd4       0xac drivers/clk/built-in.o
 .text.calc_rate_pll_audio
                0x4a039080       0xdc drivers/clk/built-in.o
 .text.calc_rate_pll_cpu
                0x4a03915c       0x8c drivers/clk/built-in.o
 .text.get_factors_pll_de
                0x4a0391e8       0xac drivers/clk/built-in.o
 .text.get_factors_pll_gpu
                0x4a039294       0xac drivers/clk/built-in.o
 .text.get_factors_pll_periph1
                0x4a039340       0x60 drivers/clk/built-in.o
 .text.get_factors_pll_periph0
                0x4a0393a0       0x60 drivers/clk/built-in.o
 .text.get_factors_pll_ddr
                0x4a039400       0x60 drivers/clk/built-in.o
 .text.get_factors_pll_ve
                0x4a039460       0xac drivers/clk/built-in.o
 .text.get_factors_pll_video
                0x4a03950c       0xac drivers/clk/built-in.o
 .text.get_factors_pll_cpu
                0x4a0395b8       0x60 drivers/clk/built-in.o
 .text.sunxi_clk_factor_initlimits
                0x4a039618       0xc4 drivers/clk/built-in.o
                0x4a039618                sunxi_clk_factor_initlimits
 .text.init_clocks
                0x4a0396dc       0xe4 drivers/clk/built-in.o
                0x4a0396dc                init_clocks
 .text.sunxi_dma_int_func
                0x4a0397c0       0xbc drivers/dma/built-in.o
 .text.sunxi_dma_init
                0x4a03987c       0xb8 drivers/dma/built-in.o
                0x4a03987c                sunxi_dma_init
 .text.sunxi_dma_request
                0x4a039934       0x48 drivers/dma/built-in.o
                0x4a039934                sunxi_dma_request
 .text.sunxi_dma_setting
                0x4a03997c       0x58 drivers/dma/built-in.o
                0x4a03997c                sunxi_dma_setting
 .text.sunxi_dma_start
                0x4a0399d4       0x40 drivers/dma/built-in.o
                0x4a0399d4                sunxi_dma_start
 .text.sunxi_dma_disable_int
                0x4a039a14       0xac drivers/dma/built-in.o
                0x4a039a14                sunxi_dma_disable_int
 .text.sunxi_dma_free_int
                0x4a039ac0       0x58 drivers/dma/built-in.o
                0x4a039ac0                sunxi_dma_free_int
 .text.sunxi_dma_release
                0x4a039b18       0x3c drivers/dma/built-in.o
                0x4a039b18                sunxi_dma_release
 .text.sunxi_dma_exit
                0x4a039b54       0x9c drivers/dma/built-in.o
                0x4a039b54                sunxi_dma_exit
 .text.sunxi_i2c_io_null
                0x4a039bf0        0x8 drivers/i2c/built-in.o
 .text.sunxi_i2c_write_secos
                0x4a039bf8        0xc drivers/i2c/built-in.o
 .text.sunxi_i2c_read_secos
                0x4a039c04       0x1c drivers/i2c/built-in.o
 .text.i2c_read
                0x4a039c20       0x20 drivers/i2c/built-in.o
                0x4a039c20                i2c_read
 .text.i2c_write
                0x4a039c40       0x20 drivers/i2c/built-in.o
                0x4a039c40                i2c_write
 .text.i2c_init
                0x4a039c60       0x58 drivers/i2c/built-in.o
                0x4a039c60                i2c_init
 .text.mmc_set_ios
                0x4a039cb8      0x140 drivers/mmc/built-in.o
 .text._mmc_life_time_est
                0x4a039df8       0xc8 drivers/mmc/built-in.o
 .text.mmc_mmc_parse_health_report
                0x4a039ec0      0x1b0 drivers/mmc/built-in.o
 .text.board_mmc_getwp
                0x4a03a070        0x8 drivers/mmc/built-in.o
                0x4a03a070                board_mmc_getwp
 .text.mmc_getwp
                0x4a03a078       0x3c drivers/mmc/built-in.o
                0x4a03a078                mmc_getwp
 .text.__board_mmc_getcd
                0x4a03a0b4        0x8 drivers/mmc/built-in.o
                0x4a03a0b4                __board_mmc_getcd
                0x4a03a0b4                board_mmc_getcd
 .text.mmc_send_cmd
                0x4a03a0bc      0xb20 drivers/mmc/built-in.o
                0x4a03a0bc                mmc_send_cmd
 .text.mmc_go_idle
                0x4a03abdc       0x60 drivers/mmc/built-in.o
 .text.mmc_send_if_cond
                0x4a03ac3c       0x90 drivers/mmc/built-in.o
 .text.sd_send_op_cond
                0x4a03accc      0x118 drivers/mmc/built-in.o
 .text.mmc_send_op_cond_iter
                0x4a03ade4       0x98 drivers/mmc/built-in.o
 .text.sd_switch.constprop.6
                0x4a03ae7c       0x60 drivers/mmc/built-in.o
 .text.mmc_send_status
                0x4a03aedc      0x104 drivers/mmc/built-in.o
                0x4a03aedc                mmc_send_status
 .text.mmc_set_blocklen
                0x4a03afe0       0x4c drivers/mmc/built-in.o
                0x4a03afe0                mmc_set_blocklen
 .text.mmc_send_manual_stop
                0x4a03b02c       0x60 drivers/mmc/built-in.o
                0x4a03b02c                mmc_send_manual_stop
 .text.find_mmc_device
                0x4a03b08c       0x44 drivers/mmc/built-in.o
                0x4a03b08c                find_mmc_device
 .text.mmc_bread
                0x4a03b0d0      0x1f0 drivers/mmc/built-in.o
                0x4a03b0d0                mmc_bread
 .text.mmc_send_op_cond
                0x4a03b2c0       0xb0 drivers/mmc/built-in.o
                0x4a03b2c0                mmc_send_op_cond
 .text.mmc_complete_op_cond
                0x4a03b370       0xb4 drivers/mmc/built-in.o
                0x4a03b370                mmc_complete_op_cond
 .text.mmc_send_ext_csd
                0x4a03b424       0x68 drivers/mmc/built-in.o
                0x4a03b424                mmc_send_ext_csd
 .text.mmc_decode_ext_csd
                0x4a03b48c      0x164 drivers/mmc/built-in.o
                0x4a03b48c                mmc_decode_ext_csd
 .text.mmc_update_phase
                0x4a03b5f0       0x44 drivers/mmc/built-in.o
                0x4a03b5f0                mmc_update_phase
 .text.mmc_do_switch
                0x4a03b634       0x9c drivers/mmc/built-in.o
                0x4a03b634                mmc_do_switch
 .text.mmc_switch.constprop.7
                0x4a03b6d0       0x24 drivers/mmc/built-in.o
 .text.mmc_mmc_switch_to_ds
                0x4a03b6f4       0xbc drivers/mmc/built-in.o
                0x4a03b6f4                mmc_mmc_switch_to_ds
 .text.mmc_mmc_switch_to_hs
                0x4a03b7b0       0xcc drivers/mmc/built-in.o
                0x4a03b7b0                mmc_mmc_switch_to_hs
 .text.mmc_mmc_switch_to_hs200
                0x4a03b87c       0xcc drivers/mmc/built-in.o
                0x4a03b87c                mmc_mmc_switch_to_hs200
 .text.mmc_mmc_switch_to_hs400
                0x4a03b948       0xcc drivers/mmc/built-in.o
                0x4a03b948                mmc_mmc_switch_to_hs400
 .text.mmc_mmc_switch_speed_mode
                0x4a03ba14       0x58 drivers/mmc/built-in.o
                0x4a03ba14                mmc_mmc_switch_speed_mode
 .text.mmc_mmc_switch_bus_width
                0x4a03ba6c      0x178 drivers/mmc/built-in.o
                0x4a03ba6c                mmc_mmc_switch_bus_width
 .text.mmc_mmc_switch_bus_mode
                0x4a03bbe4       0x84 drivers/mmc/built-in.o
                0x4a03bbe4                mmc_mmc_switch_bus_mode
 .text.mmc_getcd
                0x4a03bc68       0x3c drivers/mmc/built-in.o
                0x4a03bc68                mmc_getcd
 .text.mmc_set_clock
                0x4a03bca4       0x24 drivers/mmc/built-in.o
                0x4a03bca4                mmc_set_clock
 .text.mmc_startup
                0x4a03bcc8     0x1190 drivers/mmc/built-in.o
 .text.mmc_switch_boot_bus_cond
                0x4a03ce58       0xc4 drivers/mmc/built-in.o
                0x4a03ce58                mmc_switch_boot_bus_cond
 .text.mmc_switch_boot_part
                0x4a03cf1c       0xb4 drivers/mmc/built-in.o
                0x4a03cf1c                mmc_switch_boot_part
 .text.mmc_switch_part
                0x4a03cfd0       0xb4 drivers/mmc/built-in.o
                0x4a03cfd0                mmc_switch_part
 .text.mmc_select_hwpart
                0x4a03d084       0x68 drivers/mmc/built-in.o
                0x4a03d084                mmc_select_hwpart
 .text.mmc_create
                0x4a03d0ec      0x10c drivers/mmc/built-in.o
                0x4a03d0ec                mmc_create
 .text.mmc_start_init
                0x4a03d1f8      0x228 drivers/mmc/built-in.o
                0x4a03d1f8                mmc_start_init
 .text.mmc_init_boot
                0x4a03d420      0x7f0 drivers/mmc/built-in.o
                0x4a03d420                mmc_init_boot
 .text.mmc_init_product
                0x4a03dc10      0x244 drivers/mmc/built-in.o
                0x4a03dc10                mmc_init_product
 .text.mmc_init
                0x4a03de54       0x84 drivers/mmc/built-in.o
                0x4a03de54                mmc_init
 .text.mmc_get_dev
                0x4a03ded8       0x28 drivers/mmc/built-in.o
                0x4a03ded8                mmc_get_dev
 .text.mmc_set_dsr
                0x4a03df00        0xc drivers/mmc/built-in.o
                0x4a03df00                mmc_set_dsr
 .text.__def_mmc_init
                0x4a03df0c        0x8 drivers/mmc/built-in.o
                0x4a03df0c                cpu_mmc_init
 .text.print_mmc_devices
                0x4a03df14       0x68 drivers/mmc/built-in.o
                0x4a03df14                print_mmc_devices
 .text.get_mmc_num
                0x4a03df7c       0x10 drivers/mmc/built-in.o
                0x4a03df7c                get_mmc_num
 .text.mmc_initialize
                0x4a03df8c       0x6c drivers/mmc/built-in.o
                0x4a03df8c                mmc_initialize
 .text.mmc_exit
                0x4a03dff8      0x14c drivers/mmc/built-in.o
                0x4a03dff8                mmc_exit
 .text.dumphex32
                0x4a03e144        0x4 drivers/mmc/built-in.o
                0x4a03e144                dumphex32
 .text.sunxi_mmc_init
                0x4a03e148     0x16a4 drivers/mmc/built-in.o
                0x4a03e160                sunxi_mmc_init
 .text.mmc_set_erase_start_addr
                0x4a03f7ec       0x80 drivers/mmc/built-in.o
                0x4a03f7ec                mmc_set_erase_start_addr
 .text.mmc_set_erase_end_addr
                0x4a03f86c       0x80 drivers/mmc/built-in.o
                0x4a03f86c                mmc_set_erase_end_addr
 .text.mmc_launch_erase
                0x4a03f8ec       0x34 drivers/mmc/built-in.o
                0x4a03f8ec                mmc_launch_erase
 .text.mmc_mmc_def_erase_timeout
                0x4a03f920       0xc4 drivers/mmc/built-in.o
                0x4a03f920                mmc_mmc_def_erase_timeout
 .text.mmc_mmc_update_timeout
                0x4a03f9e4       0xec drivers/mmc/built-in.o
                0x4a03f9e4                mmc_mmc_update_timeout
 .text.mmc_mmc_erase_timeout
                0x4a03fad0       0xbc drivers/mmc/built-in.o
                0x4a03fad0                mmc_mmc_erase_timeout
 .text.mmc_erase_timeout
                0x4a03fb8c       0x18 drivers/mmc/built-in.o
                0x4a03fb8c                mmc_erase_timeout
 .text.mmc_do_erase
                0x4a03fba4       0xcc drivers/mmc/built-in.o
                0x4a03fba4                mmc_do_erase
 .text.mmc_erase_group_aligned
                0x4a03fc70       0x4c drivers/mmc/built-in.o
                0x4a03fc70                mmc_erase_group_aligned
 .text.mmc_align_erase_group
                0x4a03fcbc       0x7c drivers/mmc/built-in.o
                0x4a03fcbc                mmc_align_erase_group
 .text.mmc_erase
                0x4a03fd38      0x120 drivers/mmc/built-in.o
                0x4a03fd38                mmc_erase
 .text.mmc_do_sanitize
                0x4a03fe58       0x60 drivers/mmc/built-in.o
                0x4a03fe58                mmc_do_sanitize
 .text.mmc_add_skip_space
                0x4a03feb8       0x28 drivers/mmc/built-in.o
                0x4a03feb8                mmc_add_skip_space
 .text.mmc_insecure_secure_erase
                0x4a03fee0      0x134 drivers/mmc/built-in.o
                0x4a03fee0                mmc_insecure_secure_erase
 .text.mmc_do_secure_wipe
                0x4a040014      0x258 drivers/mmc/built-in.o
                0x4a040014                mmc_do_secure_wipe
 .text.mmc_secure_wipe
                0x4a04026c       0xe0 drivers/mmc/built-in.o
                0x4a04026c                mmc_secure_wipe
 .text.mmc_mmc_erase
                0x4a04034c      0x194 drivers/mmc/built-in.o
                0x4a04034c                mmc_mmc_erase
 .text.mmc_mmc_sanitize
                0x4a0404e0       0x6c drivers/mmc/built-in.o
                0x4a0404e0                mmc_mmc_sanitize
 .text.mmc_mmc_trim
                0x4a04054c       0xf0 drivers/mmc/built-in.o
                0x4a04054c                mmc_mmc_trim
 .text.mmc_mmc_discard
                0x4a04063c       0xf8 drivers/mmc/built-in.o
                0x4a04063c                mmc_mmc_discard
 .text.mmc_mmc_secure_erase
                0x4a040734       0xf4 drivers/mmc/built-in.o
                0x4a040734                mmc_mmc_secure_erase
 .text.mmc_mmc_secure_trim
                0x4a040828       0xf8 drivers/mmc/built-in.o
                0x4a040828                mmc_mmc_secure_trim
 .text.mmc_bwrite
                0x4a040920      0x198 drivers/mmc/built-in.o
                0x4a040920                mmc_bwrite
 .text.mmc_berase
                0x4a040ab8       0xb0 drivers/mmc/built-in.o
                0x4a040ab8                mmc_berase
 .text.check_secure_area
                0x4a040b68       0x94 drivers/mmc/built-in.o
 .text.get_sdmmc_secure_storage_max_item
                0x4a040bfc        0x8 drivers/mmc/built-in.o
 .text.mmc_mmc_sanitize_secure
                0x4a040c04        0x4 drivers/mmc/built-in.o
 .text.sdmmc_secure_storage_write
                0x4a040c08       0xb4 drivers/mmc/built-in.o
 .text.sdmmc_secure_storage_read
                0x4a040cbc      0x17c drivers/mmc/built-in.o
 .text.mmc_do_burn_boot
                0x4a040e38       0xd8 drivers/mmc/built-in.o
 .text.mmc_mmc_secure_trim_secure
                0x4a040f10       0x70 drivers/mmc/built-in.o
 .text.mmc_mmc_secure_erase_secure
                0x4a040f80       0x78 drivers/mmc/built-in.o
 .text.mmc_mmc_discard_secure
                0x4a040ff8       0x70 drivers/mmc/built-in.o
 .text.mmc_mmc_trim_secure
                0x4a041068       0x70 drivers/mmc/built-in.o
 .text.mmc_mmc_erase_secure
                0x4a0410d8       0x78 drivers/mmc/built-in.o
 .text.mmc_secure_wipe_secure
                0x4a041150       0x78 drivers/mmc/built-in.o
 .text.mmc_bwrite_secure
                0x4a0411c8       0x78 drivers/mmc/built-in.o
 .text.sdmmc_secure_storage_read_backup
                0x4a041240       0x90 drivers/mmc/built-in.o
 .text.mmc_bread_secure
                0x4a0412d0       0x78 drivers/mmc/built-in.o
 .text.mmc_bwrite_mass_pro_secure
                0x4a041348      0x234 drivers/mmc/built-in.o
 .text.mmc_bread_mass_pro_secure
                0x4a04157c      0x190 drivers/mmc/built-in.o
 .text.mmc_berase_secure
                0x4a04170c       0x70 drivers/mmc/built-in.o
 .text.mmc_init_blk_ops
                0x4a04177c       0xc8 drivers/mmc/built-in.o
                0x4a04177c                mmc_init_blk_ops
 .text._skip_curr_freq
                0x4a041844       0xac drivers/mmc/built-in.o
 .text._get_best_sdly
                0x4a0418f0      0x1d8 drivers/mmc/built-in.o
 .text.gen_pat_bus4_1bit
                0x4a041ac8       0xc4 drivers/mmc/built-in.o
                0x4a041ac8                gen_pat_bus4_1bit
 .text.gen_pat_bus8_1bit
                0x4a041b8c       0xa4 drivers/mmc/built-in.o
                0x4a041b8c                gen_pat_bus8_1bit
 .text.gen_tuning_blk_bus8
                0x4a041c30      0x11c drivers/mmc/built-in.o
                0x4a041c30                gen_tuning_blk_bus8
 .text.gen_tuning_blk_bus4
                0x4a041d4c      0x10c drivers/mmc/built-in.o
                0x4a041d4c                gen_tuning_blk_bus4
 .text.sunxi_mmc_tuning_init
                0x4a041e58       0xc4 drivers/mmc/built-in.o
                0x4a041e58                sunxi_mmc_tuning_init
 .text.sunxi_mmc_tuning_exit
                0x4a041f1c       0x34 drivers/mmc/built-in.o
                0x4a041f1c                sunxi_mmc_tuning_exit
 .text.sunxi_select_freq
                0x4a041f50       0xec drivers/mmc/built-in.o
                0x4a041f50                sunxi_select_freq
 .text.sunxi_need_rty
                0x4a04203c       0x6c drivers/mmc/built-in.o
                0x4a04203c                sunxi_need_rty
 .text.write_tuning_try_freq
                0x4a0420a8      0x234 drivers/mmc/built-in.o
                0x4a0420a8                write_tuning_try_freq
 .text.sunxi_write_tuning
                0x4a0422dc       0x84 drivers/mmc/built-in.o
                0x4a0422dc                sunxi_write_tuning
 .text.sunxi_execute_tuning
                0x4a042360      0xa30 drivers/mmc/built-in.o
                0x4a042360                sunxi_execute_tuning
 .text.sunxi_pack_tuning_result
                0x4a042d90      0x164 drivers/mmc/built-in.o
                0x4a042d90                sunxi_pack_tuning_result
 .text.sunxi_bus_tuning
                0x4a042ef4      0x174 drivers/mmc/built-in.o
                0x4a042ef4                sunxi_bus_tuning
 .text.sunxi_switch_to_best_bus
                0x4a043068      0x314 drivers/mmc/built-in.o
                0x4a043068                sunxi_switch_to_best_bus
 .text.mmc_write_info
                0x4a04337c      0x108 drivers/mmc/built-in.o
                0x4a04337c                mmc_write_info
 .text.mmc_ddr_mode_onoff
                0x4a043484       0x20 drivers/mmc/built-in.o
 .text.mmc_hs400_mode_onoff
                0x4a0434a4       0x2c drivers/mmc/built-in.o
 .text.sunxi_detail_errno
                0x4a0434d0       0x14 drivers/mmc/built-in.o
 .text.sunxi_decide_rty
                0x4a0434e4      0x188 drivers/mmc/built-in.o
 .text.mmc_update_clk
                0x4a04366c       0x9c drivers/mmc/built-in.o
 .text.mmc_get_mclk
                0x4a043708       0x78 drivers/mmc/built-in.o
 .text.mmc_config_clock_modex
                0x4a043780      0x46c drivers/mmc/built-in.o
 .text.mmc_core_init
                0x4a043bec      0x22c drivers/mmc/built-in.o
 .text.mmc_dump_errinfo
                0x4a043e18      0x128 drivers/mmc/built-in.o
                0x4a043e18                mmc_dump_errinfo
 .text.mmc_clk_io_onoff
                0x4a043f40       0xd8 drivers/mmc/built-in.o
                0x4a043f40                mmc_clk_io_onoff
 .text.axpnull_set_coulombmeter_onoff
                0x4a044018        0x8 drivers/power/built-in.o
                0x4a044018                axpnull_set_coulombmeter_onoff
 .text.axpnull_set_charge_control
                0x4a044020        0x8 drivers/power/built-in.o
                0x4a044020                axpnull_set_charge_control
 .text.axpnull_probe_battery_ratio
                0x4a044028        0x8 drivers/power/built-in.o
                0x4a044028                axpnull_probe_battery_ratio
 .text.axpnull_probe_power_status
                0x4a044030        0x8 drivers/power/built-in.o
                0x4a044030                axpnull_probe_power_status
 .text.axpnull_probe_battery_exist
                0x4a044038        0x8 drivers/power/built-in.o
                0x4a044038                axpnull_probe_battery_exist
 .text.axpnull_probe_battery_vol
                0x4a044040        0x8 drivers/power/built-in.o
                0x4a044040                axpnull_probe_battery_vol
 .text.axpnull_probe_key
                0x4a044048        0x8 drivers/power/built-in.o
                0x4a044048                axpnull_probe_key
 .text.axpnull_probe_pre_sys_mode
                0x4a044050        0x8 drivers/power/built-in.o
                0x4a044050                axpnull_probe_pre_sys_mode
 .text.axpnull_set_next_sys_mode
                0x4a044058        0x8 drivers/power/built-in.o
                0x4a044058                axpnull_set_next_sys_mode
 .text.axpnull_probe_this_poweron_cause
                0x4a044060        0x8 drivers/power/built-in.o
                0x4a044060                axpnull_probe_this_poweron_cause
 .text.axpnull_set_power_off
                0x4a044068        0x8 drivers/power/built-in.o
                0x4a044068                axpnull_set_power_off
 .text.axpnull_set_power_onoff_vol
                0x4a044070        0x8 drivers/power/built-in.o
                0x4a044070                axpnull_set_power_onoff_vol
 .text.axpnull_set_charge_current
                0x4a044078        0x8 drivers/power/built-in.o
                0x4a044078                axpnull_set_charge_current
 .text.axpnull_probe_charge_current
                0x4a044080        0x8 drivers/power/built-in.o
                0x4a044080                axpnull_probe_charge_current
 .text.axpnull_set_vbus_cur_limit
                0x4a044088        0x8 drivers/power/built-in.o
                0x4a044088                axpnull_set_vbus_cur_limit
 .text.axpnull_set_vbus_vol_limit
                0x4a044090        0x8 drivers/power/built-in.o
                0x4a044090                axpnull_set_vbus_vol_limit
 .text.axpnull_probe_int_pending
                0x4a044098        0x8 drivers/power/built-in.o
                0x4a044098                axpnull_probe_int_pending
 .text.axpnull_probe_int_enable
                0x4a0440a0        0x8 drivers/power/built-in.o
                0x4a0440a0                axpnull_probe_int_enable
 .text.axpnull_set_int_enable
                0x4a0440a8        0x8 drivers/power/built-in.o
                0x4a0440a8                axpnull_set_int_enable
 .text.axpnull_probe_vbus_cur_limit
                0x4a0440b0        0x8 drivers/power/built-in.o
                0x4a0440b0                axpnull_probe_vbus_cur_limit
 .text.axpnull_set_supply_status
                0x4a0440b8        0x8 drivers/power/built-in.o
                0x4a0440b8                axpnull_set_supply_status
 .text.axpnull_set_supply_status_byname
                0x4a0440c0        0x8 drivers/power/built-in.o
                0x4a0440c0                axpnull_set_supply_status_byname
 .text.axpnull_probe_supply_status
                0x4a0440c8        0x8 drivers/power/built-in.o
                0x4a0440c8                axpnull_probe_supply_status
 .text.axpnull_probe_supply_status_byname
                0x4a0440d0        0x8 drivers/power/built-in.o
                0x4a0440d0                axpnull_probe_supply_status_byname
 .text.axp_probe
                0x4a0440d8       0x54 drivers/power/built-in.o
                0x4a0440d8                axp_probe
 .text.axp_reinit
                0x4a04412c       0x74 drivers/power/built-in.o
                0x4a04412c                axp_reinit
 .text.axp_probe_startup_cause
                0x4a0441a0       0x1c drivers/power/built-in.o
                0x4a0441a0                axp_probe_startup_cause
 .text.axp_set_hardware_poweron_vol
                0x4a0441bc       0x54 drivers/power/built-in.o
                0x4a0441bc                axp_set_hardware_poweron_vol
 .text.axp_set_hardware_poweroff_vol
                0x4a044210       0x54 drivers/power/built-in.o
                0x4a044210                axp_set_hardware_poweroff_vol
 .text.axp_set_power_off
                0x4a044264       0x1c drivers/power/built-in.o
                0x4a044264                axp_set_power_off
 .text.axp_probe_factory_mode
                0x4a044280       0xac drivers/power/built-in.o
                0x4a044280                axp_probe_factory_mode
 .text.axp_set_next_poweron_status
                0x4a04432c       0x1c drivers/power/built-in.o
                0x4a04432c                axp_set_next_poweron_status
 .text.axp_probe_pre_sys_mode
                0x4a044348       0x1c drivers/power/built-in.o
                0x4a044348                axp_probe_pre_sys_mode
 .text.axp_probe_battery_exist
                0x4a044364       0x1c drivers/power/built-in.o
                0x4a044364                axp_probe_battery_exist
 .text.axp_probe_power_source
                0x4a044380       0x1c drivers/power/built-in.o
                0x4a044380                axp_probe_power_source
 .text.axp_probe_battery_vol
                0x4a04439c       0x1c drivers/power/built-in.o
                0x4a04439c                axp_probe_battery_vol
 .text.axp_probe_rest_battery_capacity
                0x4a0443b8       0x1c drivers/power/built-in.o
                0x4a0443b8                axp_probe_rest_battery_capacity
 .text.axp_probe_key
                0x4a0443d4       0x1c drivers/power/built-in.o
                0x4a0443d4                axp_probe_key
 .text.axp_set_charge_current
                0x4a0443f0       0x1c drivers/power/built-in.o
                0x4a0443f0                axp_set_charge_current
 .text.axp_set_vbus_limit_dc
                0x4a04440c       0x34 drivers/power/built-in.o
                0x4a04440c                axp_set_vbus_limit_dc
 .text.axp_set_vbus_limit_pc
                0x4a044440       0x34 drivers/power/built-in.o
                0x4a044440                axp_set_vbus_limit_pc
 .text.axp_set_all_limit
                0x4a044474       0x68 drivers/power/built-in.o
                0x4a044474                axp_set_all_limit
 .text.axp_set_suspend_chgcur
                0x4a0444dc       0x20 drivers/power/built-in.o
                0x4a0444dc                axp_set_suspend_chgcur
 .text.axp_set_charge_vol_limit
                0x4a0444fc       0x64 drivers/power/built-in.o
                0x4a0444fc                axp_set_charge_vol_limit
 .text.axp_set_power_supply_output
                0x4a044560      0x12c drivers/power/built-in.o
                0x4a044560                axp_set_power_supply_output
 .text.axp_probe_power_supply_condition
                0x4a04468c       0xd0 drivers/power/built-in.o
                0x4a04468c                axp_probe_power_supply_condition
 .text.axp_set_supply_status
                0x4a04475c       0x28 drivers/power/built-in.o
                0x4a04475c                axp_set_supply_status
 .text.axp_set_supply_status_byname
                0x4a044784       0x60 drivers/power/built-in.o
                0x4a044784                axp_set_supply_status_byname
 .text.axp_set_supply_status_byregulator
                0x4a0447e4      0x244 drivers/power/built-in.o
                0x4a0447e4                axp_set_supply_status_byregulator
 .text.axp_set_coulombmeter_onoff
                0x4a044a28       0x1c drivers/power/built-in.o
                0x4a044a28                axp_set_coulombmeter_onoff
 .text.axp806_set_coulombmeter_onoff
                0x4a044a44        0x8 drivers/power/built-in.o
                0x4a044a44                axp806_set_coulombmeter_onoff
 .text.axp806_set_charge_control
                0x4a044a4c        0x8 drivers/power/built-in.o
                0x4a044a4c                axp806_set_charge_control
 .text.axp806_probe_battery_ratio
                0x4a044a54        0x8 drivers/power/built-in.o
                0x4a044a54                axp806_probe_battery_ratio
 .text.axp806_probe_power_status
                0x4a044a5c        0x8 drivers/power/built-in.o
                0x4a044a5c                axp806_probe_power_status
 .text.axp806_probe_battery_exist
                0x4a044a64        0x8 drivers/power/built-in.o
                0x4a044a64                axp806_probe_battery_exist
 .text.axp806_probe_battery_vol
                0x4a044a6c        0x8 drivers/power/built-in.o
                0x4a044a6c                axp806_probe_battery_vol
 .text.axp806_probe_key
                0x4a044a74        0x8 drivers/power/built-in.o
                0x4a044a74                axp806_probe_key
 .text.axp806_probe_pre_sys_mode
                0x4a044a7c        0x8 drivers/power/built-in.o
                0x4a044a7c                axp806_probe_pre_sys_mode
 .text.axp806_set_next_sys_mode
                0x4a044a84        0x8 drivers/power/built-in.o
                0x4a044a84                axp806_set_next_sys_mode
 .text.axp806_probe_this_poweron_cause
                0x4a044a8c        0x8 drivers/power/built-in.o
                0x4a044a8c                axp806_probe_this_poweron_cause
 .text.axp806_set_power_off
                0x4a044a94        0x8 drivers/power/built-in.o
                0x4a044a94                axp806_set_power_off
 .text.axp806_set_power_onoff_vol
                0x4a044a9c        0x8 drivers/power/built-in.o
                0x4a044a9c                axp806_set_power_onoff_vol
 .text.axp806_set_charge_current
                0x4a044aa4        0x8 drivers/power/built-in.o
                0x4a044aa4                axp806_set_charge_current
 .text.axp806_probe_charge_current
                0x4a044aac        0x8 drivers/power/built-in.o
                0x4a044aac                axp806_probe_charge_current
 .text.axp806_set_vbus_cur_limit
                0x4a044ab4        0x8 drivers/power/built-in.o
                0x4a044ab4                axp806_set_vbus_cur_limit
 .text.axp806_probe_vbus_cur_limit
                0x4a044abc        0x8 drivers/power/built-in.o
                0x4a044abc                axp806_probe_vbus_cur_limit
 .text.axp806_set_vbus_vol_limit
                0x4a044ac4        0x8 drivers/power/built-in.o
                0x4a044ac4                axp806_set_vbus_vol_limit
 .text.axp806_set_int_enable
                0x4a044acc       0x6c drivers/power/built-in.o
                0x4a044acc                axp806_set_int_enable
 .text.axp806_probe_int_pending
                0x4a044b38       0xac drivers/power/built-in.o
                0x4a044b38                axp806_probe_int_pending
 .text.axp806_probe_int_enable
                0x4a044be4       0x54 drivers/power/built-in.o
                0x4a044be4                axp806_probe_int_enable
 .text.axp806_probe
                0x4a044c38       0x68 drivers/power/built-in.o
                0x4a044c38                axp806_probe
 .text.axp806_set_dcdc_output
                0x4a044ca0      0x5c0 drivers/power/built-in.o
 .text.axp806_set_aldo_output
                0x4a045260      0x33c drivers/power/built-in.o
 .text.axp806_set_bldo_output
                0x4a04559c      0x440 drivers/power/built-in.o
 .text.axp806_set_cldo_output
                0x4a0459dc      0x338 drivers/power/built-in.o
 .text.axp806_set_supply_status
                0x4a045d14       0x54 drivers/power/built-in.o
                0x4a045d14                axp806_set_supply_status
 .text.axp806_set_supply_status_byname
                0x4a045d68       0xf0 drivers/power/built-in.o
                0x4a045d68                axp806_set_supply_status_byname
 .text.axp806_probe_supply_status
                0x4a045e58        0x8 drivers/power/built-in.o
                0x4a045e58                axp806_probe_supply_status
 .text.axp806_probe_supply_status_byname
                0x4a045e60      0x60c drivers/power/built-in.o
                0x4a045e60                axp806_probe_supply_status_byname
 .text.sunxi_pwm_set_polarity
                0x4a04646c       0x3c drivers/pwm/built-in.o
                0x4a04646c                sunxi_pwm_set_polarity
 .text.sunxi_pwm_config
                0x4a0464a8      0x244 drivers/pwm/built-in.o
                0x4a0464a8                sunxi_pwm_config
 .text.sunxi_pwm_pin_set_state
                0x4a0466ec       0x94 drivers/pwm/built-in.o
 .text.sunxi_pwm_disable
                0x4a046780       0xd4 drivers/pwm/built-in.o
                0x4a046780                sunxi_pwm_disable
 .text.sunxi_pwm_enable
                0x4a046854       0xe8 drivers/pwm/built-in.o
                0x4a046854                sunxi_pwm_enable
 .text.pwm_config
                0x4a04693c       0x50 drivers/pwm/built-in.o
                0x4a04693c                pwm_config
 .text.pwm_enable
                0x4a04698c       0x50 drivers/pwm/built-in.o
                0x4a04698c                pwm_enable
 .text.pwm_disable
                0x4a0469dc       0x50 drivers/pwm/built-in.o
                0x4a0469dc                pwm_disable
 .text.pwm_set_polarity
                0x4a046a2c       0x50 drivers/pwm/built-in.o
                0x4a046a2c                pwm_set_polarity
 .text.pwm_request
                0x4a046a7c      0x610 drivers/pwm/built-in.o
                0x4a046a7c                pwm_request
 .text.get_current
                0x4a04708c       0x3c drivers/serial/built-in.o
 .text.serial_null
                0x4a0470c8        0x4 drivers/serial/built-in.o
                0x4a0470c8                mpc8260_smc_serial_initialize
                0x4a0470c8                au1x00_serial_initialize
                0x4a0470c8                atmel_serial_initialize
                0x4a0470c8                altera_jtag_serial_initialize
                0x4a0470c8                mpc85xx_serial_initialize
                0x4a0470c8                lh7a40x_serial_initialize
                0x4a0470c8                s3c24xx_serial_initialize
                0x4a0470c8                imx_serial_initialize
                0x4a0470c8                mpc512x_serial_initialize
                0x4a0470c8                sandbox_serial_initialize
                0x4a0470c8                jz_serial_initialize
                0x4a0470c8                pxa_serial_initialize
                0x4a0470c8                bfin_jtag_initialize
                0x4a0470c8                max3100_serial_initialize
                0x4a0470c8                s5p_serial_initialize
                0x4a0470c8                pl01x_serial_initialize
                0x4a0470c8                mpc8260_scc_serial_initialize
                0x4a0470c8                amirix_serial_initialize
                0x4a0470c8                cpci750_serial_initialize
                0x4a0470c8                mpc5xx_serial_initialize
                0x4a0470c8                asc_serial_initialize
                0x4a0470c8                iop480_serial_initialize
                0x4a0470c8                arm_dcc_initialize
                0x4a0470c8                zynq_serial_initialize
                0x4a0470c8                mxc_serial_initialize
                0x4a0470c8                leon2_serial_initialize
                0x4a0470c8                sconsole_serial_initialize
                0x4a0470c8                evb64260_serial_initialize
                0x4a0470c8                altera_serial_initialize
                0x4a0470c8                oc_serial_initialize
                0x4a0470c8                sh_serial_initialize
                0x4a0470c8                marvell_serial_initialize
                0x4a0470c8                arc_serial_initialize
                0x4a0470c8                lpc32xx_serial_initialize
                0x4a0470c8                ks8695_serial_initialize
                0x4a0470c8                cogent_serial_initialize
                0x4a0470c8                mpc8xx_serial_initialize
                0x4a0470c8                leon3_serial_initialize
                0x4a0470c8                p3mx_serial_initialize
                0x4a0470c8                sa1100_serial_initialize
                0x4a0470c8                ml2_serial_initialize
                0x4a0470c8                mcf_serial_initialize
                0x4a0470c8                bmw_serial_initialize
                0x4a0470c8                mxs_auart_initialize
                0x4a0470c8                clps7111_serial_initialize
                0x4a0470c8                bfin_serial_initialize
                0x4a0470c8                uartlite_serial_initialize
 .text.serial_register
                0x4a0470cc       0x18 drivers/serial/built-in.o
                0x4a0470cc                serial_register
 .text.serial_stdio_init
                0x4a0470e4       0x8c drivers/serial/built-in.o
                0x4a0470e4                serial_stdio_init
 .text.serial_assign
                0x4a047170       0x50 drivers/serial/built-in.o
                0x4a047170                serial_assign
 .text.serial_initialize
                0x4a0471c0       0xd0 drivers/serial/built-in.o
                0x4a0471c0                serial_initialize
 .text.serial_init
                0x4a047290       0x14 drivers/serial/built-in.o
                0x4a047290                serial_init
 .text.serial_setbrg
                0x4a0472a4       0x14 drivers/serial/built-in.o
                0x4a0472a4                serial_setbrg
 .text.on_baudrate
                0x4a0472b8      0x100 drivers/serial/built-in.o
 .text.serial_getc
                0x4a0473b8       0x14 drivers/serial/built-in.o
                0x4a0473b8                serial_getc
 .text.serial_tstc
                0x4a0473cc       0x14 drivers/serial/built-in.o
                0x4a0473cc                serial_tstc
 .text.serial_putc
                0x4a0473e0       0x1c drivers/serial/built-in.o
                0x4a0473e0                serial_putc
 .text.serial_puts
                0x4a0473fc       0x1c drivers/serial/built-in.o
                0x4a0473fc                serial_puts
 .text.NS16550_init
                0x4a047418       0x54 drivers/serial/built-in.o
                0x4a047418                NS16550_init
 .text.NS16550_reinit
                0x4a04746c       0x4c drivers/serial/built-in.o
                0x4a04746c                NS16550_reinit
 .text.NS16550_putc
                0x4a0474b8       0x14 drivers/serial/built-in.o
                0x4a0474b8                NS16550_putc
 .text.NS16550_getc
                0x4a0474cc       0x14 drivers/serial/built-in.o
                0x4a0474cc                NS16550_getc
 .text.NS16550_tstc
                0x4a0474e0        0xc drivers/serial/built-in.o
                0x4a0474e0                NS16550_tstc
 .text.calc_divisor.isra.0
                0x4a0474ec       0x24 drivers/serial/built-in.o
 .text.eserial4_init
                0x4a047510       0x20 drivers/serial/built-in.o
 .text.eserial3_init
                0x4a047530       0x20 drivers/serial/built-in.o
 .text.eserial2_init
                0x4a047550       0x20 drivers/serial/built-in.o
 .text.eserial1_init
                0x4a047570       0x20 drivers/serial/built-in.o
 .text._serial_putc
                0x4a047590       0x38 drivers/serial/built-in.o
                0x4a047590                _serial_putc
 .text.eserial1_putc
                0x4a0475c8        0x8 drivers/serial/built-in.o
 .text.eserial2_putc
                0x4a0475d0        0x8 drivers/serial/built-in.o
 .text.eserial3_putc
                0x4a0475d8        0x8 drivers/serial/built-in.o
 .text.eserial4_putc
                0x4a0475e0        0x8 drivers/serial/built-in.o
 .text._serial_puts
                0x4a0475e8       0x28 drivers/serial/built-in.o
                0x4a0475e8                _serial_puts
 .text.eserial1_puts
                0x4a047610        0x8 drivers/serial/built-in.o
 .text.eserial2_puts
                0x4a047618        0x8 drivers/serial/built-in.o
 .text.eserial3_puts
                0x4a047620        0x8 drivers/serial/built-in.o
 .text.eserial4_puts
                0x4a047628        0x8 drivers/serial/built-in.o
 .text._serial_getc
                0x4a047630       0x1c drivers/serial/built-in.o
                0x4a047630                _serial_getc
 .text.eserial1_getc
                0x4a04764c        0x8 drivers/serial/built-in.o
 .text.eserial2_getc
                0x4a047654        0x8 drivers/serial/built-in.o
 .text.eserial3_getc
                0x4a04765c        0x8 drivers/serial/built-in.o
 .text.eserial4_getc
                0x4a047664        0x8 drivers/serial/built-in.o
 .text._serial_tstc
                0x4a04766c       0x14 drivers/serial/built-in.o
                0x4a04766c                _serial_tstc
 .text.eserial1_tstc
                0x4a047680        0x8 drivers/serial/built-in.o
 .text.eserial2_tstc
                0x4a047688        0x8 drivers/serial/built-in.o
 .text.eserial3_tstc
                0x4a047690        0x8 drivers/serial/built-in.o
 .text.eserial4_tstc
                0x4a047698        0x8 drivers/serial/built-in.o
 .text._serial_setbrg
                0x4a0476a0       0x28 drivers/serial/built-in.o
                0x4a0476a0                _serial_setbrg
 .text.eserial1_setbrg
                0x4a0476c8        0x8 drivers/serial/built-in.o
 .text.eserial2_setbrg
                0x4a0476d0        0x8 drivers/serial/built-in.o
 .text.eserial3_setbrg
                0x4a0476d8        0x8 drivers/serial/built-in.o
 .text.eserial4_setbrg
                0x4a0476e0        0x8 drivers/serial/built-in.o
 .text.default_serial_console
                0x4a0476e8        0xc drivers/serial/built-in.o
                0x4a0476e8                default_serial_console
 .text.ns16550_serial_initialize
                0x4a0476f4       0x38 drivers/serial/built-in.o
                0x4a0476f4                ns16550_serial_initialize
 .text          0x4a04772c       0x24 drivers/smc/built-in.o
                0x4a04772c                __sunxi_smc_call
                0x4a047738                tee_smc_call
 .text.smc_readl_normal
                0x4a047750        0x8 drivers/smc/built-in.o
 .text.smc_writel_normal
                0x4a047758        0xc drivers/smc/built-in.o
 .text.sunxi_smc_call
                0x4a047764       0x44 drivers/smc/built-in.o
                0x4a047764                sunxi_smc_call
 .text.arm_svc_write_sec_reg
                0x4a0477a8       0x28 drivers/smc/built-in.o
                0x4a0477a8                arm_svc_write_sec_reg
 .text.arm_svc_read_sec_reg
                0x4a0477d0       0x24 drivers/smc/built-in.o
                0x4a0477d0                arm_svc_read_sec_reg
 .text.arm_svc_run_os
                0x4a0477f4       0x30 drivers/smc/built-in.o
                0x4a0477f4                arm_svc_run_os
 .text.arm_svc_arisc_startup
                0x4a047824       0x24 drivers/smc/built-in.o
                0x4a047824                arm_svc_arisc_startup
 .text.arm_svc_arisc_fake_poweroff
                0x4a047848       0x24 drivers/smc/built-in.o
                0x4a047848                arm_svc_arisc_fake_poweroff
 .text.arm_svc_arisc_read_pmu
                0x4a04786c       0x24 drivers/smc/built-in.o
                0x4a04786c                arm_svc_arisc_read_pmu
 .text.arm_svc_arisc_write_pmu
                0x4a047890       0x28 drivers/smc/built-in.o
                0x4a047890                arm_svc_arisc_write_pmu
 .text.arm_svc_efuse_read
                0x4a0478b8       0x28 drivers/smc/built-in.o
                0x4a0478b8                arm_svc_efuse_read
 .text.arm_svc_efuse_write
                0x4a0478e0       0x24 drivers/smc/built-in.o
                0x4a0478e0                arm_svc_efuse_write
 .text.smc_readl
                0x4a047904       0x18 drivers/smc/built-in.o
                0x4a047904                smc_readl
 .text.smc_writel
                0x4a04791c       0x18 drivers/smc/built-in.o
                0x4a04791c                smc_writel
 .text.smc_init
                0x4a047934       0x50 drivers/smc/built-in.o
                0x4a047934                smc_init
 .text.smc_tee_ssk_encrypt
                0x4a047984      0x11c drivers/smc/built-in.o
                0x4a047984                smc_tee_ssk_encrypt
 .text.smc_tee_ssk_decrypt
                0x4a047aa0       0xf8 drivers/smc/built-in.o
                0x4a047aa0                smc_tee_ssk_decrypt
 .text.smc_tee_rssk_encrypt
                0x4a047b98      0x120 drivers/smc/built-in.o
                0x4a047b98                smc_tee_rssk_encrypt
 .text.smc_aes_rssk_decrypt_to_keysram
                0x4a047cb8       0xb8 drivers/smc/built-in.o
                0x4a047cb8                smc_aes_rssk_decrypt_to_keysram
 .text.smc_aes_algorithm
                0x4a047d70      0x140 drivers/smc/built-in.o
                0x4a047d70                smc_aes_algorithm
 .text.smc_tee_keybox_store
                0x4a047eb0      0x110 drivers/smc/built-in.o
                0x4a047eb0                smc_tee_keybox_store
 .text.sunxi_null_op
                0x4a047fc0        0x8 drivers/sunxi_flash/built-in.o
 .text.sunxi_null_erase
                0x4a047fc8        0x8 drivers/sunxi_flash/built-in.o
 .text.sunxi_null_size
                0x4a047fd0        0x8 drivers/sunxi_flash/built-in.o
 .text.sunxi_null_init
                0x4a047fd8        0x8 drivers/sunxi_flash/built-in.o
 .text.sunxi_null_exit
                0x4a047fe0        0x8 drivers/sunxi_flash/built-in.o
 .text.sunxi_null_flush
                0x4a047fe8        0x8 drivers/sunxi_flash/built-in.o
 .text.sunxi_null_force_erase
                0x4a047ff0        0x8 drivers/sunxi_flash/built-in.o
 .text.nand_init_for_boot
                0x4a047ff8       0xc4 drivers/sunxi_flash/built-in.o
                0x4a048000                nand_init_for_boot
 .text.sdmmc_init_for_boot
                0x4a0480bc      0x144 drivers/sunxi_flash/built-in.o
                0x4a0480c4                sdmmc_init_for_boot
 .text.spinor_init_for_boot
                0x4a048200        0x8 drivers/sunxi_flash/built-in.o
                0x4a048200                spinor_init_for_boot
 .text.nand_init_for_sprite
                0x4a048208      0x114 drivers/sunxi_flash/built-in.o
                0x4a048210                nand_init_for_sprite
 .text.sdmmc_init_for_sprite
                0x4a04831c      0x138 drivers/sunxi_flash/built-in.o
                0x4a048324                sdmmc_init_for_sprite
 .text.sdmmc_init_card0_for_sprite
                0x4a048454       0xf8 drivers/sunxi_flash/built-in.o
                0x4a04845c                sdmmc_init_card0_for_sprite
 .text.spinor_init_for_sprite
                0x4a04854c        0x8 drivers/sunxi_flash/built-in.o
                0x4a04854c                spinor_init_for_sprite
 .text.sunxi_flash_read
                0x4a048554       0x18 drivers/sunxi_flash/built-in.o
                0x4a048554                sunxi_flash_read
 .text.sunxi_flash_part_read
                0x4a04856c       0x4c drivers/sunxi_flash/built-in.o
                0x4a04856c                sunxi_flash_part_read
 .text.sunxi_flash_write
                0x4a0485b8       0x18 drivers/sunxi_flash/built-in.o
                0x4a0485b8                sunxi_flash_write
 .text.sunxi_flash_part_write
                0x4a0485d0       0x4c drivers/sunxi_flash/built-in.o
                0x4a0485d0                sunxi_flash_part_write
 .text.sunxi_flash_exit
                0x4a04861c       0x18 drivers/sunxi_flash/built-in.o
                0x4a04861c                sunxi_flash_exit
 .text.sunxi_flash_flush
                0x4a048634       0x18 drivers/sunxi_flash/built-in.o
                0x4a048634                sunxi_flash_flush
 .text.sunxi_flash_phyread
                0x4a04864c       0x18 drivers/sunxi_flash/built-in.o
                0x4a04864c                sunxi_flash_phyread
 .text.sunxi_flash_phywrite
                0x4a048664       0x18 drivers/sunxi_flash/built-in.o
                0x4a048664                sunxi_flash_phywrite
 .text.sunxi_sprite_init
                0x4a04867c       0x18 drivers/sunxi_flash/built-in.o
                0x4a04867c                sunxi_sprite_init
 .text.sunxi_sprite_read
                0x4a048694       0x18 drivers/sunxi_flash/built-in.o
                0x4a048694                sunxi_sprite_read
 .text.sunxi_sprite_write
                0x4a0486ac       0x18 drivers/sunxi_flash/built-in.o
                0x4a0486ac                sunxi_sprite_write
 .text.sunxi_sprite_erase
                0x4a0486c4       0x18 drivers/sunxi_flash/built-in.o
                0x4a0486c4                sunxi_sprite_erase
 .text.sunxi_sprite_size
                0x4a0486dc       0x18 drivers/sunxi_flash/built-in.o
                0x4a0486dc                sunxi_sprite_size
 .text.sunxi_sprite_exit
                0x4a0486f4       0x18 drivers/sunxi_flash/built-in.o
                0x4a0486f4                sunxi_sprite_exit
 .text.sunxi_sprite_phyread
                0x4a04870c       0x18 drivers/sunxi_flash/built-in.o
                0x4a04870c                sunxi_sprite_phyread
 .text.sunxi_sprite_phywrite
                0x4a048724       0x18 drivers/sunxi_flash/built-in.o
                0x4a048724                sunxi_sprite_phywrite
 .text.sunxi_sprite_force_erase
                0x4a04873c       0x18 drivers/sunxi_flash/built-in.o
                0x4a04873c                sunxi_sprite_force_erase
 .text.sunxi_flash_boot_handle
                0x4a048754       0xa0 drivers/sunxi_flash/built-in.o
                0x4a048754                sunxi_flash_boot_handle
 .text.sunxi_flash_sprite_handle
                0x4a0487f4       0x88 drivers/sunxi_flash/built-in.o
                0x4a0487f4                sunxi_flash_sprite_handle
 .text.sunxi_flash_get_dev
                0x4a04887c       0x20 drivers/sunxi_flash/built-in.o
                0x4a04887c                sunxi_flash_get_dev
 .text.sunxi_flash_init_uboot
                0x4a04889c       0x54 drivers/sunxi_flash/built-in.o
                0x4a04889c                sunxi_flash_init_uboot
 .text.sunxi_flash_handle_init
                0x4a0488f0       0x7c drivers/sunxi_flash/built-in.o
                0x4a0488f0                sunxi_flash_handle_init
 .text.read_boot_package
                0x4a04896c       0xb8 drivers/sunxi_flash/built-in.o
                0x4a04896c                read_boot_package
 .text.sunxi_flash_update_fdt
                0x4a048a24      0x140 drivers/sunxi_flash/built-in.o
                0x4a048a24                sunxi_flash_update_fdt
 .text.sunxi_flash_upload_boot0
                0x4a048b64       0x60 drivers/sunxi_flash/built-in.o
                0x4a048b64                sunxi_flash_upload_boot0
 .text.sunxi_flash_get_boot0_size
                0x4a048bc4       0x58 drivers/sunxi_flash/built-in.o
                0x4a048bc4                sunxi_flash_get_boot0_size
 .text.sunxi_flash_update_boot0
                0x4a048c1c       0xcc drivers/sunxi_flash/built-in.o
                0x4a048c1c                sunxi_flash_update_boot0
 .text.sunxi_flash_mmc_read
                0x4a048ce8       0x30 drivers/sunxi_flash/built-in.o
 .text.sunxi_flash_mmc_write
                0x4a048d18       0x30 drivers/sunxi_flash/built-in.o
 .text.sunxi_flash_mmc_size
                0x4a048d48       0x14 drivers/sunxi_flash/built-in.o
 .text.sunxi_flash_mmc_init
                0x4a048d5c        0x8 drivers/sunxi_flash/built-in.o
 .text.sunxi_flash_mmc_phyread
                0x4a048d64       0x34 drivers/sunxi_flash/built-in.o
                0x4a048d64                sunxi_flash_mmc_phyread
 .text.sunxi_flash_mmc_phywrite
                0x4a048d98       0x34 drivers/sunxi_flash/built-in.o
                0x4a048d98                sunxi_flash_mmc_phywrite
 .text.sunxi_sprite_mmc_read
                0x4a048dcc       0x30 drivers/sunxi_flash/built-in.o
 .text.sunxi_sprite_mmc_write
                0x4a048dfc       0x30 drivers/sunxi_flash/built-in.o
 .text.sunxi_sprite_mmc_size
                0x4a048e2c       0x14 drivers/sunxi_flash/built-in.o
 .text.sunxi_sprite_mmc_init
                0x4a048e40        0x8 drivers/sunxi_flash/built-in.o
 .text.sunxi_sprite_mmc_exit
                0x4a048e48        0x8 drivers/sunxi_flash/built-in.o
 .text.sunxi_sprite_mmc_phyread
                0x4a048e50       0x34 drivers/sunxi_flash/built-in.o
                0x4a048e50                sunxi_sprite_mmc_phyread
 .text.sunxi_sprite_mmc_phywrite
                0x4a048e84       0x34 drivers/sunxi_flash/built-in.o
                0x4a048e84                sunxi_sprite_mmc_phywrite
 .text.sunxi_sprite_mmc_force_erase
                0x4a048eb8        0x8 drivers/sunxi_flash/built-in.o
                0x4a048eb8                sunxi_sprite_mmc_force_erase
 .text.sunxi_flash_mmc_exit
                0x4a048ec0        0x4 drivers/sunxi_flash/built-in.o
 .text.sunxi_sprite_mmc_erase
                0x4a048ec4        0x4 drivers/sunxi_flash/built-in.o
 .text.sunxi_sprite_mmc_phyerase
                0x4a048ec8       0x60 drivers/sunxi_flash/built-in.o
                0x4a048ec8                sunxi_sprite_mmc_phyerase
 .text.sunxi_flash_mmc_secread
                0x4a048f28       0x3c drivers/sunxi_flash/built-in.o
                0x4a048f28                sunxi_flash_mmc_secread
 .text.sunxi_flash_mmc_secread_backup
                0x4a048f64       0x3c drivers/sunxi_flash/built-in.o
                0x4a048f64                sunxi_flash_mmc_secread_backup
 .text.sunxi_flash_mmc_secwrite
                0x4a048fa0       0x3c drivers/sunxi_flash/built-in.o
                0x4a048fa0                sunxi_flash_mmc_secwrite
 .text.sunxi_sprite_mmc_secwrite
                0x4a048fdc       0x48 drivers/sunxi_flash/built-in.o
                0x4a048fdc                sunxi_sprite_mmc_secwrite
 .text.sunxi_sprite_mmc_secread
                0x4a049024       0x48 drivers/sunxi_flash/built-in.o
                0x4a049024                sunxi_sprite_mmc_secread
 .text.sunxi_sprite_mmc_secread_backup
                0x4a04906c       0x48 drivers/sunxi_flash/built-in.o
                0x4a04906c                sunxi_sprite_mmc_secread_backup
 .text.card_read_boot0
                0x4a0490b4       0x5c drivers/sunxi_flash/built-in.o
                0x4a0490b4                card_read_boot0
 .text.sunxi_flash_nand_force_erase
                0x4a049110        0x4 drivers/sunxi_flash/built-in.o
 .text.sunxi_flash_nand_flush
                0x4a049114        0x4 drivers/sunxi_flash/built-in.o
 .text.sunxi_flash_nand_size
                0x4a049118        0x4 drivers/sunxi_flash/built-in.o
 .text.sunxi_flash_nand_erase
                0x4a04911c        0x4 drivers/sunxi_flash/built-in.o
 .text.sunxi_flash_nand_write
                0x4a049120        0x4 drivers/sunxi_flash/built-in.o
 .text.sunxi_flash_nand_read
                0x4a049124        0x4 drivers/sunxi_flash/built-in.o
 .text.sunxi_flash_nand_exit
                0x4a049128        0x4 drivers/sunxi_flash/built-in.o
 .text.sunxi_flash_nand_init
                0x4a04912c        0x4 drivers/sunxi_flash/built-in.o
 .text.fs_probe_unsupported
                0x4a049130       0x18 fs/built-in.o
 .text.fs_ls_unsupported
                0x4a049148        0x8 fs/built-in.o
 .text.fs_exists_unsupported
                0x4a049150        0x8 fs/built-in.o
 .text.fs_read_unsupported
                0x4a049158        0x8 fs/built-in.o
 .text.fs_write_unsupported
                0x4a049160        0x8 fs/built-in.o
 .text.fs_close_unsupported
                0x4a049168        0x4 fs/built-in.o
 .text.fs_get_info
                0x4a04916c       0x20 fs/built-in.o
 .text.fs_close
                0x4a04918c       0x28 fs/built-in.o
 .text.fs_set_blk_dev
                0x4a0491b4       0xac fs/built-in.o
                0x4a0491b4                fs_set_blk_dev
 .text.fs_ls    0x4a049260       0x3c fs/built-in.o
                0x4a049260                fs_ls
 .text.fs_exists
                0x4a04929c       0x34 fs/built-in.o
                0x4a04929c                fs_exists
 .text.fs_read  0x4a0492d0       0x80 fs/built-in.o
                0x4a0492d0                fs_read
 .text.do_load  0x4a049350      0x1cc fs/built-in.o
                0x4a049350                do_load
 .text.do_aw_load
                0x4a04951c      0x1bc fs/built-in.o
                0x4a04951c                do_aw_load
 .text.do_ls    0x4a0496d8       0x6c fs/built-in.o
                0x4a0496d8                do_ls
 .text.file_exists
                0x4a049744       0x2c fs/built-in.o
                0x4a049744                file_exists
 .text.downcase
                0x4a049770       0x30 fs/built-in.o
 .text.disk_read
                0x4a0497a0       0x5c fs/built-in.o
 .text.dirdelim
                0x4a0497fc       0x34 fs/built-in.o
 .text.get_fatent
                0x4a049830      0x150 fs/built-in.o
 .text.mkcksum  0x4a049980       0x54 fs/built-in.o
 .text.get_name
                0x4a0499d4       0xc4 fs/built-in.o
 .text.read_bootsectandvi
                0x4a049a98      0x128 fs/built-in.o
 .text.get_cluster
                0x4a049bc0      0x174 fs/built-in.o
 .text.slot2str
                0x4a049d34       0xcc fs/built-in.o
 .text.get_vfatname
                0x4a049e00      0x1c8 fs/built-in.o
 .text.fat_set_blk_dev
                0x4a049fc8       0xcc fs/built-in.o
                0x4a049fc8                fat_set_blk_dev
 .text.do_fat_read_at
                0x4a04a094      0xba0 fs/built-in.o
                0x4a04a094                do_fat_read_at
 .text.do_fat_read
                0x4a04ac34       0x28 fs/built-in.o
                0x4a04ac34                do_fat_read
 .text.file_fat_detectfs
                0x4a04ac5c      0x14c fs/built-in.o
                0x4a04ac5c                file_fat_detectfs
 .text.file_fat_ls
                0x4a04ada8       0x10 fs/built-in.o
                0x4a04ada8                file_fat_ls
 .text.fat_exists
                0x4a04adb8       0x28 fs/built-in.o
                0x4a04adb8                fat_exists
 .text.file_fat_read_at
                0x4a04ade0       0x48 fs/built-in.o
                0x4a04ade0                file_fat_read_at
 .text.fat_read_file
                0x4a04ae28       0x3c fs/built-in.o
                0x4a04ae28                fat_read_file
 .text.fat_close
                0x4a04ae64        0x4 fs/built-in.o
                0x4a04ae64                fat_close
 .text.zcfree   0x4a04ae68        0x8 lib/built-in.o
                0x4a04ae68                zcfree
 .text.zcalloc  0x4a04ae70        0x8 lib/built-in.o
                0x4a04ae70                zcalloc
 .text.inflate_fast
                0x4a04ae78      0x5c8 lib/built-in.o
                0x4a04ae78                inflate_fast
 .text.inflate_table
                0x4a04b440      0x5c0 lib/built-in.o
                0x4a04b440                inflate_table
 .text.inflateReset
                0x4a04ba00       0x80 lib/built-in.o
                0x4a04ba00                inflateReset
 .text.inflateInit2_
                0x4a04ba80      0x104 lib/built-in.o
                0x4a04ba80                inflateInit2_
 .text.inflateEnd
                0x4a04bb84       0x6c lib/built-in.o
                0x4a04bb84                inflateEnd
 .text.adler32  0x4a04bbf0      0x2e8 lib/built-in.o
                0x4a04bbf0                adler32
 .text.inflate  0x4a04bed8     0x164c lib/built-in.o
                0x4a04bed8                inflate
 .text.fdtdec_get_int
                0x4a04d524       0x30 lib/built-in.o
                0x4a04d524                fdtdec_get_int
 .text.fdtdec_get_is_enabled
                0x4a04d554       0x3c lib/built-in.o
                0x4a04d554                fdtdec_get_is_enabled
 .text.fdtdec_prepare_fdt
                0x4a04d590       0x40 lib/built-in.o
                0x4a04d590                fdtdec_prepare_fdt
 .text.fdtdec_check_fdt
                0x4a04d5d0       0x10 lib/built-in.o
                0x4a04d5d0                fdtdec_check_fdt
 .text.fdtdec_get_config_int
                0x4a04d5e0       0x40 lib/built-in.o
                0x4a04d5e0                fdtdec_get_config_int
 .text.fdtdec_get_config_string
                0x4a04d620       0x38 lib/built-in.o
                0x4a04d620                fdtdec_get_config_string
 .text.gzfree   0x4a04d658        0x8 lib/built-in.o
                0x4a04d658                gzfree
 .text.gzalloc  0x4a04d660       0x10 lib/built-in.o
                0x4a04d660                gzalloc
 .text.zunzip   0x4a04d670      0x124 lib/built-in.o
                0x4a04d670                zunzip
 .text.gunzip   0x4a04d794       0xac lib/built-in.o
                0x4a04d794                gunzip
 .text.initcall_run_list
                0x4a04d840       0x5c lib/built-in.o
                0x4a04d840                initcall_run_list
 .text.lmb_add_region
                0x4a04d89c      0x1c8 lib/built-in.o
 .text.lmb_init
                0x4a04da64       0x28 lib/built-in.o
                0x4a04da64                lmb_init
 .text.lmb_add  0x4a04da8c        0x4 lib/built-in.o
                0x4a04da8c                lmb_add
 .text.lmb_free
                0x4a04da90      0x124 lib/built-in.o
                0x4a04da90                lmb_free
 .text.lmb_reserve
                0x4a04dbb4        0x8 lib/built-in.o
                0x4a04dbb4                lmb_reserve
 .text.lmb_overlaps_region
                0x4a04dbbc       0x5c lib/built-in.o
                0x4a04dbbc                lmb_overlaps_region
 .text.__lmb_alloc_base
                0x4a04dc18      0x130 lib/built-in.o
                0x4a04dc18                __lmb_alloc_base
 .text.lmb_alloc_base
                0x4a04dd48       0x34 lib/built-in.o
                0x4a04dd48                lmb_alloc_base
 .text.lmb_alloc
                0x4a04dd7c        0x8 lib/built-in.o
                0x4a04dd7c                lmb_alloc
 .text.__board_lmb_reserve
                0x4a04dd84        0x4 lib/built-in.o
                0x4a04dd84                __board_lmb_reserve
                0x4a04dd84                board_lmb_reserve
 .text.qsort    0x4a04dd88       0xd0 lib/built-in.o
                0x4a04dd88                qsort
 .text.strcmp_compar
                0x4a04de58        0xc lib/built-in.o
                0x4a04de58                strcmp_compar
 .text.cmpkey   0x4a04de64       0x14 lib/built-in.o
 .text._hdelete.isra.1
                0x4a04de78       0x50 lib/built-in.o
 .text.drop_var_from_set.part.2
                0x4a04dec8       0x50 lib/built-in.o
 .text.match_string.isra.3
                0x4a04df18       0x64 lib/built-in.o
 .text.hcreate_r
                0x4a04df7c       0xac lib/built-in.o
                0x4a04df7c                hcreate_r
 .text.hdestroy_r
                0x4a04e028       0x74 lib/built-in.o
                0x4a04e028                hdestroy_r
 .text.hmatch_r
                0x4a04e09c       0xa0 lib/built-in.o
                0x4a04e09c                hmatch_r
 .text.hsearch_r
                0x4a04e13c      0x4a4 lib/built-in.o
                0x4a04e13c                hsearch_r
 .text.hdelete_r
                0x4a04e5e0       0xe8 lib/built-in.o
                0x4a04e5e0                hdelete_r
 .text.hexport_r
                0x4a04e6c8      0x330 lib/built-in.o
                0x4a04e6c8                hexport_r
 .text.himport_r
                0x4a04e9f8      0x32c lib/built-in.o
                0x4a04e9f8                himport_r
 .text.hwalk_r  0x4a04ed24       0x58 lib/built-in.o
                0x4a04ed24                hwalk_r
 .text.display_options
                0x4a04ed7c       0x20 lib/built-in.o
                0x4a04ed7c                display_options
 .text.print_size
                0x4a04ed9c      0x134 lib/built-in.o
                0x4a04ed9c                print_size
 .text.print_buffer
                0x4a04eed0      0x1a8 lib/built-in.o
                0x4a04eed0                print_buffer
 .text.crc32_no_comp
                0x4a04f078       0xe0 lib/built-in.o
                0x4a04f078                crc32_no_comp
 .text.crc32    0x4a04f158       0x14 lib/built-in.o
                0x4a04f158                crc32
 .text.crc32_wd
                0x4a04f16c        0x4 lib/built-in.o
                0x4a04f16c                crc32_wd
 .text.__div64_32
                0x4a04f170       0xe8 lib/built-in.o
                0x4a04f170                __div64_32
 .text.hang     0x4a04f258       0x1c lib/built-in.o
                0x4a04f258                hang
 .text.skip_spaces
                0x4a04f274       0x28 lib/built-in.o
                0x4a04f274                skip_spaces
 .text.strim    0x4a04f29c       0x58 lib/built-in.o
                0x4a04f29c                strim
 .text.strcpy   0x4a04f2f4       0x18 lib/built-in.o
                0x4a04f2f4                strcpy
 .text.strncpy  0x4a04f30c       0x24 lib/built-in.o
                0x4a04f30c                strncpy
 .text.strcat   0x4a04f330       0x2c lib/built-in.o
                0x4a04f330                strcat
 .text.strncat  0x4a04f35c       0x54 lib/built-in.o
                0x4a04f35c                strncat
 .text.strcmp   0x4a04f3b0       0x28 lib/built-in.o
                0x4a04f3b0                strcmp
 .text.strncmp  0x4a04f3d8       0x44 lib/built-in.o
                0x4a04f3d8                strncmp
 .text.strchr   0x4a04f41c       0x34 lib/built-in.o
                0x4a04f41c                strchr
 .text.strlen   0x4a04f450       0x20 lib/built-in.o
                0x4a04f450                strlen
 .text.strnlen  0x4a04f470       0x2c lib/built-in.o
                0x4a04f470                strnlen
 .text.strdup   0x4a04f49c       0x34 lib/built-in.o
                0x4a04f49c                strdup
 .text.strpbrk  0x4a04f4d0       0x3c lib/built-in.o
                0x4a04f4d0                strpbrk
 .text.memmove  0x4a04f50c       0x6c lib/built-in.o
                0x4a04f50c                memmove
 .text.memcmp   0x4a04f578       0x34 lib/built-in.o
                0x4a04f578                memcmp
 .text.strstr   0x4a04f5ac       0x60 lib/built-in.o
                0x4a04f5ac                strstr
 .text.memchr   0x4a04f60c       0x30 lib/built-in.o
                0x4a04f60c                memchr
 .text.__udelay
                0x4a04f63c        0x4 lib/built-in.o
                0x4a04f63c                __udelay
 .text.udelay   0x4a04f640       0x30 lib/built-in.o
                0x4a04f640                udelay
 .text.put_dec  0x4a04f670      0x1fc lib/built-in.o
 .text.number.isra.1
                0x4a04f86c      0x270 lib/built-in.o
 .text.vsnprintf_internal.isra.3
                0x4a04fadc      0x4a8 lib/built-in.o
 .text.simple_strtoul
                0x4a04ff84       0xac lib/built-in.o
                0x4a04ff84                simple_strtoul
 .text.strict_strtoul
                0x4a050030       0x78 lib/built-in.o
                0x4a050030                strict_strtoul
 .text.simple_strtol
                0x4a0500a8       0x28 lib/built-in.o
                0x4a0500a8                simple_strtol
 .text.simple_strtoull
                0x4a0500d0       0xf0 lib/built-in.o
                0x4a0500d0                simple_strtoull
 .text.vsprintf
                0x4a0501c0        0x4 lib/built-in.o
                0x4a0501c0                vsprintf
 .text.sprintf  0x4a0501c4       0x24 lib/built-in.o
                0x4a0501c4                sprintf
 .text.panic    0x4a0501e8       0x44 lib/built-in.o
                0x4a0501e8                panic
 .text.simple_itoa
                0x4a05022c       0x58 lib/built-in.o
                0x4a05022c                simple_itoa
 .text.fdt_check_header
                0x4a050284       0x74 lib/libfdt/built-in.o
                0x4a050284                fdt_check_header
 .text.fdt_offset_ptr
                0x4a0502f8       0x54 lib/libfdt/built-in.o
                0x4a0502f8                fdt_offset_ptr
 .text.fdt_next_tag
                0x4a05034c       0xf4 lib/libfdt/built-in.o
                0x4a05034c                fdt_next_tag
 .text._fdt_check_node_offset
                0x4a050440       0x34 lib/libfdt/built-in.o
                0x4a050440                _fdt_check_node_offset
 .text._fdt_check_prop_offset
                0x4a050474       0x34 lib/libfdt/built-in.o
                0x4a050474                _fdt_check_prop_offset
 .text.fdt_next_node
                0x4a0504a8       0xb8 lib/libfdt/built-in.o
                0x4a0504a8                fdt_next_node
 .text._fdt_find_string
                0x4a050560       0x58 lib/libfdt/built-in.o
                0x4a050560                _fdt_find_string
 .text.fdt_move
                0x4a0505b8       0x44 lib/libfdt/built-in.o
                0x4a0505b8                fdt_move
 .text._nextprop
                0x4a0505fc       0x50 lib/libfdt/built-in.o
 .text.fdt_string
                0x4a05064c       0x14 lib/libfdt/built-in.o
                0x4a05064c                fdt_string
 .text.fdt_get_mem_rsv
                0x4a050660       0x8c lib/libfdt/built-in.o
                0x4a050660                fdt_get_mem_rsv
 .text.fdt_num_mem_rsv
                0x4a0506ec       0x5c lib/libfdt/built-in.o
                0x4a0506ec                fdt_num_mem_rsv
 .text.fdt_subnode_offset_namelen
                0x4a050748       0xd0 lib/libfdt/built-in.o
                0x4a050748                fdt_subnode_offset_namelen
 .text.fdt_subnode_offset
                0x4a050818       0x30 lib/libfdt/built-in.o
                0x4a050818                fdt_subnode_offset
 .text.fdt_get_name
                0x4a050848       0x70 lib/libfdt/built-in.o
                0x4a050848                fdt_get_name
 .text.fdt_first_property_offset
                0x4a0508b8       0x20 lib/libfdt/built-in.o
                0x4a0508b8                fdt_first_property_offset
 .text.fdt_next_property_offset
                0x4a0508d8       0x20 lib/libfdt/built-in.o
                0x4a0508d8                fdt_next_property_offset
 .text.fdt_get_property_by_offset
                0x4a0508f8       0x5c lib/libfdt/built-in.o
                0x4a0508f8                fdt_get_property_by_offset
 .text.fdt_get_property_namelen
                0x4a050954       0xb8 lib/libfdt/built-in.o
                0x4a050954                fdt_get_property_namelen
 .text.fdt_get_property
                0x4a050a0c       0x38 lib/libfdt/built-in.o
                0x4a050a0c                fdt_get_property
 .text.fdt_getprop_namelen
                0x4a050a44       0x1c lib/libfdt/built-in.o
                0x4a050a44                fdt_getprop_namelen
 .text.fdt_getprop
                0x4a050a60       0x38 lib/libfdt/built-in.o
                0x4a050a60                fdt_getprop
 .text.fdt_get_phandle
                0x4a050a98       0x6c lib/libfdt/built-in.o
                0x4a050a98                fdt_get_phandle
 .text.fdt_get_alias_namelen
                0x4a050b04       0x40 lib/libfdt/built-in.o
                0x4a050b04                fdt_get_alias_namelen
 .text.fdt_path_offset
                0x4a050b44       0xe4 lib/libfdt/built-in.o
                0x4a050b44                fdt_path_offset
 .text.fdt_get_path
                0x4a050c28      0x138 lib/libfdt/built-in.o
                0x4a050c28                fdt_get_path
 .text.fdt_supernode_atdepth_offset
                0x4a050d60       0xb4 lib/libfdt/built-in.o
                0x4a050d60                fdt_supernode_atdepth_offset
 .text.fdt_node_depth
                0x4a050e14       0x24 lib/libfdt/built-in.o
                0x4a050e14                fdt_node_depth
 .text.fdt_node_offset_by_phandle
                0x4a050e38       0x70 lib/libfdt/built-in.o
                0x4a050e38                fdt_node_offset_by_phandle
 .text._fdt_packblocks
                0x4a050ea8       0x8c lib/libfdt/built-in.o
 .text._fdt_splice
                0x4a050f34       0x78 lib/libfdt/built-in.o
 .text._fdt_splice_struct
                0x4a050fac       0x4c lib/libfdt/built-in.o
 .text._fdt_splice_mem_rsv
                0x4a050ff8       0x58 lib/libfdt/built-in.o
 .text._fdt_add_property
                0x4a051050      0x124 lib/libfdt/built-in.o
 .text._fdt_blocks_misordered
                0x4a051174       0x6c lib/libfdt/built-in.o
 .text._fdt_rw_check_header
                0x4a0511e0       0x5c lib/libfdt/built-in.o
 .text.fdt_add_mem_rsv
                0x4a05123c       0xc4 lib/libfdt/built-in.o
                0x4a05123c                fdt_add_mem_rsv
 .text.fdt_del_mem_rsv
                0x4a051300       0x58 lib/libfdt/built-in.o
                0x4a051300                fdt_del_mem_rsv
 .text.fdt_setprop
                0x4a051358       0xd0 lib/libfdt/built-in.o
                0x4a051358                fdt_setprop
 .text.fdt_delprop
                0x4a051428       0x64 lib/libfdt/built-in.o
                0x4a051428                fdt_delprop
 .text.fdt_add_subnode_namelen
                0x4a05148c       0xf0 lib/libfdt/built-in.o
                0x4a05148c                fdt_add_subnode_namelen
 .text.fdt_add_subnode
                0x4a05157c       0x30 lib/libfdt/built-in.o
                0x4a05157c                fdt_add_subnode
 .text.fdt_del_node
                0x4a0515ac       0x5c lib/libfdt/built-in.o
                0x4a0515ac                fdt_del_node
 .text.fdt_open_into
                0x4a051608      0x198 lib/libfdt/built-in.o
                0x4a051608                fdt_open_into
 .text.fdt_strerror
                0x4a0517a0       0x50 lib/libfdt/built-in.o
                0x4a0517a0                fdt_strerror
 .text._fdt_node_end_offset
                0x4a0517f0       0x40 lib/libfdt/built-in.o
                0x4a0517f0                _fdt_node_end_offset
 .text.OPENSSL_cleanse
                0x4a051830       0x58 lib/openssl/built-in.o
                0x4a051830                OPENSSL_cleanse
 .text.CRYPTO_malloc
                0x4a051888       0x14 lib/openssl/built-in.o
                0x4a051888                CRYPTO_malloc
 .text.CRYPTO_realloc
                0x4a05189c       0x2c lib/openssl/built-in.o
                0x4a05189c                CRYPTO_realloc
 .text.CRYPTO_realloc_clean
                0x4a0518c8       0x7c lib/openssl/built-in.o
                0x4a0518c8                CRYPTO_realloc_clean
 .text.CRYPTO_free
                0x4a051944        0x4 lib/openssl/built-in.o
                0x4a051944                CRYPTO_free
 .text.reset_CRYPTO_reset
                0x4a051948       0x14 lib/openssl/built-in.o
                0x4a051948                reset_CRYPTO_reset
 .text.ERR_put_error
                0x4a05195c        0x4 lib/openssl/built-in.o
                0x4a05195c                ERR_put_error
 .text.obj_cmp  0x4a051960       0x24 lib/openssl/built-in.o
 .text.reset_OBJ_nid2ln_reset
                0x4a051984       0x14 lib/openssl/built-in.o
                0x4a051984                reset_OBJ_nid2ln_reset
 .text.OBJ_bsearch_ex
                0x4a051998      0x12c lib/openssl/built-in.o
                0x4a051998                OBJ_bsearch_ex
 .text.OBJ_bsearch
                0x4a051ac4       0x1c lib/openssl/built-in.o
                0x4a051ac4                OBJ_bsearch
 .text.OBJ_obj2nid
                0x4a051ae0       0x94 lib/openssl/built-in.o
                0x4a051ae0                OBJ_obj2nid
 .text.OBJ_nid2obj
                0x4a051b74       0x84 lib/openssl/built-in.o
                0x4a051b74                OBJ_nid2obj
 .text.c2i_ASN1_INTEGER
                0x4a051bf8      0x1e8 lib/openssl/built-in.o
                0x4a051bf8                c2i_ASN1_INTEGER
 .text.c2i_ASN1_BIT_STRING
                0x4a051de0      0x134 lib/openssl/built-in.o
                0x4a051de0                c2i_ASN1_BIT_STRING
 .text.ASN1_OBJECT_new
                0x4a051f14       0x68 lib/openssl/built-in.o
                0x4a051f14                ASN1_OBJECT_new
 .text.ASN1_OBJECT_free
                0x4a051f7c       0x84 lib/openssl/built-in.o
                0x4a051f7c                ASN1_OBJECT_free
 .text.c2i_ASN1_OBJECT
                0x4a052000      0x16c lib/openssl/built-in.o
                0x4a052000                c2i_ASN1_OBJECT
 .text.asn1_get_field_ptr
                0x4a05216c       0x18 lib/openssl/built-in.o
                0x4a05216c                asn1_get_field_ptr
 .text.asn1_enc_save
                0x4a052184       0x98 lib/openssl/built-in.o
                0x4a052184                asn1_enc_save
 .text.asn1_do_adb
                0x4a05221c       0xc8 lib/openssl/built-in.o
                0x4a05221c                asn1_do_adb
 .text.asn1_enc_init
                0x4a0522e4       0x4c lib/openssl/built-in.o
                0x4a0522e4                asn1_enc_init
 .text.ASN1_primitive_new
                0x4a052330       0xf0 lib/openssl/built-in.o
                0x4a052330                ASN1_primitive_new
 .text.asn1_primitive_clear
                0x4a052420       0x58 lib/openssl/built-in.o
                0x4a052420                asn1_primitive_clear
 .text.asn1_item_clear
                0x4a052478       0xac lib/openssl/built-in.o
 .text.ASN1_template_new
                0x4a052524       0xc0 lib/openssl/built-in.o
                0x4a052524                ASN1_template_new
 .text.asn1_item_ex_combine_new
                0x4a0525e4      0x224 lib/openssl/built-in.o
 .text.ASN1_item_ex_new
                0x4a052808        0x8 lib/openssl/built-in.o
                0x4a052808                ASN1_item_ex_new
 .text.ASN1_item_new
                0x4a052810       0x28 lib/openssl/built-in.o
                0x4a052810                ASN1_item_new
 .text.asn1_enc_free
                0x4a052838       0x64 lib/openssl/built-in.o
                0x4a052838                asn1_enc_free
 .text.asn1_enc_restore
                0x4a05289c       0xa4 lib/openssl/built-in.o
                0x4a05289c                asn1_enc_restore
 .text.ASN1_primitive_free
                0x4a052940      0x110 lib/openssl/built-in.o
                0x4a052940                ASN1_primitive_free
 .text.ASN1_TYPE_set
                0x4a052a50       0x34 lib/openssl/built-in.o
                0x4a052a50                ASN1_TYPE_set
 .text.asn1_item_combine_free
                0x4a052a84      0x214 lib/openssl/built-in.o
                0x4a052a84                asn1_item_combine_free
 .text.ASN1_item_free
                0x4a052c98       0x1c lib/openssl/built-in.o
                0x4a052c98                ASN1_item_free
 .text.ASN1_put_object
                0x4a052cb4       0xf8 lib/openssl/built-in.o
                0x4a052cb4                ASN1_put_object
 .text.ASN1_object_size
                0x4a052dac       0x40 lib/openssl/built-in.o
                0x4a052dac                ASN1_object_size
 .text.ASN1_get_object
                0x4a052dec      0x194 lib/openssl/built-in.o
                0x4a052dec                ASN1_get_object
 .text.ASN1_STRING_type_new
                0x4a052f80       0x58 lib/openssl/built-in.o
                0x4a052f80                ASN1_STRING_type_new
 .text.ASN1_STRING_set
                0x4a052fd8       0xd8 lib/openssl/built-in.o
                0x4a052fd8                ASN1_STRING_set
 .text.ASN1_STRING_free
                0x4a0530b0       0x28 lib/openssl/built-in.o
                0x4a0530b0                ASN1_STRING_free
 .text.d2i_PublicKey
                0x4a0530d8       0xf4 lib/openssl/built-in.o
                0x4a0530d8                d2i_PublicKey
 .text.asn1_check_eoc
                0x4a0531cc       0x44 lib/openssl/built-in.o
 .text.asn1_check_tlen
                0x4a053210      0x230 lib/openssl/built-in.o
 .text.ASN1_INTEGER_it
                0x4a053440        0xc lib/openssl/built-in.o
                0x4a053440                ASN1_INTEGER_it
 .text.ASN1_OBJECT_it
                0x4a05344c        0xc lib/openssl/built-in.o
                0x4a05344c                ASN1_OBJECT_it
 .text.ASN1_OCTET_STRING_it
                0x4a053458        0xc lib/openssl/built-in.o
                0x4a053458                ASN1_OCTET_STRING_it
 .text.ASN1_ANY_it
                0x4a053464        0xc lib/openssl/built-in.o
                0x4a053464                ASN1_ANY_it
 .text.ASN1_BIT_STRING_it
                0x4a053470        0xc lib/openssl/built-in.o
                0x4a053470                ASN1_BIT_STRING_it
 .text.ASN1_BOOLEAN_it
                0x4a05347c        0xc lib/openssl/built-in.o
                0x4a05347c                ASN1_BOOLEAN_it
 .text.ASN1_TYPE_new
                0x4a053488        0xc lib/openssl/built-in.o
                0x4a053488                ASN1_TYPE_new
 .text.ASN1_TYPE_free
                0x4a053494        0xc lib/openssl/built-in.o
                0x4a053494                ASN1_TYPE_free
 .text.asn1_ex_c2i
                0x4a0534a0      0x300 lib/openssl/built-in.o
                0x4a0534a0                asn1_ex_c2i
 .text.ASN1_template_free
                0x4a0537a0       0x90 lib/openssl/built-in.o
                0x4a0537a0                ASN1_template_free
 .text.ASN1_item_ex_d2i
                0x4a053830      0x858 lib/openssl/built-in.o
                0x4a053830                ASN1_item_ex_d2i
 .text.asn1_template_noexp_d2i
                0x4a054088      0x2f0 lib/openssl/built-in.o
 .text.asn1_template_ex_d2i
                0x4a054378      0x1a4 lib/openssl/built-in.o
 .text.ASN1_item_d2i
                0x4a05451c       0x50 lib/openssl/built-in.o
                0x4a05451c                ASN1_item_d2i
 .text.reset_D2I_reset
                0x4a05456c       0x14 lib/openssl/built-in.o
                0x4a05456c                reset_D2I_reset
 .text.EVP_PKEY_type
                0x4a054580       0x70 lib/openssl/built-in.o
                0x4a054580                EVP_PKEY_type
 .text.EVP_PKEY_new
                0x4a0545f0       0x40 lib/openssl/built-in.o
                0x4a0545f0                EVP_PKEY_new
 .text.EVP_PKEY_free
                0x4a054630       0x14 lib/openssl/built-in.o
                0x4a054630                EVP_PKEY_free
 .text.X509_PUBKEY_get
                0x4a054644       0xb4 lib/openssl/built-in.o
                0x4a054644                X509_PUBKEY_get
 .text.X509_get_pubkey
                0x4a0546f8       0x1c lib/openssl/built-in.o
                0x4a0546f8                X509_get_pubkey
 .text.i2d_PublicKey
                0x4a054714       0x4c lib/openssl/built-in.o
                0x4a054714                i2d_PublicKey
 .text.pubkey_cb
                0x4a054760       0x20 lib/openssl/built-in.o
 .text.X509_PUBKEY_it
                0x4a054780        0xc lib/openssl/built-in.o
                0x4a054780                X509_PUBKEY_it
 .text.bn_free  0x4a05478c        0x4 lib/openssl/built-in.o
 .text.bn_i2c   0x4a054790       0x6c lib/openssl/built-in.o
 .text.bn_new   0x4a0547fc       0x1c lib/openssl/built-in.o
 .text.bn_c2i   0x4a054818       0x40 lib/openssl/built-in.o
 .text.BIGNUM_it
                0x4a054858        0xc lib/openssl/built-in.o
                0x4a054858                BIGNUM_it
 .text.X509_CINF_it
                0x4a054864        0xc lib/openssl/built-in.o
                0x4a054864                X509_CINF_it
 .text.x509_cb  0x4a054870       0x64 lib/openssl/built-in.o
 .text.d2i_X509
                0x4a0548d4        0xc lib/openssl/built-in.o
                0x4a0548d4                d2i_X509
 .text.X509_free
                0x4a0548e0        0xc lib/openssl/built-in.o
                0x4a0548e0                X509_free
 .text.rsa_cb   0x4a0548ec       0x3c lib/openssl/built-in.o
 .text.d2i_RSAPublicKey
                0x4a054928        0xc lib/openssl/built-in.o
                0x4a054928                d2i_RSAPublicKey
 .text.i2d_RSAPublicKey
                0x4a054934        0xc lib/openssl/built-in.o
                0x4a054934                i2d_RSAPublicKey
 .text.asn1_ex_i2c
                0x4a054940      0x1a8 lib/openssl/built-in.o
                0x4a054940                asn1_ex_i2c
 .text.asn1_i2d_ex_primitive
                0x4a054ae8       0xe4 lib/openssl/built-in.o
 .text.ASN1_item_ex_i2d
                0x4a054bcc      0x344 lib/openssl/built-in.o
                0x4a054bcc                ASN1_item_ex_i2d
 .text.asn1_template_ex_i2d
                0x4a054f10      0x284 lib/openssl/built-in.o
 .text.ASN1_item_i2d
                0x4a055194       0x28 lib/openssl/built-in.o
                0x4a055194                ASN1_item_i2d
 .text.sk_new   0x4a0551bc       0x90 lib/openssl/built-in.o
                0x4a0551bc                sk_new
 .text.sk_new_null
                0x4a05524c        0x8 lib/openssl/built-in.o
                0x4a05524c                sk_new_null
 .text.sk_insert
                0x4a055254       0xbc lib/openssl/built-in.o
                0x4a055254                sk_insert
 .text.sk_push  0x4a055310        0x8 lib/openssl/built-in.o
                0x4a055310                sk_push
 .text.sk_free  0x4a055318       0x28 lib/openssl/built-in.o
                0x4a055318                sk_free
 .text.X509_EXTENSION_it
                0x4a055340        0xc lib/openssl/built-in.o
                0x4a055340                X509_EXTENSION_it
 .text.X509_ALGOR_it
                0x4a05534c        0xc lib/openssl/built-in.o
                0x4a05534c                X509_ALGOR_it
 .text.sk_num   0x4a055358       0x10 lib/openssl/built-in.o
                0x4a055358                sk_num
 .text.sk_value
                0x4a055368       0x2c lib/openssl/built-in.o
                0x4a055368                sk_value
 .text.BN_new   0x4a055394       0x64 lib/openssl/built-in.o
                0x4a055394                BN_new
 .text.bn_expand2
                0x4a0553f8      0x16c lib/openssl/built-in.o
                0x4a0553f8                bn_expand2
 .text.BN_num_bits_word
                0x4a055564       0x44 lib/openssl/built-in.o
                0x4a055564                BN_num_bits_word
 .text.BN_num_bits
                0x4a0555a8       0x30 lib/openssl/built-in.o
                0x4a0555a8                BN_num_bits
 .text.BN_bn2bin
                0x4a0555d8       0x70 lib/openssl/built-in.o
                0x4a0555d8                BN_bn2bin
 .text.BN_bin2bn
                0x4a055648       0xd8 lib/openssl/built-in.o
                0x4a055648                BN_bin2bn
 .text.ex_hash_cb
                0x4a055720        0x8 lib/openssl/built-in.o
 .text.ex_cmp_cb
                0x4a055728       0x10 lib/openssl/built-in.o
 .text.def_get_class
                0x4a055738       0xdc lib/openssl/built-in.o
 .text.int_free_ex_data
                0x4a055814       0xcc lib/openssl/built-in.o
 .text.int_new_ex_data
                0x4a0558e0       0xc4 lib/openssl/built-in.o
 .text.CRYPTO_new_ex_data
                0x4a0559a4       0x30 lib/openssl/built-in.o
                0x4a0559a4                CRYPTO_new_ex_data
 .text.CRYPTO_free_ex_data
                0x4a0559d4       0x30 lib/openssl/built-in.o
                0x4a0559d4                CRYPTO_free_ex_data
 .text.reset_BIO_reset
                0x4a055a04       0x20 lib/openssl/built-in.o
                0x4a055a04                reset_BIO_reset
 .text.BUF_MEM_grow_clean
                0x4a055a24       0xd4 lib/openssl/built-in.o
                0x4a055a24                BUF_MEM_grow_clean
 .text.getrn    0x4a055af8       0xb0 lib/openssl/built-in.o
 .text.lh_retrieve
                0x4a055ba8       0x40 lib/openssl/built-in.o
                0x4a055ba8                lh_retrieve
 .text.lh_insert
                0x4a055be8       0xa0 lib/openssl/built-in.o
                0x4a055be8                lh_insert
 .text.lh_new   0x4a055c88       0xf8 lib/openssl/built-in.o
                0x4a055c88                lh_new
 .text.RSA_new_method
                0x4a055d80       0xfc lib/openssl/built-in.o
                0x4a055d80                RSA_new_method
 .text.RSA_new  0x4a055e7c        0x8 lib/openssl/built-in.o
                0x4a055e7c                RSA_new
 .text.__asn1_probe_data_head
                0x4a055e84       0x80 lib/openssl/built-in.o
 .text.sunxi_certif_create
                0x4a055f04       0x40 lib/openssl/built-in.o
                0x4a055f04                sunxi_certif_create
 .text.sunxi_certif_free
                0x4a055f44       0x18 lib/openssl/built-in.o
                0x4a055f44                sunxi_certif_free
 .text.sunxi_certif_probe_pubkey
                0x4a055f5c      0x148 lib/openssl/built-in.o
                0x4a055f5c                sunxi_certif_probe_pubkey
 .text.sunxi_certif_mem_reset
                0x4a0560a4       0x18 lib/openssl/built-in.o
                0x4a0560a4                sunxi_certif_mem_reset
 .text.compare_regions
                0x4a0560bc       0x84 memtest/built-in.o
                0x4a0560bc                compare_regions
 .text.test_stuck_address
                0x4a056140      0x124 memtest/built-in.o
                0x4a056140                test_stuck_address
 .text.test_random_value
                0x4a056264       0xbc memtest/built-in.o
                0x4a056264                test_random_value
 .text.test_xor_comparison
                0x4a056320       0x68 memtest/built-in.o
                0x4a056320                test_xor_comparison
 .text.test_sub_comparison
                0x4a056388       0x68 memtest/built-in.o
                0x4a056388                test_sub_comparison
 .text.test_mul_comparison
                0x4a0563f0       0x68 memtest/built-in.o
                0x4a0563f0                test_mul_comparison
 .text.test_div_comparison
                0x4a056458       0x78 memtest/built-in.o
                0x4a056458                test_div_comparison
 .text.test_or_comparison
                0x4a0564d0       0x68 memtest/built-in.o
                0x4a0564d0                test_or_comparison
 .text.test_and_comparison
                0x4a056538       0x68 memtest/built-in.o
                0x4a056538                test_and_comparison
 .text.test_seqinc_comparison
                0x4a0565a0       0x5c memtest/built-in.o
                0x4a0565a0                test_seqinc_comparison
 .text.test_solidbits_comparison
                0x4a0565fc       0xd4 memtest/built-in.o
                0x4a0565fc                test_solidbits_comparison
 .text.test_checkerboard_comparison
                0x4a0566d0       0xe0 memtest/built-in.o
                0x4a0566d0                test_checkerboard_comparison
 .text.test_blockseq_comparison
                0x4a0567b0       0xc8 memtest/built-in.o
                0x4a0567b0                test_blockseq_comparison
 .text.test_walkbits0_comparison
                0x4a056878       0xe4 memtest/built-in.o
                0x4a056878                test_walkbits0_comparison
 .text.test_walkbits1_comparison
                0x4a05695c       0xe4 memtest/built-in.o
                0x4a05695c                test_walkbits1_comparison
 .text.test_bitspread_comparison
                0x4a056a40      0x140 memtest/built-in.o
                0x4a056a40                test_bitspread_comparison
 .text.test_bitflip_comparison
                0x4a056b80      0x100 memtest/built-in.o
                0x4a056b80                test_bitflip_comparison
 .text.NAND_set_boot_mode
                0x4a056c80       0x14 nand_sunxi/built-in.o
                0x4a056c80                NAND_set_boot_mode
 .text.NAND_Print
                0x4a056c94       0x4c nand_sunxi/built-in.o
                0x4a056c94                NAND_Print
 .text.NAND_Print_DBG
                0x4a056ce0       0x4c nand_sunxi/built-in.o
                0x4a056ce0                NAND_Print_DBG
 .text.NAND_CleanFlushDCacheRegion
                0x4a056d2c       0x10 nand_sunxi/built-in.o
                0x4a056d2c                NAND_CleanFlushDCacheRegion
 .text.NAND_DMASingleMap
                0x4a056d3c        0x8 nand_sunxi/built-in.o
                0x4a056d3c                NAND_DMASingleMap
 .text.NAND_DMASingleUnmap
                0x4a056d44        0x8 nand_sunxi/built-in.o
                0x4a056d44                NAND_DMASingleUnmap
 .text._Getpll6Clk
                0x4a056d4c       0x38 nand_sunxi/built-in.o
                0x4a056d4c                _Getpll6Clk
 .text._get_ndfc_clk_v1
                0x4a056d84       0x88 nand_sunxi/built-in.o
                0x4a056d84                _get_ndfc_clk_v1
 .text._change_ndfc_clk_v1
                0x4a056e0c      0x12c nand_sunxi/built-in.o
                0x4a056e0c                _change_ndfc_clk_v1
 .text._close_ndfc_clk_v1
                0x4a056f38       0x5c nand_sunxi/built-in.o
                0x4a056f38                _close_ndfc_clk_v1
 .text._open_ndfc_ahb_gate_and_reset_v1
                0x4a056f94       0x98 nand_sunxi/built-in.o
                0x4a056f94                _open_ndfc_ahb_gate_and_reset_v1
 .text._close_ndfc_ahb_gate_and_reset_v1
                0x4a05702c       0x6c nand_sunxi/built-in.o
                0x4a05702c                _close_ndfc_ahb_gate_and_reset_v1
 .text.NAND_ClkRequest
                0x4a057098       0x5c nand_sunxi/built-in.o
                0x4a057098                NAND_ClkRequest
 .text.NAND_ClkRelease
                0x4a0570f4       0x34 nand_sunxi/built-in.o
                0x4a0570f4                NAND_ClkRelease
 .text.NAND_SetClk
                0x4a057128       0x54 nand_sunxi/built-in.o
                0x4a057128                NAND_SetClk
 .text.NAND_GetClk
                0x4a05717c       0x2c nand_sunxi/built-in.o
                0x4a05717c                NAND_GetClk
 .text.NAND_PIORequest
                0x4a0571a8       0x70 nand_sunxi/built-in.o
                0x4a0571a8                NAND_PIORequest
 .text.NAND_PIORelease
                0x4a057218        0x4 nand_sunxi/built-in.o
                0x4a057218                NAND_PIORelease
 .text.NAND_Memset
                0x4a05721c        0x4 nand_sunxi/built-in.o
                0x4a05721c                NAND_Memset
 .text.NAND_Memcpy
                0x4a057220        0x4 nand_sunxi/built-in.o
                0x4a057220                NAND_Memcpy
 .text.NAND_Malloc
                0x4a057224       0x34 nand_sunxi/built-in.o
                0x4a057224                NAND_Malloc
 .text.NAND_Free
                0x4a057258        0x4 nand_sunxi/built-in.o
                0x4a057258                NAND_Free
 .text.NAND_GetIOBaseAddrCH0
                0x4a05725c        0xc nand_sunxi/built-in.o
                0x4a05725c                NAND_GetIOBaseAddrCH0
 .text.NAND_GetIOBaseAddrCH1
                0x4a057268        0xc nand_sunxi/built-in.o
                0x4a057268                NAND_GetIOBaseAddrCH1
 .text.NAND_GetNdfcVersion
                0x4a057274        0x8 nand_sunxi/built-in.o
                0x4a057274                NAND_GetNdfcVersion
 .text.NAND_GetNdfcDmaMode
                0x4a05727c        0x8 nand_sunxi/built-in.o
                0x4a05727c                NAND_GetNdfcDmaMode
 .text.NAND_PhysicLock
                0x4a057284        0x8 nand_sunxi/built-in.o
                0x4a057284                NAND_PhysicLock
 .text.NAND_PhysicUnLock
                0x4a05728c        0x8 nand_sunxi/built-in.o
                0x4a05728c                NAND_PhysicUnLock
 .text.NAND_GetMaxChannelCnt
                0x4a057294        0x8 nand_sunxi/built-in.o
                0x4a057294                NAND_GetMaxChannelCnt
 .text.nand_request_dma
                0x4a05729c       0x4c nand_sunxi/built-in.o
                0x4a05729c                nand_request_dma
 .text.NAND_ReleaseDMA
                0x4a0572e8       0x3c nand_sunxi/built-in.o
                0x4a0572e8                NAND_ReleaseDMA
 .text.nand_dma_config_start
                0x4a057324      0x164 nand_sunxi/built-in.o
                0x4a057324                nand_dma_config_start
 .text.NAND_GetNandExtPara
                0x4a057488      0x100 nand_sunxi/built-in.o
                0x4a057488                NAND_GetNandExtPara
 .text.NAND_GetNandIDNumCtrl
                0x4a057588       0x68 nand_sunxi/built-in.o
                0x4a057588                NAND_GetNandIDNumCtrl
 .text.NAND_GetNandCapacityLevel
                0x4a0575f0       0x68 nand_sunxi/built-in.o
                0x4a0575f0                NAND_GetNandCapacityLevel
 .text.nand_rb_wait_time_out
                0x4a057658        0x8 nand_sunxi/built-in.o
                0x4a057658                nand_rb_wait_time_out
 .text.nand_dma_wait_time_out
                0x4a057660        0x8 nand_sunxi/built-in.o
                0x4a057660                nand_dma_wait_time_out
 .text.NAND_IS_Secure_sys
                0x4a057668       0x2c nand_sunxi/built-in.o
                0x4a057668                NAND_IS_Secure_sys
 .text.NAND_GetVoltage
                0x4a057694        0x8 nand_sunxi/built-in.o
                0x4a057694                NAND_GetVoltage
 .text.NAND_ReleaseVoltage
                0x4a05769c        0x8 nand_sunxi/built-in.o
                0x4a05769c                NAND_ReleaseVoltage
 .text.NAND_Print_Version
                0x4a0576a4       0x2c nand_sunxi/built-in.o
                0x4a0576a4                NAND_Print_Version
 .text.NAND_PhyInit
                0x4a0576d0       0x44 nand_sunxi/built-in.o
                0x4a0576d0                NAND_PhyInit
 .text.NAND_PhyExit
                0x4a057714       0x1c nand_sunxi/built-in.o
                0x4a057714                NAND_PhyExit
 .text.NAND_LogicInit
                0x4a057730      0x1d4 nand_sunxi/built-in.o
                0x4a057730                NAND_LogicInit
 .text.NAND_LogicExit
                0x4a057904       0x2c nand_sunxi/built-in.o
                0x4a057904                NAND_LogicExit
 .text.NAND_VersionGet
                0x4a057930       0x34 nand_sunxi/built-in.o
                0x4a057930                NAND_VersionGet
 .text.NAND_VersionCheck
                0x4a057964      0x178 nand_sunxi/built-in.o
                0x4a057964                NAND_VersionCheck
 .text.NAND_EraseBootBlocks
                0x4a057adc       0x40 nand_sunxi/built-in.o
                0x4a057adc                NAND_EraseBootBlocks
 .text.NAND_EraseChip
                0x4a057b1c        0x8 nand_sunxi/built-in.o
                0x4a057b1c                NAND_EraseChip
 .text.NAND_EraseChip_force
                0x4a057b24        0x8 nand_sunxi/built-in.o
                0x4a057b24                NAND_EraseChip_force
 .text.NAND_UbootInit
                0x4a057b2c       0x70 nand_sunxi/built-in.o
                0x4a057b2c                NAND_UbootInit
 .text.NAND_UbootExit
                0x4a057b9c        0x4 nand_sunxi/built-in.o
                0x4a057b9c                NAND_UbootExit
 .text.NAND_UbootProbe
                0x4a057ba0       0x18 nand_sunxi/built-in.o
                0x4a057ba0                NAND_UbootProbe
 .text.NAND_UbootRead
                0x4a057bb8        0x4 nand_sunxi/built-in.o
                0x4a057bb8                NAND_UbootRead
 .text.NAND_UbootWrite
                0x4a057bbc        0x4 nand_sunxi/built-in.o
                0x4a057bbc                NAND_UbootWrite
 .text.NAND_Uboot_Erase
                0x4a057bc0       0x88 nand_sunxi/built-in.o
                0x4a057bc0                NAND_Uboot_Erase
 .text.NAND_Uboot_Force_Erase
                0x4a057c48       0x40 nand_sunxi/built-in.o
                0x4a057c48                NAND_Uboot_Force_Erase
 .text.NAND_BurnBoot0
                0x4a057c88       0x10 nand_sunxi/built-in.o
                0x4a057c88                NAND_BurnBoot0
 .text.NAND_ReadBoot0
                0x4a057c98       0x10 nand_sunxi/built-in.o
                0x4a057c98                NAND_ReadBoot0
 .text.NAND_BurnUboot
                0x4a057ca8       0x10 nand_sunxi/built-in.o
                0x4a057ca8                NAND_BurnUboot
 .text.NAND_GetParam_store
                0x4a057cb8       0x8c nand_sunxi/built-in.o
                0x4a057cb8                NAND_GetParam_store
 .text.NAND_FlushCache
                0x4a057d44        0x4 nand_sunxi/built-in.o
                0x4a057d44                NAND_FlushCache
 .text.nand_cfg_interface
                0x4a057d48        0x8 nand_sunxi/built-in.o
                0x4a057d48                nand_cfg_interface
 .text.nand_wait_rb_before
                0x4a057d50        0x8 nand_sunxi/built-in.o
                0x4a057d50                nand_wait_rb_before
 .text.nand_wait_rb_mode
                0x4a057d58        0x8 nand_sunxi/built-in.o
                0x4a057d58                nand_wait_rb_mode
 .text.nand_wait_dma_mode
                0x4a057d60        0x8 nand_sunxi/built-in.o
                0x4a057d60                nand_wait_dma_mode
 .text.nand_support_two_plane
                0x4a057d68        0x8 nand_sunxi/built-in.o
                0x4a057d68                nand_support_two_plane
 .text.nand_support_vertical_interleave
                0x4a057d70        0x8 nand_sunxi/built-in.o
                0x4a057d70                nand_support_vertical_interleave
 .text.nand_support_dual_channel
                0x4a057d78        0x8 nand_sunxi/built-in.o
                0x4a057d78                nand_support_dual_channel
 .text.nand_get_mbr
                0x4a057d80      0x1b4 nand_sunxi/built-in.o
                0x4a057d80                nand_get_mbr
 .text.nand_uboot_init
                0x4a057f34       0x5c nand_sunxi/built-in.o
                0x4a057f34                nand_uboot_init
 .text.nand_uboot_exit
                0x4a057f90       0x68 nand_sunxi/built-in.o
                0x4a057f90                nand_uboot_exit
 .text.nand_uboot_probe
                0x4a057ff8        0x4 nand_sunxi/built-in.o
                0x4a057ff8                nand_uboot_probe
 .text.nand_uboot_read
                0x4a057ffc       0x1c nand_sunxi/built-in.o
                0x4a057ffc                nand_uboot_read
 .text.nand_uboot_write
                0x4a058018       0x1c nand_sunxi/built-in.o
                0x4a058018                nand_uboot_write
 .text.nand_download_boot0
                0x4a058034       0x38 nand_sunxi/built-in.o
                0x4a058034                nand_download_boot0
 .text.nand_read_boot0
                0x4a05806c       0x10 nand_sunxi/built-in.o
                0x4a05806c                nand_read_boot0
 .text.nand_write_boot0
                0x4a05807c       0x50 nand_sunxi/built-in.o
                0x4a05807c                nand_write_boot0
 .text.nand_download_uboot
                0x4a0580cc       0x38 nand_sunxi/built-in.o
                0x4a0580cc                nand_download_uboot
 .text.nand_force_download_uboot
                0x4a058104       0x48 nand_sunxi/built-in.o
                0x4a058104                nand_force_download_uboot
 .text.nand_uboot_erase
                0x4a05814c        0x4 nand_sunxi/built-in.o
                0x4a05814c                nand_uboot_erase
 .text.nand_uboot_get_flash_info
                0x4a058150        0x4 nand_sunxi/built-in.o
                0x4a058150                nand_uboot_get_flash_info
 .text.nand_uboot_get_flash_size
                0x4a058154        0x4 nand_sunxi/built-in.o
                0x4a058154                nand_uboot_get_flash_size
 .text.nand_uboot_flush
                0x4a058158        0x4 nand_sunxi/built-in.o
                0x4a058158                nand_uboot_flush
 .text.__download_normal_part
                0x4a05815c      0x5f0 sprite/built-in.o
 .text.sprite_card_firmware_start
                0x4a05874c        0x8 sprite/built-in.o
                0x4a05874c                sprite_card_firmware_start
 .text.sprite_card_firmware_probe
                0x4a058754       0x24 sprite/built-in.o
                0x4a058754                sprite_card_firmware_probe
 .text.sprite_card_fetch_download_map
                0x4a058778       0x90 sprite/built-in.o
                0x4a058778                sprite_card_fetch_download_map
 .text.sprite_card_fetch_mbr
                0x4a058808       0x90 sprite/built-in.o
                0x4a058808                sprite_card_fetch_mbr
 .text.sunxi_sprite_deal_part
                0x4a058898      0x654 sprite/built-in.o
                0x4a058898                sunxi_sprite_deal_part
 .text.sunxi_sprite_deal_uboot
                0x4a058eec      0x120 sprite/built-in.o
                0x4a058eec                sunxi_sprite_deal_uboot
 .text.sunxi_sprite_deal_boot0
                0x4a05900c      0x120 sprite/built-in.o
                0x4a05900c                sunxi_sprite_deal_boot0
 .text.sunxi_sprite_deal_recorvery_boot
                0x4a05912c      0x234 sprite/built-in.o
                0x4a05912c                sunxi_sprite_deal_recorvery_boot
 .text.card_download_uboot
                0x4a059360       0x4c sprite/built-in.o
                0x4a059360                card_download_uboot
 .text.card_download_boot0
                0x4a0593ac       0xcc sprite/built-in.o
                0x4a0593ac                card_download_boot0
 .text.card_download_standard_mbr
                0x4a059478      0x298 sprite/built-in.o
                0x4a059478                card_download_standard_mbr
 .text.card_erase
                0x4a059710      0x2c4 sprite/built-in.o
                0x4a059710                card_erase
 .text.sunxi_sprite_deal_part_from_sysrevoery
                0x4a0599d4      0x1b0 sprite/built-in.o
                0x4a0599d4                sunxi_sprite_deal_part_from_sysrevoery
 .text.__imagehd
                0x4a059b84       0x1c sprite/built-in.o
                0x4a059b84                __imagehd
 .text.unsparse_probe
                0x4a059ba0       0xbc sprite/built-in.o
                0x4a059ba0                unsparse_probe
 .text.unsparse_direct_write
                0x4a059c5c      0x374 sprite/built-in.o
                0x4a059c5c                unsparse_direct_write
 .text.unsparse_checksum
                0x4a059fd0       0x10 sprite/built-in.o
                0x4a059fd0                unsparse_checksum
 .text.dump_dram_para
                0x4a059fe0       0x38 sprite/built-in.o
                0x4a059fe0                dump_dram_para
 .text.sunxi_sprite_download_mbr
                0x4a05a018       0xb0 sprite/built-in.o
                0x4a05a018                sunxi_sprite_download_mbr
 .text.sunxi_sprite_download_uboot
                0x4a05a0c8      0x148 sprite/built-in.o
                0x4a05a0c8                sunxi_sprite_download_uboot
 .text.sunxi_sprite_download_boot0
                0x4a05a210      0x2f4 sprite/built-in.o
                0x4a05a210                sunxi_sprite_download_boot0
 .text.sunxi_download_boot0_atfter_ota
                0x4a05a504      0x1b8 sprite/built-in.o
                0x4a05a504                sunxi_download_boot0_atfter_ota
 .text.add_sum  0x4a05a6bc       0x70 sprite/built-in.o
                0x4a05a6bc                add_sum
 .text.sunxi_sprite_part_rawdata_verify
                0x4a05a72c       0xf8 sprite/built-in.o
                0x4a05a72c                sunxi_sprite_part_rawdata_verify
 .text.sunxi_sprite_part_sparsedata_verify
                0x4a05a824        0x4 sprite/built-in.o
                0x4a05a824                sunxi_sprite_part_sparsedata_verify
 .text.sunxi_sprite_generate_checksum
                0x4a05a828       0x84 sprite/built-in.o
                0x4a05a828                sunxi_sprite_generate_checksum
 .text.sunxi_sprite_verify_checksum
                0x4a05a8ac       0x90 sprite/built-in.o
                0x4a05a8ac                sunxi_sprite_verify_checksum
 .text.sunxi_sprite_verify_mbr
                0x4a05a93c      0x250 sprite/built-in.o
                0x4a05a93c                sunxi_sprite_verify_mbr
 .text.sunxi_sprite_verify_dlmap
                0x4a05ab8c       0x58 sprite/built-in.o
                0x4a05ab8c                sunxi_sprite_verify_dlmap
 .text.Img_Open
                0x4a05abe4      0x144 sprite/built-in.o
                0x4a05abe4                Img_Open
 .text.Img_GetSize
                0x4a05ad28       0x6c sprite/built-in.o
                0x4a05ad28                Img_GetSize
 .text.Img_OpenItem
                0x4a05ad94      0x110 sprite/built-in.o
                0x4a05ad94                Img_OpenItem
 .text.Img_GetItemSize
                0x4a05aea4       0x9c sprite/built-in.o
                0x4a05aea4                Img_GetItemSize
 .text.Img_GetItemStart
                0x4a05af40       0xd4 sprite/built-in.o
                0x4a05af40                Img_GetItemStart
 .text.Img_ReadItem
                0x4a05b014      0x160 sprite/built-in.o
                0x4a05b014                Img_ReadItem
 .text.Img_CloseItem
                0x4a05b174       0x2c sprite/built-in.o
                0x4a05b174                Img_CloseItem
 .text.Img_Close
                0x4a05b1a0       0x70 sprite/built-in.o
                0x4a05b1a0                Img_Close
 .text.sunxi_sprite_store_part_data
                0x4a05b210      0x2c8 sprite/built-in.o
                0x4a05b210                sunxi_sprite_store_part_data
 .text.sunxi_sprite_restore_part_data
                0x4a05b4d8      0x200 sprite/built-in.o
                0x4a05b4d8                sunxi_sprite_restore_part_data
 .text.sunxi_sprite_probe_prvt
                0x4a05b6d8       0xa0 sprite/built-in.o
                0x4a05b6d8                sunxi_sprite_probe_prvt
 .text.sunxi_sprite_erase_private_key
                0x4a05b778      0x198 sprite/built-in.o
                0x4a05b778                sunxi_sprite_erase_private_key
 .text.sprite_card_finish_tip
                0x4a05b910       0x5c sprite/built-in.o
                0x4a05b910                sprite_card_finish_tip
 .text.__dump_dlmap
                0x4a05b96c      0x1e0 sprite/built-in.o
                0x4a05b96c                __dump_dlmap
 .text.__dump_mbr
                0x4a05bb4c      0x1d8 sprite/built-in.o
                0x4a05bb4c                __dump_mbr
 .text.sunxi_card_sprite_main
                0x4a05bd24      0x304 sprite/built-in.o
                0x4a05bd24                sunxi_card_sprite_main
 .text.sunxi_sprite_erase_flash
                0x4a05c028      0x22c sprite/built-in.o
                0x4a05c028                sunxi_sprite_erase_flash
 .text.sunxi_sprite_force_erase_key
                0x4a05c254       0xbc sprite/built-in.o
                0x4a05c254                sunxi_sprite_force_erase_key
 .text.Img_Open_from_sysrecovery
                0x4a05c310      0x104 sprite/built-in.o
                0x4a05c310                Img_Open_from_sysrecovery
 .text.card_part_info
                0x4a05c414       0xa8 sprite/built-in.o
                0x4a05c414                card_part_info
 .text.sprite_erase_partition_by_name
                0x4a05c4bc       0xf0 sprite/built-in.o
 .text.sprite_form_sysrecovery
                0x4a05c5ac      0x1d8 sprite/built-in.o
                0x4a05c5ac                sprite_form_sysrecovery
 .text.sprite_timer_func
                0x4a05c784       0x54 sprite/built-in.o
 .text.sprite_led_init
                0x4a05c7d8      0x13c sprite/built-in.o
                0x4a05c7d8                sprite_led_init
 .text.sprite_led_exit
                0x4a05c914       0xd4 sprite/built-in.o
                0x4a05c914                sprite_led_exit
 .text.post_cmd_wait_resp
                0x4a05c9e8      0x20c sprite/built-in.o
 .text.sst_oem_item_id
                0x4a05cbf4       0x60 sprite/built-in.o
                0x4a05cbf4                sst_oem_item_id
 .text.smc_load_sst_encrypt
                0x4a05cc54      0x124 sprite/built-in.o
                0x4a05cc54                smc_load_sst_encrypt
 .text.smc_load_sst_decrypt
                0x4a05cd78      0x180 sprite/built-in.o
                0x4a05cd78                smc_load_sst_decrypt
 .text.smc_set_sst_crypt_name
                0x4a05cef8       0x78 sprite/built-in.o
                0x4a05cef8                smc_set_sst_crypt_name
 .text.smc_load_sst_test
                0x4a05cf70      0x144 sprite/built-in.o
                0x4a05cf70                smc_load_sst_test
 .text.check_secure_storage_map
                0x4a05d0b4       0x6c sprite/built-in.o
 .text.check_secure_storage_key
                0x4a05d120       0x60 sprite/built-in.o
 .text.__probe_name_in_map.constprop.3
                0x4a05d180       0xf0 sprite/built-in.o
 .text.sunxi_secstorage_read
                0x4a05d270      0x404 sprite/built-in.o
                0x4a05d270                sunxi_secstorage_read
 .text.sunxi_secstorage_write
                0x4a05d674       0xc0 sprite/built-in.o
                0x4a05d674                sunxi_secstorage_write
 .text.sunxi_secure_storage_init
                0x4a05d734       0x90 sprite/built-in.o
                0x4a05d734                sunxi_secure_storage_init
 .text.sunxi_secure_storage_exit
                0x4a05d7c4       0xb0 sprite/built-in.o
                0x4a05d7c4                sunxi_secure_storage_exit
 .text.sunxi_secure_storage_list
                0x4a05d874      0x150 sprite/built-in.o
                0x4a05d874                sunxi_secure_storage_list
 .text.sunxi_secure_storage_read
                0x4a05d9c4       0xf4 sprite/built-in.o
                0x4a05d9c4                sunxi_secure_storage_read
 .text.sunxi_secure_storage_erase_data_only
                0x4a05dab8       0xdc sprite/built-in.o
                0x4a05dab8                sunxi_secure_storage_erase_data_only
 .text.sunxi_secure_storage_write
                0x4a05db94      0x1d4 sprite/built-in.o
                0x4a05db94                sunxi_secure_storage_write
 .text.sunxi_secure_storage_erase_all
                0x4a05dd68       0x84 sprite/built-in.o
                0x4a05dd68                sunxi_secure_storage_erase_all
 .text.clear_secure_store
                0x4a05ddec       0xb0 sprite/built-in.o
 .text.sunxi_secure_object_read
                0x4a05de9c      0x11c sprite/built-in.o
                0x4a05de9c                sunxi_secure_object_read
 .text.sunxi_secure_object_list
                0x4a05dfb8      0x1dc sprite/built-in.o
 .text.cmd_secure_object
                0x4a05e194      0x180 sprite/built-in.o
 .text.sunxi_secure_object_set
                0x4a05e314       0x84 sprite/built-in.o
                0x4a05e314                sunxi_secure_object_set
 .text.sunxi_secure_object_write
                0x4a05e398       0xf4 sprite/built-in.o
                0x4a05e398                sunxi_secure_object_write
 .text.sunxi_secure_object_down
                0x4a05e48c      0x168 sprite/built-in.o
                0x4a05e48c                sunxi_secure_object_down
 .text.sunxi_secure_object_up
                0x4a05e5f4       0x88 sprite/built-in.o
                0x4a05e5f4                sunxi_secure_object_up
 .text.sunxi_widevine_keybox_install
                0x4a05e67c       0xc4 sprite/built-in.o
                0x4a05e67c                sunxi_widevine_keybox_install
 .text.sunxi_mass_reset
                0x4a05e740       0x20 usb_sunxi/built-in.o
 .text.sunxi_mass_usb_rx_dma_isr
                0x4a05e760       0x14 usb_sunxi/built-in.o
 .text.sunxi_mass_usb_tx_dma_isr
                0x4a05e774        0x4 usb_sunxi/built-in.o
 .text.sunxi_mass_state_loop
                0x4a05e778      0x590 usb_sunxi/built-in.o
 .text.sunxi_mass_standard_req_op
                0x4a05ed08      0x4dc usb_sunxi/built-in.o
 .text.sunxi_mass_exit
                0x4a05f1e4       0x34 usb_sunxi/built-in.o
 .text.sunxi_mass_nonstandard_req_op
                0x4a05f218       0x60 usb_sunxi/built-in.o
 .text.sunxi_mass_init
                0x4a05f278       0x94 usb_sunxi/built-in.o
 .text.sunxi_efex_reset
                0x4a05f30c       0x3c usb_sunxi/built-in.o
 .text.sunxi_efex_usb_rx_dma_isr
                0x4a05f348       0x14 usb_sunxi/built-in.o
 .text.sunxi_efex_usb_tx_dma_isr
                0x4a05f35c        0x4 usb_sunxi/built-in.o
 .text.__sunxi_usb_efex_fill_status
                0x4a05f360       0x48 usb_sunxi/built-in.o
 .text.__sunxi_usb_efex_op_cmd
                0x4a05f3a8      0x91c usb_sunxi/built-in.o
 .text.dram_data_recv_finish
                0x4a05fcc4      0x268 usb_sunxi/built-in.o
 .text.sunxi_efex_state_loop
                0x4a05ff2c      0x770 usb_sunxi/built-in.o
 .text.sunxi_efex_standard_req_op
                0x4a06069c      0x460 usb_sunxi/built-in.o
 .text.sunxi_efex_exit
                0x4a060afc       0x50 usb_sunxi/built-in.o
 .text.sunxi_efex_init
                0x4a060b4c       0xe0 usb_sunxi/built-in.o
 .text.sunxi_efex_nonstandard_req_op
                0x4a060c2c       0x60 usb_sunxi/built-in.o
 .text.sunxi_fastboot_reset
                0x4a060c8c       0x20 usb_sunxi/built-in.o
 .text.sunxi_fastboot_nonstandard_req_op
                0x4a060cac        0x8 usb_sunxi/built-in.o
 .text.sunxi_fastboot_usb_tx_dma_isr
                0x4a060cb4        0xc usb_sunxi/built-in.o
 .text.sunxi_fastboot_usb_rx_dma_isr
                0x4a060cc0       0x24 usb_sunxi/built-in.o
 .text.sunxi_fastboot_locked
                0x4a060ce4       0x38 usb_sunxi/built-in.o
 .text.__fastboot_reboot
                0x4a060d1c       0x44 usb_sunxi/built-in.o
 .text.__limited_fastboot
                0x4a060d60       0x50 usb_sunxi/built-in.o
 .text.sunxi_fastboot_state_loop
                0x4a060db0      0xa80 usb_sunxi/built-in.o
 .text.sunxi_fastboot_standard_req_op
                0x4a061830      0x4dc usb_sunxi/built-in.o
 .text.sunxi_fastboot_exit
                0x4a061d0c       0x30 usb_sunxi/built-in.o
 .text.sunxi_fastboot_init
                0x4a061d3c       0xbc usb_sunxi/built-in.o
 .text.sunxi_pburn_reset
                0x4a061df8       0x20 usb_sunxi/built-in.o
 .text.sunxi_pburn_usb_rx_dma_isr
                0x4a061e18       0x14 usb_sunxi/built-in.o
 .text.sunxi_pburn_usb_tx_dma_isr
                0x4a061e2c        0x4 usb_sunxi/built-in.o
 .text.sunxi_pburn_exit
                0x4a061e30       0x48 usb_sunxi/built-in.o
 .text.sunxi_pburn_standard_req_op
                0x4a061e78      0x458 usb_sunxi/built-in.o
 .text.sunxi_pburn_init
                0x4a0622d0       0x94 usb_sunxi/built-in.o
 .text.sunxi_pburn_nonstandard_req_op
                0x4a062364       0x60 usb_sunxi/built-in.o
 .text.sunxi_deal_hdcp_key
                0x4a0623c4       0x94 usb_sunxi/built-in.o
                0x4a0623e4                sunxi_deal_hdcp_key
 .text.__sunxi_burn_key
                0x4a062458      0x2ec usb_sunxi/built-in.o
                0x4a062458                __sunxi_burn_key
 .text.__sunxi_read_key_by_name
                0x4a062744      0x248 usb_sunxi/built-in.o
                0x4a062744                __sunxi_read_key_by_name
 .text.__sunxi_erase_key
                0x4a06298c       0x64 usb_sunxi/built-in.o
                0x4a06298c                __sunxi_erase_key
 .text.__sunxi_burn_flag
                0x4a0629f0       0x6c usb_sunxi/built-in.o
                0x4a0629f0                __sunxi_burn_flag
 .text.sunxi_burn_part_verify
                0x4a062a5c       0x94 usb_sunxi/built-in.o
                0x4a062a5c                sunxi_burn_part_verify
 .text.burn_part_probe
                0x4a062af0      0x1a4 usb_sunxi/built-in.o
                0x4a062af0                burn_part_probe
 .text.sunxi_pburn_state_loop
                0x4a062c94     0x10a8 usb_sunxi/built-in.o
 .text.sunxi_usb_dev_register
                0x4a063d3c       0x68 usb_sunxi/built-in.o
                0x4a063d3c                sunxi_usb_dev_register
 .text.buf_queue_init
                0x4a063da4      0x19c usb_sunxi/built-in.o
                0x4a063da4                buf_queue_init
 .text.buf_queue_exit
                0x4a063f40       0x94 usb_sunxi/built-in.o
                0x4a063f40                buf_queue_exit
 .text.buf_queue_empty
                0x4a063fd4       0x18 usb_sunxi/built-in.o
                0x4a063fd4                buf_queue_empty
 .text.buf_queue_full
                0x4a063fec       0x28 usb_sunxi/built-in.o
                0x4a063fec                buf_queue_full
 .text.buf_queue_free_size
                0x4a064014       0x20 usb_sunxi/built-in.o
                0x4a064014                buf_queue_free_size
 .text.buf_queue_get_page_size
                0x4a064034       0x10 usb_sunxi/built-in.o
                0x4a064034                buf_queue_get_page_size
 .text.buf_enqueue
                0x4a064044       0x8c usb_sunxi/built-in.o
                0x4a064044                buf_enqueue
 .text.buf_dequeue
                0x4a0640d0       0x70 usb_sunxi/built-in.o
                0x4a0640d0                buf_dequeue
 .text.efex_queue_init
                0x4a064140       0x78 usb_sunxi/built-in.o
                0x4a064140                efex_queue_init
 .text.efex_queue_exit
                0x4a0641b8       0x24 usb_sunxi/built-in.o
                0x4a0641b8                efex_queue_exit
 .text.efex_queue_write_one_page
                0x4a0641dc       0x54 usb_sunxi/built-in.o
                0x4a0641dc                efex_queue_write_one_page
 .text.efex_queue_write_all_page
                0x4a064230       0x68 usb_sunxi/built-in.o
                0x4a064230                efex_queue_write_all_page
 .text.efex_save_buff_to_queue
                0x4a064298       0xe0 usb_sunxi/built-in.o
                0x4a064298                efex_save_buff_to_queue
 .text.hdcp_key_parse
                0x4a064378       0xb8 usb_sunxi/built-in.o
                0x4a064378                hdcp_key_parse
 .text.hdcp_key_convert
                0x4a064430       0x50 usb_sunxi/built-in.o
                0x4a064430                hdcp_key_convert
 .text.__usb_bulk_ep_reset
                0x4a064480       0xe4 usb_sunxi/built-in.o
 .text.__usb_readcomplete.constprop.5
                0x4a064564       0x38 usb_sunxi/built-in.o
 .text.__usb_read_ep0_data
                0x4a06459c       0x98 usb_sunxi/built-in.o
 .text.sunxi_usb_irq
                0x4a064634      0x7ec usb_sunxi/built-in.o
                0x4a064634                sunxi_usb_irq
 .text.__usb_writecomplete.constprop.4
                0x4a064e20       0x4c usb_sunxi/built-in.o
 .text.sunxi_usb_init
                0x4a064e6c      0x2a8 usb_sunxi/built-in.o
                0x4a064e6c                sunxi_usb_init
 .text.sunxi_usb_exit
                0x4a065114       0xa4 usb_sunxi/built-in.o
                0x4a065114                sunxi_usb_exit
 .text.sunxi_udc_ep_reset
                0x4a0651b8        0x4 usb_sunxi/built-in.o
                0x4a0651b8                sunxi_udc_ep_reset
 .text.sunxi_udc_start_recv_by_dma
                0x4a0651bc       0x94 usb_sunxi/built-in.o
                0x4a0651bc                sunxi_udc_start_recv_by_dma
 .text.sunxi_udc_send_setup
                0x4a065250       0x48 usb_sunxi/built-in.o
                0x4a065250                sunxi_udc_send_setup
 .text.sunxi_udc_set_configuration
                0x4a065298        0x8 usb_sunxi/built-in.o
                0x4a065298                sunxi_udc_set_configuration
 .text.sunxi_udc_set_address
                0x4a0652a0       0x28 usb_sunxi/built-in.o
                0x4a0652a0                sunxi_udc_set_address
 .text.sunxi_udc_send_data
                0x4a0652c8       0xa0 usb_sunxi/built-in.o
                0x4a0652c8                sunxi_udc_send_data
 .text.sunxi_udc_get_ep_max
                0x4a065368       0x10 usb_sunxi/built-in.o
                0x4a065368                sunxi_udc_get_ep_max
 .text.sunxi_udc_get_ep_in_type
                0x4a065378        0x8 usb_sunxi/built-in.o
                0x4a065378                sunxi_udc_get_ep_in_type
 .text.sunxi_udc_get_ep_out_type
                0x4a065380        0x8 usb_sunxi/built-in.o
                0x4a065380                sunxi_udc_get_ep_out_type
 .text.sunxi_usb_main_loop
                0x4a065388       0x7c usb_sunxi/built-in.o
                0x4a065388                sunxi_usb_main_loop
 .text.sunxi_usb_extern_loop
                0x4a065404       0x24 usb_sunxi/built-in.o
                0x4a065404                sunxi_usb_extern_loop
 .text.__usb_index_check
                0x4a065428       0x48 usb_sunxi/built-in.o
 .text.usb_dma_init
                0x4a065470       0x14 usb_sunxi/built-in.o
                0x4a065470                usb_dma_init
 .text.usb_dma_request
                0x4a065484       0x3c usb_sunxi/built-in.o
                0x4a065484                usb_dma_request
 .text.usb_dma_release
                0x4a0654c0       0x20 usb_sunxi/built-in.o
                0x4a0654c0                usb_dma_release
 .text.usb_dma_setting
                0x4a0654e0       0x3c usb_sunxi/built-in.o
                0x4a0654e0                usb_dma_setting
 .text.usb_dma_set_pktlen
                0x4a06551c       0x34 usb_sunxi/built-in.o
                0x4a06551c                usb_dma_set_pktlen
 .text.usb_dma_start
                0x4a065550       0x3c usb_sunxi/built-in.o
                0x4a065550                usb_dma_start
 .text.usb_dma_stop
                0x4a06558c       0x2c usb_sunxi/built-in.o
                0x4a06558c                usb_dma_stop
 .text.usb_dma_int_query
                0x4a0655b8       0x10 usb_sunxi/built-in.o
                0x4a0655b8                usb_dma_int_query
 .text.usb_dma_int_clear
                0x4a0655c8       0x10 usb_sunxi/built-in.o
                0x4a0655c8                usb_dma_int_clear
 .text.raise    0x4a0655d8       0x1c arch/arm/lib/eabi_compat.o
                0x4a0655d8                raise
 *fill*         0x4a0655f4        0x4 00
 .text          0x4a0655f8      0x278 /home/orange/OPEN_SOURCE/OrangePi_H5SDK/toolchain/gcc-linaro-aarch/gcc-linaro/bin/../lib/gcc/arm-linux-gnueabi/4.6.3/libgcc.a(_udivsi3.o)
                0x4a0655f8                __udivsi3
                0x4a0655f8                __aeabi_uidiv
                0x4a065854                __aeabi_uidivmod
 .text          0x4a065870      0x2b0 /home/orange/OPEN_SOURCE/OrangePi_H5SDK/toolchain/gcc-linaro-aarch/gcc-linaro/bin/../lib/gcc/arm-linux-gnueabi/4.6.3/libgcc.a(_divsi3.o)
                0x4a065870                __divsi3
                0x4a065870                __aeabi_idiv
                0x4a065b04                __aeabi_idivmod
 .text          0x4a065b20       0x18 /home/orange/OPEN_SOURCE/OrangePi_H5SDK/toolchain/gcc-linaro-aarch/gcc-linaro/bin/../lib/gcc/arm-linux-gnueabi/4.6.3/libgcc.a(_lshrdi3.o)
                0x4a065b20                __aeabi_llsr
                0x4a065b20                __lshrdi3
 .text          0x4a065b38       0x1c /home/orange/OPEN_SOURCE/OrangePi_H5SDK/toolchain/gcc-linaro-aarch/gcc-linaro/bin/../lib/gcc/arm-linux-gnueabi/4.6.3/libgcc.a(_ashrdi3.o)
                0x4a065b38                __aeabi_lasr
                0x4a065b38                __ashrdi3
 .text          0x4a065b54       0x18 /home/orange/OPEN_SOURCE/OrangePi_H5SDK/toolchain/gcc-linaro-aarch/gcc-linaro/bin/../lib/gcc/arm-linux-gnueabi/4.6.3/libgcc.a(_ashldi3.o)
                0x4a065b54                __aeabi_llsl
                0x4a065b54                __ashldi3
 .text          0x4a065b6c        0xc /home/orange/OPEN_SOURCE/OrangePi_H5SDK/toolchain/gcc-linaro-aarch/gcc-linaro/bin/../lib/gcc/arm-linux-gnueabi/4.6.3/libgcc.a(_dvmd_lnx.o)
                0x4a065b6c                __aeabi_ldiv0
                0x4a065b6c                __aeabi_idiv0
 .text.add_free_list
                0x4a065b78       0x48 nand_sunxi/sun50iw2p1/libnand-sun50iw2p1
                0x4a065b78                add_free_list
 .text.del_free_list
                0x4a065bc0       0x34 nand_sunxi/sun50iw2p1/libnand-sun50iw2p1
                0x4a065bc0                del_free_list
 .text.del_free_list_by_block
                0x4a065bf4       0x48 nand_sunxi/sun50iw2p1/libnand-sun50iw2p1
                0x4a065bf4                del_free_list_by_block
 .text.is_block_in_free_list
                0x4a065c3c       0x28 nand_sunxi/sun50iw2p1/libnand-sun50iw2p1
                0x4a065c3c                is_block_in_free_list
 .text.print_free_list
                0x4a065c64       0x60 nand_sunxi/sun50iw2p1/libnand-sun50iw2p1
                0x4a065c64                print_free_list
 .text.add_block_invalid_list
                0x4a065cc4       0x48 nand_sunxi/sun50iw2p1/libnand-sun50iw2p1
                0x4a065cc4                add_block_invalid_list
 .text.del_block_invalid_list
                0x4a065d0c       0x2c nand_sunxi/sun50iw2p1/libnand-sun50iw2p1
                0x4a065d0c                del_block_invalid_list
 .text.del_block_invalid_list_by_block
                0x4a065d38       0x48 nand_sunxi/sun50iw2p1/libnand-sun50iw2p1
                0x4a065d38                del_block_invalid_list_by_block
 .text.is_block_in_invalid_list
                0x4a065d80       0x28 nand_sunxi/sun50iw2p1/libnand-sun50iw2p1
                0x4a065d80                is_block_in_invalid_list
 .text.print_block_invalid_list
                0x4a065da8       0x64 nand_sunxi/sun50iw2p1/libnand-sun50iw2p1
                0x4a065da8                print_block_invalid_list
 .text.add_block_count_list
                0x4a065e0c       0x48 nand_sunxi/sun50iw2p1/libnand-sun50iw2p1
                0x4a065e0c                add_block_count_list
 .text.put_phy_block_to_free_list
                0x4a065e54       0x40 nand_sunxi/sun50iw2p1/libnand-sun50iw2p1
                0x4a065e54                put_phy_block_to_free_list
 .text.out_phy_block_from_free_list
                0x4a065e94       0x34 nand_sunxi/sun50iw2p1/libnand-sun50iw2p1
                0x4a065e94                out_phy_block_from_free_list
 .text.out_phy_block_from_free_list_by_block
                0x4a065ec8       0x34 nand_sunxi/sun50iw2p1/libnand-sun50iw2p1
                0x4a065ec8                out_phy_block_from_free_list_by_block
 .text.out_phy_block_from_free_list_by_erase_time
                0x4a065efc       0x54 nand_sunxi/sun50iw2p1/libnand-sun50iw2p1
                0x4a065efc                out_phy_block_from_free_list_by_erase_time
 .text.put_phy_block_to_invalid_page_list
                0x4a065f50       0x30 nand_sunxi/sun50iw2p1/libnand-sun50iw2p1
                0x4a065f50                put_phy_block_to_invalid_page_list
 .text.out_phy_block_from_invalid_page_list
                0x4a065f80       0x1c nand_sunxi/sun50iw2p1/libnand-sun50iw2p1
                0x4a065f80                out_phy_block_from_invalid_page_list
 .text.out_phy_block_from_invalid_page_list_by_block
                0x4a065f9c       0x1c nand_sunxi/sun50iw2p1/libnand-sun50iw2p1
                0x4a065f9c                out_phy_block_from_invalid_page_list_by_block
 .text.phy_block_from_invalid_page_incr
                0x4a065fb8       0xe0 nand_sunxi/sun50iw2p1/libnand-sun50iw2p1
                0x4a065fb8                phy_block_from_invalid_page_incr
 .text.adjust_invaild_list
                0x4a066098       0x48 nand_sunxi/sun50iw2p1/libnand-sun50iw2p1
                0x4a066098                adjust_invaild_list
 .text._nftl_nand_read_logic_page
                0x4a0660e0       0xe0 nand_sunxi/sun50iw2p1/libnand-sun50iw2p1
                0x4a0660e0                _nftl_nand_read_logic_page
 .text.do_write_error
                0x4a0661c0      0x208 nand_sunxi/sun50iw2p1/libnand-sun50iw2p1
                0x4a0661c0                do_write_error
 .text.write_phy_data_to_current_block
                0x4a0663c8      0x1b0 nand_sunxi/sun50iw2p1/libnand-sun50iw2p1
                0x4a0663c8                write_phy_data_to_current_block
 .text.write_logic_data_to_current_block
                0x4a066578      0x234 nand_sunxi/sun50iw2p1/libnand-sun50iw2p1
                0x4a066578                write_logic_data_to_current_block
 .text.write_data_to_page
                0x4a0667ac       0x70 nand_sunxi/sun50iw2p1/libnand-sun50iw2p1
                0x4a0667ac                write_data_to_page
 .text._nftl_discard_logic_page
                0x4a06681c       0x14 nand_sunxi/sun50iw2p1/libnand-sun50iw2p1
                0x4a06681c                _nftl_discard_logic_page
 .text.get_new_current_block
                0x4a066830       0xc0 nand_sunxi/sun50iw2p1/libnand-sun50iw2p1
                0x4a066830                get_new_current_block
 .text.new_block_init_for_write
                0x4a0668f0       0xb4 nand_sunxi/sun50iw2p1/libnand-sun50iw2p1
                0x4a0668f0                new_block_init_for_write
 .text.do_before_write
                0x4a0669a4      0x104 nand_sunxi/sun50iw2p1/libnand-sun50iw2p1
                0x4a0669a4                do_before_write
 .text.check_invalid_page_right
                0x4a066aa8       0xb0 nand_sunxi/sun50iw2p1/libnand-sun50iw2p1
                0x4a066aa8                check_invalid_page_right
 .text.write_phy_page_map_to_current_block
                0x4a066b58       0xbc nand_sunxi/sun50iw2p1/libnand-sun50iw2p1
                0x4a066b58                write_phy_page_map_to_current_block
 .text.nftl_ops_init
                0x4a066c14       0x94 nand_sunxi/sun50iw2p1/libnand-sun50iw2p1
                0x4a066c14                nftl_ops_init
 .text.current_block_at_last_page
                0x4a066ca8       0x20 nand_sunxi/sun50iw2p1/libnand-sun50iw2p1
                0x4a066ca8                current_block_at_last_page
 .text.do_after_write
                0x4a066cc8       0xc8 nand_sunxi/sun50iw2p1/libnand-sun50iw2p1
                0x4a066cc8                do_after_write
 .text.nand_write_data_page
                0x4a066d90       0xb8 nand_sunxi/sun50iw2p1/libnand-sun50iw2p1
                0x4a066d90                nand_write_data_page
 .text.nand_write_logic_page_no_gc
                0x4a066e48       0x14 nand_sunxi/sun50iw2p1/libnand-sun50iw2p1
                0x4a066e48                nand_write_logic_page_no_gc
 .text._nftl_nand_write_logic_page
                0x4a066e5c       0x40 nand_sunxi/sun50iw2p1/libnand-sun50iw2p1
                0x4a066e5c                _nftl_nand_write_logic_page
 .text.get_empty_gc_node
                0x4a066e9c       0x38 nand_sunxi/sun50iw2p1/libnand-sun50iw2p1
                0x4a066e9c                get_empty_gc_node
 .text.search_gc_node
                0x4a066ed4       0x24 nand_sunxi/sun50iw2p1/libnand-sun50iw2p1
                0x4a066ed4                search_gc_node
 .text.add_to_gc_list_tail
                0x4a066ef8       0x38 nand_sunxi/sun50iw2p1/libnand-sun50iw2p1
                0x4a066ef8                add_to_gc_list_tail
 .text.del_from_gc_list
                0x4a066f30       0x3c nand_sunxi/sun50iw2p1/libnand-sun50iw2p1
                0x4a066f30                del_from_gc_list
 .text.add_prio_gc
                0x4a066f6c       0x4c nand_sunxi/sun50iw2p1/libnand-sun50iw2p1
                0x4a066f6c                add_prio_gc
 .text.is_current_blcok
                0x4a066fb8       0x44 nand_sunxi/sun50iw2p1/libnand-sun50iw2p1
                0x4a066fb8                is_current_blcok
 .text.garbage_collect_first
                0x4a066ffc      0x3e4 nand_sunxi/sun50iw2p1/libnand-sun50iw2p1
                0x4a066ffc                garbage_collect_first
 .text.gc_one   0x4a0673e0       0x70 nand_sunxi/sun50iw2p1/libnand-sun50iw2p1
                0x4a0673e0                gc_one
 .text.gc_win_block
                0x4a067450       0x64 nand_sunxi/sun50iw2p1/libnand-sun50iw2p1
                0x4a067450                gc_win_block
 .text.garbage_collect
                0x4a0674b4      0x148 nand_sunxi/sun50iw2p1/libnand-sun50iw2p1
                0x4a0674b4                garbage_collect
 .text.do_prio_gc
                0x4a0675fc      0x18c nand_sunxi/sun50iw2p1/libnand-sun50iw2p1
                0x4a0675fc                do_prio_gc
 .text.nftl_cache_init
                0x4a067788      0x10c nand_sunxi/sun50iw2p1/libnand-sun50iw2p1
                0x4a067788                nftl_cache_init
 .text.search_from_cache_read_list
                0x4a067894       0x24 nand_sunxi/sun50iw2p1/libnand-sun50iw2p1
                0x4a067894                search_from_cache_read_list
 .text.search_from_cache_write_list
                0x4a0678b8       0x24 nand_sunxi/sun50iw2p1/libnand-sun50iw2p1
                0x4a0678b8                search_from_cache_write_list
 .text.get_empty_cahce_node
                0x4a0678dc       0x44 nand_sunxi/sun50iw2p1/libnand-sun50iw2p1
                0x4a0678dc                get_empty_cahce_node
 .text.add_to_cache_read_list_tail
                0x4a067920       0x3c nand_sunxi/sun50iw2p1/libnand-sun50iw2p1
                0x4a067920                add_to_cache_read_list_tail
 .text.add_to_cache_write_list_tail
                0x4a06795c       0x40 nand_sunxi/sun50iw2p1/libnand-sun50iw2p1
                0x4a06795c                add_to_cache_write_list_tail
 .text.del_from_cache_read_list
                0x4a06799c       0x44 nand_sunxi/sun50iw2p1/libnand-sun50iw2p1
                0x4a06799c                del_from_cache_read_list
 .text.nand_cache_read
                0x4a0679e0      0x27c nand_sunxi/sun50iw2p1/libnand-sun50iw2p1
                0x4a0679e0                nand_cache_read
 .text.del_from_cache_write_list
                0x4a067c5c       0x44 nand_sunxi/sun50iw2p1/libnand-sun50iw2p1
                0x4a067c5c                del_from_cache_write_list
 .text.nand_op  0x4a067ca0      0x124 nand_sunxi/sun50iw2p1/libnand-sun50iw2p1
                0x4a067ca0                nand_op
 .text.__nand_write
                0x4a067dc4       0x60 nand_sunxi/sun50iw2p1/libnand-sun50iw2p1
                0x4a067dc4                __nand_write
 .text.__nand_read
                0x4a067e24       0x60 nand_sunxi/sun50iw2p1/libnand-sun50iw2p1
                0x4a067e24                __nand_read
 .text.flush_write_cache_to_nand
                0x4a067e84       0xd0 nand_sunxi/sun50iw2p1/libnand-sun50iw2p1
                0x4a067e84                flush_write_cache_to_nand
 .text.nand_cache_write
                0x4a067f54      0x360 nand_sunxi/sun50iw2p1/libnand-sun50iw2p1
                0x4a067f54                nand_cache_write
 .text.__nand_flush_write_cache
                0x4a0682b4       0x8c nand_sunxi/sun50iw2p1/libnand-sun50iw2p1
                0x4a0682b4                __nand_flush_write_cache
 .text.nand_discard
                0x4a068340      0x168 nand_sunxi/sun50iw2p1/libnand-sun50iw2p1
                0x4a068340                nand_discard
 .text.__nand_discard
                0x4a0684a8       0x3c nand_sunxi/sun50iw2p1/libnand-sun50iw2p1
                0x4a0684a8                __nand_discard
 .text.__shutdown_op
                0x4a0684e4        0x8 nand_sunxi/sun50iw2p1/libnand-sun50iw2p1
                0x4a0684e4                __shutdown_op
 .text.set_spare_data
                0x4a0684ec       0x34 nand_sunxi/sun50iw2p1/libnand-sun50iw2p1
                0x4a0684ec                set_spare_data
 .text.get_spare_data
                0x4a068520       0x2c nand_sunxi/sun50iw2p1/libnand-sun50iw2p1
                0x4a068520                get_spare_data
 .text.set_oob_logic_page
                0x4a06854c       0x64 nand_sunxi/sun50iw2p1/libnand-sun50iw2p1
                0x4a06854c                set_oob_logic_page
 .text.set_oob_special_page
                0x4a0685b0       0x58 nand_sunxi/sun50iw2p1/libnand-sun50iw2p1
                0x4a0685b0                set_oob_special_page
 .text.set_start_block_flag
                0x4a068608       0x54 nand_sunxi/sun50iw2p1/libnand-sun50iw2p1
                0x4a068608                set_start_block_flag
 .text.set_end_block_flag
                0x4a06865c       0x3c nand_sunxi/sun50iw2p1/libnand-sun50iw2p1
                0x4a06865c                set_end_block_flag
 .text.get_block_used_count_from_oob
                0x4a068698        0xc nand_sunxi/sun50iw2p1/libnand-sun50iw2p1
                0x4a068698                get_block_used_count_from_oob
 .text.get_logic_page_from_oob
                0x4a0686a4       0x18 nand_sunxi/sun50iw2p1/libnand-sun50iw2p1
                0x4a0686a4                get_logic_page_from_oob
 .text.get_special_data_from_oob
                0x4a0686bc        0xc nand_sunxi/sun50iw2p1/libnand-sun50iw2p1
                0x4a0686bc                get_special_data_from_oob
 .text._nftl_nand_copy_page
                0x4a0686c8       0xbc nand_sunxi/sun50iw2p1/libnand-sun50iw2p1
                0x4a0686c8                _nftl_nand_copy_page
 .text.get_erase_count_from_oob
                0x4a068784       0x18 nand_sunxi/sun50iw2p1/libnand-sun50iw2p1
                0x4a068784                get_erase_count_from_oob
 .text.is_ftl_start_flag_page
                0x4a06879c       0x28 nand_sunxi/sun50iw2p1/libnand-sun50iw2p1
                0x4a06879c                is_ftl_start_flag_page
 .text.is_ftl_end_flag_page
                0x4a0687c4       0x28 nand_sunxi/sun50iw2p1/libnand-sun50iw2p1
                0x4a0687c4                is_ftl_end_flag_page
 .text.is_ftl_special_data
                0x4a0687ec       0x14 nand_sunxi/sun50iw2p1/libnand-sun50iw2p1
                0x4a0687ec                is_ftl_special_data
 .text.is_ftl_logic_page_data
                0x4a068800       0x18 nand_sunxi/sun50iw2p1/libnand-sun50iw2p1
                0x4a068800                is_ftl_logic_page_data
 .text.is_nouse_page
                0x4a068818       0x44 nand_sunxi/sun50iw2p1/libnand-sun50iw2p1
                0x4a068818                is_nouse_page
 .text.is_fill_page
                0x4a06885c       0x20 nand_sunxi/sun50iw2p1/libnand-sun50iw2p1
                0x4a06885c                is_fill_page
 .text.is_phy_mapping_page
                0x4a06887c       0x20 nand_sunxi/sun50iw2p1/libnand-sun50iw2p1
                0x4a06887c                is_phy_mapping_page
 .text.is_function_info_page
                0x4a06889c       0x28 nand_sunxi/sun50iw2p1/libnand-sun50iw2p1
                0x4a06889c                is_function_info_page
 .text.is_power_down_info_page
                0x4a0688c4       0x20 nand_sunxi/sun50iw2p1/libnand-sun50iw2p1
                0x4a0688c4                is_power_down_info_page
 .text.get_logic_page_map
                0x4a0688e4       0x1c nand_sunxi/sun50iw2p1/libnand-sun50iw2p1
                0x4a0688e4                get_logic_page_map
 .text.malloc_logic_page_map
                0x4a068900       0xd8 nand_sunxi/sun50iw2p1/libnand-sun50iw2p1
                0x4a068900                malloc_logic_page_map
 .text.set_physic_op_par
                0x4a0689d8       0x20 nand_sunxi/sun50iw2p1/libnand-sun50iw2p1
                0x4a0689d8                set_physic_op_par
 .text.zone_param_init
                0x4a0689f8      0x2b4 nand_sunxi/sun50iw2p1/libnand-sun50iw2p1
                0x4a0689f8                zone_param_init
 .text.init_zone_after_first_scan
                0x4a068cac      0x118 nand_sunxi/sun50iw2p1/libnand-sun50iw2p1
                0x4a068cac                init_zone_after_first_scan
 .text.recover_phy_page_mapping
                0x4a068dc4      0x160 nand_sunxi/sun50iw2p1/libnand-sun50iw2p1
                0x4a068dc4                recover_phy_page_mapping
 .text.recover_block_phy_page_mapping
                0x4a068f24       0xd4 nand_sunxi/sun50iw2p1/libnand-sun50iw2p1
                0x4a068f24                recover_block_phy_page_mapping
 .text.recover_logic_page_mapping
                0x4a068ff8      0x140 nand_sunxi/sun50iw2p1/libnand-sun50iw2p1
                0x4a068ff8                recover_logic_page_mapping
 .text.init_nrc
                0x4a069138       0x98 nand_sunxi/sun50iw2p1/libnand-sun50iw2p1
                0x4a069138                init_nrc
 .text.free_nrc
                0x4a0691d0       0x40 nand_sunxi/sun50iw2p1/libnand-sun50iw2p1
                0x4a0691d0                free_nrc
 .text.mark_free_block
                0x4a069210       0x8c nand_sunxi/sun50iw2p1/libnand-sun50iw2p1
                0x4a069210                mark_free_block
 .text.erase_block
                0x4a06929c       0xe4 nand_sunxi/sun50iw2p1/libnand-sun50iw2p1
                0x4a06929c                erase_block
 .text.first_scan_all_blocks
                0x4a069380      0x45c nand_sunxi/sun50iw2p1/libnand-sun50iw2p1
                0x4a069380                first_scan_all_blocks
 .text.is_last_phy_block
                0x4a0697dc       0x20 nand_sunxi/sun50iw2p1/libnand-sun50iw2p1
                0x4a0697dc                is_last_phy_block
 .text.build_zone_list_first
                0x4a0697fc      0x310 nand_sunxi/sun50iw2p1/libnand-sun50iw2p1
                0x4a0697fc                build_zone_list_first
 .text.is_no_use_device
                0x4a069b0c      0x144 nand_sunxi/sun50iw2p1/libnand-sun50iw2p1
                0x4a069b0c                is_no_use_device
 .text.get_phy_block_addr
                0x4a069c50       0x14 nand_sunxi/sun50iw2p1/libnand-sun50iw2p1
                0x4a069c50                get_phy_block_addr
 .text.get_used_page_num
                0x4a069c64      0x264 nand_sunxi/sun50iw2p1/libnand-sun50iw2p1
                0x4a069c64                get_used_page_num
 .text.cross_talk_rebuild_current_block
                0x4a069ec8      0x350 nand_sunxi/sun50iw2p1/libnand-sun50iw2p1
                0x4a069ec8                cross_talk_rebuild_current_block
 .text.get_used_page_num_no_crosstalk
                0x4a06a218      0x21c nand_sunxi/sun50iw2p1/libnand-sun50iw2p1
                0x4a06a218                get_used_page_num_no_crosstalk
 .text.no_cross_talk_rebuild_current_block
                0x4a06a434      0x3e8 nand_sunxi/sun50iw2p1/libnand-sun50iw2p1
                0x4a06a434                no_cross_talk_rebuild_current_block
 .text.init_smart_info
                0x4a06a81c       0xf4 nand_sunxi/sun50iw2p1/libnand-sun50iw2p1
                0x4a06a81c                init_smart_info
 .text.current_block_ecc_error
                0x4a06a910      0x1a4 nand_sunxi/sun50iw2p1/libnand-sun50iw2p1
                0x4a06a910                current_block_ecc_error
 .text.get_current_used_block
                0x4a06aab4      0x340 nand_sunxi/sun50iw2p1/libnand-sun50iw2p1
                0x4a06aab4                get_current_used_block
 .text.second_scan_all_blocks
                0x4a06adf4      0x644 nand_sunxi/sun50iw2p1/libnand-sun50iw2p1
                0x4a06adf4                second_scan_all_blocks
 .text.print_nftl_zone
                0x4a06b438      0x3fc nand_sunxi/sun50iw2p1/libnand-sun50iw2p1
                0x4a06b438                print_nftl_zone
 .text.build_zone_list
                0x4a06b834       0x78 nand_sunxi/sun50iw2p1/libnand-sun50iw2p1
                0x4a06b834                build_zone_list
 .text.nftl_start
                0x4a06b8ac      0x31c nand_sunxi/sun50iw2p1/libnand-sun50iw2p1
                0x4a06b8ac                nftl_start
 .text.nftl_get_zone_cap
                0x4a06bbc8        0x8 nand_sunxi/sun50iw2p1/libnand-sun50iw2p1
                0x4a06bbc8                nftl_get_zone_cap
 .text.nftl_get_zone_priv
                0x4a06bbd0        0x8 nand_sunxi/sun50iw2p1/libnand-sun50iw2p1
                0x4a06bbd0                nftl_get_zone_priv
 .text.print_smart
                0x4a06bbd8      0x160 nand_sunxi/sun50iw2p1/libnand-sun50iw2p1
                0x4a06bbd8                print_smart
 .text._nand_sector_read
                0x4a06bd38        0x8 nand_sunxi/sun50iw2p1/libnand-sun50iw2p1
                0x4a06bd38                _nand_sector_read
 .text._nand_sector_write
                0x4a06bd40        0x8 nand_sunxi/sun50iw2p1/libnand-sun50iw2p1
                0x4a06bd40                _nand_sector_write
 .text._nand_flush_sector_write_cache
                0x4a06bd48        0x8 nand_sunxi/sun50iw2p1/libnand-sun50iw2p1
                0x4a06bd48                _nand_flush_sector_write_cache
 .text._shutdown_op
                0x4a06bd50        0x8 nand_sunxi/sun50iw2p1/libnand-sun50iw2p1
                0x4a06bd50                _shutdown_op
 .text._nand_flush_write_cache
                0x4a06bd58        0x8 nand_sunxi/sun50iw2p1/libnand-sun50iw2p1
                0x4a06bd58                _nand_flush_write_cache
 .text._nand_discard
                0x4a06bd60        0x8 nand_sunxi/sun50iw2p1/libnand-sun50iw2p1
                0x4a06bd60                _nand_discard
 .text._nand_write
                0x4a06bd68        0x8 nand_sunxi/sun50iw2p1/libnand-sun50iw2p1
                0x4a06bd68                _nand_write
 .text._nand_read
                0x4a06bd70        0x8 nand_sunxi/sun50iw2p1/libnand-sun50iw2p1
                0x4a06bd70                _nand_read
 .text.nftl_malloc
                0x4a06bd78       0x2c nand_sunxi/sun50iw2p1/libnand-sun50iw2p1
                0x4a06bd78                nftl_malloc
 .text.nftl_free
                0x4a06bda4        0x8 nand_sunxi/sun50iw2p1/libnand-sun50iw2p1
                0x4a06bda4                nftl_free
 .text.add_nftl_blk_list
                0x4a06bdac       0x24 nand_sunxi/sun50iw2p1/libnand-sun50iw2p1
                0x4a06bdac                add_nftl_blk_list
 .text.nftl_initialize
                0x4a06bdd0      0x220 nand_sunxi/sun50iw2p1/libnand-sun50iw2p1
                0x4a06bdd0                nftl_initialize
 .text._nftl_nand_erase_superblk
                0x4a06bff0       0x4c nand_sunxi/sun50iw2p1/libnand-sun50iw2p1
                0x4a06bff0                _nftl_nand_erase_superblk
 .text._nftl_nand_read_page
                0x4a06c03c       0x84 nand_sunxi/sun50iw2p1/libnand-sun50iw2p1
                0x4a06c03c                _nftl_nand_read_page
 .text._nftl_nand_write_page
                0x4a06c0c0       0x84 nand_sunxi/sun50iw2p1/libnand-sun50iw2p1
                0x4a06c0c0                _nftl_nand_write_page
 .text._nftl_nand_is_blk_good
                0x4a06c144       0x4c nand_sunxi/sun50iw2p1/libnand-sun50iw2p1
                0x4a06c144                _nftl_nand_is_blk_good
 .text._nftl_nand_mark_bad_blk
                0x4a06c190       0x4c nand_sunxi/sun50iw2p1/libnand-sun50iw2p1
                0x4a06c190                _nftl_nand_mark_bad_blk
 .text.nftl_add
                0x4a06c1dc       0x80 nand_sunxi/sun50iw2p1/libnand-sun50iw2p1
                0x4a06c1dc                nftl_add
 .text.nftl_build_one
                0x4a06c25c       0x60 nand_sunxi/sun50iw2p1/libnand-sun50iw2p1
                0x4a06c25c                nftl_build_one
 .text.nftl_build_all
                0x4a06c2bc       0x4c nand_sunxi/sun50iw2p1/libnand-sun50iw2p1
                0x4a06c2bc                nftl_build_all
 .text.get_nftl_cap
                0x4a06c308       0x28 nand_sunxi/sun50iw2p1/libnand-sun50iw2p1
                0x4a06c308                get_nftl_cap
 .text.nftl_read
                0x4a06c330       0x70 nand_sunxi/sun50iw2p1/libnand-sun50iw2p1
                0x4a06c330                nftl_read
 .text.nftl_write
                0x4a06c3a0       0x70 nand_sunxi/sun50iw2p1/libnand-sun50iw2p1
                0x4a06c3a0                nftl_write
 .text.nftl_flush_write_cache
                0x4a06c410       0x38 nand_sunxi/sun50iw2p1/libnand-sun50iw2p1
                0x4a06c410                nftl_flush_write_cache
 .text.change_block_addr
                0x4a06c448       0x48 nand_sunxi/sun50iw2p1/libnand-sun50iw2p1
                0x4a06c448                change_block_addr
 .text.nand_mark_bad_blk
                0x4a06c490       0x68 nand_sunxi/sun50iw2p1/libnand-sun50iw2p1
                0x4a06c490                nand_mark_bad_blk
 .text.nand_is_blk_good
                0x4a06c4f8       0x54 nand_sunxi/sun50iw2p1/libnand-sun50iw2p1
                0x4a06c4f8                nand_is_blk_good
 .text.nand_write_page
                0x4a06c54c       0x68 nand_sunxi/sun50iw2p1/libnand-sun50iw2p1
                0x4a06c54c                nand_write_page
 .text.nand_read_page
                0x4a06c5b4       0x50 nand_sunxi/sun50iw2p1/libnand-sun50iw2p1
                0x4a06c5b4                nand_read_page
 .text.nand_erase_superblk
                0x4a06c604       0x2c nand_sunxi/sun50iw2p1/libnand-sun50iw2p1
                0x4a06c604                nand_erase_superblk
 .text.build_nand_partition
                0x4a06c630       0xfc nand_sunxi/sun50iw2p1/libnand-sun50iw2p1
                0x4a06c630                build_nand_partition
 .text.BlockErase
                0x4a06c72c       0x2c nand_sunxi/sun50iw2p1/libnand-sun50iw2p1
                0x4a06c72c                BlockErase
 .text.PageWrite
                0x4a06c758       0x5c nand_sunxi/sun50iw2p1/libnand-sun50iw2p1
                0x4a06c758                PageWrite
 .text.PageRead
                0x4a06c7b4       0x5c nand_sunxi/sun50iw2p1/libnand-sun50iw2p1
                0x4a06c7b4                PageRead
 .text.WaitAllRb
                0x4a06c810       0x14 nand_sunxi/sun50iw2p1/libnand-sun50iw2p1
                0x4a06c810                WaitAllRb
 .text.BlockCheck
                0x4a06c824       0x2c nand_sunxi/sun50iw2p1/libnand-sun50iw2p1
                0x4a06c824                BlockCheck
 .text.is_factory_bad_block
                0x4a06c850       0x58 nand_sunxi/sun50iw2p1/libnand-sun50iw2p1
                0x4a06c850                is_factory_bad_block
 .text.is_new_bad_block
                0x4a06c8a8       0x58 nand_sunxi/sun50iw2p1/libnand-sun50iw2p1
                0x4a06c8a8                is_new_bad_block
 .text.add_new_bad_block
                0x4a06c900       0x64 nand_sunxi/sun50iw2p1/libnand-sun50iw2p1
                0x4a06c900                add_new_bad_block
 .text.put_factory_bad_block
                0x4a06c964       0x94 nand_sunxi/sun50iw2p1/libnand-sun50iw2p1
                0x4a06c964                put_factory_bad_block
 .text.print_phy_partition
                0x4a06c9f8       0xcc nand_sunxi/sun50iw2p1/libnand-sun50iw2p1
                0x4a06c9f8                print_phy_partition
 .text.print_all_bad_block
                0x4a06cac4       0x98 nand_sunxi/sun50iw2p1/libnand-sun50iw2p1
                0x4a06cac4                print_all_bad_block
 .text.build_phy_partition
                0x4a06cb5c      0x3b8 nand_sunxi/sun50iw2p1/libnand-sun50iw2p1
                0x4a06cb5c                build_phy_partition
 .text.get_phy_partition_num
                0x4a06cf14       0x20 nand_sunxi/sun50iw2p1/libnand-sun50iw2p1
                0x4a06cf14                get_phy_partition_num
 .text.write_mbr
                0x4a06cf34       0xb4 nand_sunxi/sun50iw2p1/libnand-sun50iw2p1
                0x4a06cf34                write_mbr
 .text.write_factory_block_table
                0x4a06cfe8      0x118 nand_sunxi/sun50iw2p1/libnand-sun50iw2p1
                0x4a06cfe8                write_factory_block_table
 .text.print_factory_block_table
                0x4a06d100       0x44 nand_sunxi/sun50iw2p1/libnand-sun50iw2p1
                0x4a06d100                print_factory_block_table
 .text.write_no_use_block
                0x4a06d144       0xa8 nand_sunxi/sun50iw2p1/libnand-sun50iw2p1
                0x4a06d144                write_no_use_block
 .text.read_new_bad_block_table
                0x4a06d1ec      0x148 nand_sunxi/sun50iw2p1/libnand-sun50iw2p1
                0x4a06d1ec                read_new_bad_block_table
 .text.print_nand_info
                0x4a06d334      0x120 nand_sunxi/sun50iw2p1/libnand-sun50iw2p1
                0x4a06d334                print_nand_info
 .text.build_all_phy_partition
                0x4a06d454      0x2fc nand_sunxi/sun50iw2p1/libnand-sun50iw2p1
                0x4a06d454                build_all_phy_partition
 .text.nand_info_init_v1
                0x4a06d750      0x424 nand_sunxi/sun50iw2p1/libnand-sun50iw2p1
                0x4a06d750                nand_info_init_v1
 .text.set_capacity_level
                0x4a06db74       0x18 nand_sunxi/sun50iw2p1/libnand-sun50iw2p1
                0x4a06db74                set_capacity_level
 .text.get_max_free_block_num
                0x4a06db8c      0x12c nand_sunxi/sun50iw2p1/libnand-sun50iw2p1
                0x4a06db8c                get_max_free_block_num
 .text.print_partition
                0x4a06dcb8       0xd0 nand_sunxi/sun50iw2p1/libnand-sun50iw2p1
                0x4a06dcb8                print_partition
 .text.launch_build_phy_partition
                0x4a06dd88      0x2c8 nand_sunxi/sun50iw2p1/libnand-sun50iw2p1
                0x4a06dd88                launch_build_phy_partition
 .text.change_partition
                0x4a06e050       0x64 nand_sunxi/sun50iw2p1/libnand-sun50iw2p1
                0x4a06e050                change_partition
 .text.mp_build_phy_partition
                0x4a06e0b4      0x454 nand_sunxi/sun50iw2p1/libnand-sun50iw2p1
                0x4a06e0b4                mp_build_phy_partition
 .text.build_phy_partition_v2
                0x4a06e508       0x14 nand_sunxi/sun50iw2p1/libnand-sun50iw2p1
                0x4a06e508                build_phy_partition_v2
 .text.read_partition_v3
                0x4a06e51c       0x58 nand_sunxi/sun50iw2p1/libnand-sun50iw2p1
                0x4a06e51c                read_partition_v3
 .text.print_boot_info
                0x4a06e574       0xd4 nand_sunxi/sun50iw2p1/libnand-sun50iw2p1
                0x4a06e574                print_boot_info
 .text.get_no_use_block_v3
                0x4a06e648       0xb8 nand_sunxi/sun50iw2p1/libnand-sun50iw2p1
                0x4a06e648                get_no_use_block_v3
 .text.write_mbr_v2
                0x4a06e700       0xdc nand_sunxi/sun50iw2p1/libnand-sun50iw2p1
                0x4a06e700                write_mbr_v2
 .text.read_mbr_v2
                0x4a06e7dc       0xe4 nand_sunxi/sun50iw2p1/libnand-sun50iw2p1
                0x4a06e7dc                read_mbr_v2
 .text.check_mbr_v3
                0x4a06e8c0      0x104 nand_sunxi/sun50iw2p1/libnand-sun50iw2p1
                0x4a06e8c0                check_mbr_v3
 .text.check_mbr_v2
                0x4a06e9c4       0xe8 nand_sunxi/sun50iw2p1/libnand-sun50iw2p1
                0x4a06e9c4                check_mbr_v2
 .text.write_partition_v2
                0x4a06eaac       0xd0 nand_sunxi/sun50iw2p1/libnand-sun50iw2p1
                0x4a06eaac                write_partition_v2
 .text.read_partition_v2
                0x4a06eb7c      0x108 nand_sunxi/sun50iw2p1/libnand-sun50iw2p1
                0x4a06eb7c                read_partition_v2
 .text.check_partition_mbr_v2
                0x4a06ec84       0x44 nand_sunxi/sun50iw2p1/libnand-sun50iw2p1
                0x4a06ec84                check_partition_mbr_v2
 .text.read_mbr_partition_v3
                0x4a06ecc8       0x7c nand_sunxi/sun50iw2p1/libnand-sun50iw2p1
                0x4a06ecc8                read_mbr_partition_v3
 .text.write_factory_block_table_v2
                0x4a06ed44      0x138 nand_sunxi/sun50iw2p1/libnand-sun50iw2p1
                0x4a06ed44                write_factory_block_table_v2
 .text.print_factory_block_table_v2
                0x4a06ee7c       0x44 nand_sunxi/sun50iw2p1/libnand-sun50iw2p1
                0x4a06ee7c                print_factory_block_table_v2
 .text.read_factory_block_v3
                0x4a06eec0       0xfc nand_sunxi/sun50iw2p1/libnand-sun50iw2p1
                0x4a06eec0                read_factory_block_v3
 .text.write_new_block_table_v2_old
                0x4a06efbc       0xe8 nand_sunxi/sun50iw2p1/libnand-sun50iw2p1
                0x4a06efbc                write_new_block_table_v2_old
 .text.write_new_block_table_v2_new
                0x4a06f0a4       0xe8 nand_sunxi/sun50iw2p1/libnand-sun50iw2p1
                0x4a06f0a4                write_new_block_table_v2_new
 .text.write_new_block_table_v2
                0x4a06f18c       0xf8 nand_sunxi/sun50iw2p1/libnand-sun50iw2p1
                0x4a06f18c                write_new_block_table_v2
 .text.write_new_block_table_v2_new_first_build
                0x4a06f284       0xe8 nand_sunxi/sun50iw2p1/libnand-sun50iw2p1
                0x4a06f284                write_new_block_table_v2_new_first_build
 .text.write_no_use_block_v2
                0x4a06f36c       0xd0 nand_sunxi/sun50iw2p1/libnand-sun50iw2p1
                0x4a06f36c                write_no_use_block_v2
 .text.read_new_bad_block_table_v2_old
                0x4a06f43c      0x148 nand_sunxi/sun50iw2p1/libnand-sun50iw2p1
                0x4a06f43c                read_new_bad_block_table_v2_old
 .text.read_new_bad_block_table_v2_new
                0x4a06f584      0x100 nand_sunxi/sun50iw2p1/libnand-sun50iw2p1
                0x4a06f584                read_new_bad_block_table_v2_new
 .text.read_new_bad_block_table_v2
                0x4a06f684       0xfc nand_sunxi/sun50iw2p1/libnand-sun50iw2p1
                0x4a06f684                read_new_bad_block_table_v2
 .text.print_nand_info_v2
                0x4a06f780      0x1b8 nand_sunxi/sun50iw2p1/libnand-sun50iw2p1
                0x4a06f780                print_nand_info_v2
 .text.get_partition_v2
                0x4a06f938      0x28c nand_sunxi/sun50iw2p1/libnand-sun50iw2p1
                0x4a06f938                get_partition_v2
 .text.get_partition_v3
                0x4a06fbc4      0x228 nand_sunxi/sun50iw2p1/libnand-sun50iw2p1
                0x4a06fbc4                get_partition_v3
 .text.new_print_all_partition
                0x4a06fdec       0x98 nand_sunxi/sun50iw2p1/libnand-sun50iw2p1
                0x4a06fdec                new_print_all_partition
 .text.build_all_phy_partition_v2
                0x4a06fe84       0x84 nand_sunxi/sun50iw2p1/libnand-sun50iw2p1
                0x4a06fe84                build_all_phy_partition_v2
 .text.nand_info_init_v2
                0x4a06ff08      0x4ac nand_sunxi/sun50iw2p1/libnand-sun50iw2p1
                0x4a06ff08                nand_info_init_v2
 .text.nand_info_init_v3
                0x4a0703b4      0x378 nand_sunxi/sun50iw2p1/libnand-sun50iw2p1
                0x4a0703b4                nand_info_init_v3
 .text.nand_info_init
                0x4a07072c      0x1b0 nand_sunxi/sun50iw2p1/libnand-sun50iw2p1
                0x4a07072c                nand_info_init
 .text.nand_code_info
                0x4a0708dc       0x10 nand_sunxi/sun50iw2p1/libnand-sun50iw2p1
                0x4a0708dc                nand_code_info
 .text.nand_get_nand_version
                0x4a0708ec        0xc nand_sunxi/sun50iw2p1/libnand-sun50iw2p1
                0x4a0708ec                nand_get_nand_version
 .text.nand_get_version
                0x4a0708f8       0x2c nand_sunxi/sun50iw2p1/libnand-sun50iw2p1
                0x4a0708f8                nand_get_version
 .text.show_nctri
                0x4a070924      0x1ac nand_sunxi/sun50iw2p1/libnand-sun50iw2p1
                0x4a070924                show_nctri
 .text.show_nci
                0x4a070ad0      0x280 nand_sunxi/sun50iw2p1/libnand-sun50iw2p1
                0x4a070ad0                show_nci
 .text.show_nsci
                0x4a070d50      0x16c nand_sunxi/sun50iw2p1/libnand-sun50iw2p1
                0x4a070d50                show_nsci
 .text.show_nsi
                0x4a070ebc       0x40 nand_sunxi/sun50iw2p1/libnand-sun50iw2p1
                0x4a070ebc                show_nsi
 .text.show_nssi
                0x4a070efc       0x8c nand_sunxi/sun50iw2p1/libnand-sun50iw2p1
                0x4a070efc                show_nssi
 .text.show_static_info
                0x4a070f88       0x50 nand_sunxi/sun50iw2p1/libnand-sun50iw2p1
                0x4a070f88                show_static_info
 .text.nand_special_test
                0x4a070fd8        0x4 nand_sunxi/sun50iw2p1/libnand-sun50iw2p1
                0x4a070fd8                nand_special_test
 .text.nand_cfg_setting
                0x4a070fdc       0x5c nand_sunxi/sun50iw2p1/libnand-sun50iw2p1
                0x4a070fdc                nand_cfg_setting
 .text.NandHwInit
                0x4a071038       0xb8 nand_sunxi/sun50iw2p1/libnand-sun50iw2p1
                0x4a071038                NandHwInit
 .text.NandHwExit
                0x4a0710f0       0x1c nand_sunxi/sun50iw2p1/libnand-sun50iw2p1
                0x4a0710f0                NandHwExit
 .text.NAND_GetIOBaseAddr
                0x4a07110c       0x10 nand_sunxi/sun50iw2p1/libnand-sun50iw2p1
                0x4a07110c                NAND_GetIOBaseAddr
 .text.NAND_GetLogicPageSize
                0x4a07111c       0x14 nand_sunxi/sun50iw2p1/libnand-sun50iw2p1
                0x4a07111c                NAND_GetLogicPageSize
 .text.nand_write_nboot_data
                0x4a071130       0x70 nand_sunxi/sun50iw2p1/libnand-sun50iw2p1
                0x4a071130                nand_write_nboot_data
 .text.nand_read_nboot_data
                0x4a0711a0       0x8c nand_sunxi/sun50iw2p1/libnand-sun50iw2p1
                0x4a0711a0                nand_read_nboot_data
 .text.nand_write_uboot_one_in_block
                0x4a07122c      0x264 nand_sunxi/sun50iw2p1/libnand-sun50iw2p1
                0x4a07122c                nand_write_uboot_one_in_block
 .text.nand_write_uboot_one_in_many_block
                0x4a071490      0x3a8 nand_sunxi/sun50iw2p1/libnand-sun50iw2p1
                0x4a071490                nand_write_uboot_one_in_many_block
 .text.nand_read_uboot_one_in_block
                0x4a071838      0x1e8 nand_sunxi/sun50iw2p1/libnand-sun50iw2p1
                0x4a071838                nand_read_uboot_one_in_block
 .text.nand_read_uboot_one_in_many_block
                0x4a071a20      0x36c nand_sunxi/sun50iw2p1/libnand-sun50iw2p1
                0x4a071a20                nand_read_uboot_one_in_many_block
 .text.nand_read_uboot_one
                0x4a071d8c       0x88 nand_sunxi/sun50iw2p1/libnand-sun50iw2p1
                0x4a071d8c                nand_read_uboot_one
 .text.nand_read_uboot_data
                0x4a071e14       0x6c nand_sunxi/sun50iw2p1/libnand-sun50iw2p1
                0x4a071e14                nand_read_uboot_data
 .text.nand_get_param
                0x4a071e80      0x138 nand_sunxi/sun50iw2p1/libnand-sun50iw2p1
                0x4a071e80                nand_get_param
 .text.nand_get_param_for_uboottail
                0x4a071fb8       0xa8 nand_sunxi/sun50iw2p1/libnand-sun50iw2p1
                0x4a071fb8                nand_get_param_for_uboottail
 .text.NAND_SetPhyArch_V3
                0x4a072060       0x44 nand_sunxi/sun50iw2p1/libnand-sun50iw2p1
                0x4a072060                NAND_SetPhyArch_V3
 .text.NAND_UpdatePhyArch
                0x4a0720a4      0x214 nand_sunxi/sun50iw2p1/libnand-sun50iw2p1
                0x4a0720a4                NAND_UpdatePhyArch
 .text.nand_is_blank
                0x4a0722b8       0xe0 nand_sunxi/sun50iw2p1/libnand-sun50iw2p1
                0x4a0722b8                nand_is_blank
 .text.nand_erase_chip
                0x4a072398       0xd8 nand_sunxi/sun50iw2p1/libnand-sun50iw2p1
                0x4a072398                nand_erase_chip
 .text.nand_erase_special_block
                0x4a072470      0x210 nand_sunxi/sun50iw2p1/libnand-sun50iw2p1
                0x4a072470                nand_erase_special_block
 .text.set_uboot_start_and_end_block
                0x4a072680       0xa8 nand_sunxi/sun50iw2p1/libnand-sun50iw2p1
                0x4a072680                set_uboot_start_and_end_block
 .text.get_uboot_start_block
                0x4a072728       0x5c nand_sunxi/sun50iw2p1/libnand-sun50iw2p1
                0x4a072728                get_uboot_start_block
 .text.get_uboot_next_block
                0x4a072784       0x80 nand_sunxi/sun50iw2p1/libnand-sun50iw2p1
                0x4a072784                get_uboot_next_block
 .text.init_phyinfo_buf
                0x4a072804       0x3c nand_sunxi/sun50iw2p1/libnand-sun50iw2p1
                0x4a072804                init_phyinfo_buf
 .text.check_sum_physic_info
                0x4a072840       0x94 nand_sunxi/sun50iw2p1/libnand-sun50iw2p1
                0x4a072840                check_sum_physic_info
 .text.cal_sum_physic_info
                0x4a0728d4       0x88 nand_sunxi/sun50iw2p1/libnand-sun50iw2p1
                0x4a0728d4                cal_sum_physic_info
 .text.physic_info_get_offset
                0x4a07295c      0x124 nand_sunxi/sun50iw2p1/libnand-sun50iw2p1
                0x4a07295c                physic_info_get_offset
 .text.physic_info_get_one_copy
                0x4a072a80      0x260 nand_sunxi/sun50iw2p1/libnand-sun50iw2p1
                0x4a072a80                physic_info_get_one_copy
 .text.clean_physic_info
                0x4a072ce0       0x44 nand_sunxi/sun50iw2p1/libnand-sun50iw2p1
                0x4a072ce0                clean_physic_info
 .text.nand_uboot_erase_all_chip
                0x4a072d24       0xa8 nand_sunxi/sun50iw2p1/libnand-sun50iw2p1
                0x4a072d24                nand_uboot_erase_all_chip
 .text.is_phyinfo_empty
                0x4a072dcc       0x50 nand_sunxi/sun50iw2p1/libnand-sun50iw2p1
                0x4a072dcc                is_phyinfo_empty
 .text.add_len_to_uboot_tail
                0x4a072e1c       0xa8 nand_sunxi/sun50iw2p1/libnand-sun50iw2p1
                0x4a072e1c                add_len_to_uboot_tail
 .text.nand_write_uboot_one
                0x4a072ec4       0xb4 nand_sunxi/sun50iw2p1/libnand-sun50iw2p1
                0x4a072ec4                nand_write_uboot_one
 .text.nand_write_uboot_data
                0x4a072f78       0x68 nand_sunxi/sun50iw2p1/libnand-sun50iw2p1
                0x4a072f78                nand_write_uboot_data
 .text.is_uboot_block
                0x4a072fe0       0x74 nand_sunxi/sun50iw2p1/libnand-sun50iw2p1
                0x4a072fe0                is_uboot_block
 .text.physic_info_read
                0x4a073054      0x188 nand_sunxi/sun50iw2p1/libnand-sun50iw2p1
                0x4a073054                physic_info_read
 .text.set_hynix_special_info
                0x4a0731dc       0xf0 nand_sunxi/sun50iw2p1/libnand-sun50iw2p1
                0x4a0731dc                set_hynix_special_info
 .text.nand_init_temp_buf
                0x4a0732cc       0x98 nand_sunxi/sun50iw2p1/libnand-sun50iw2p1
                0x4a0732cc                nand_init_temp_buf
 .text.init_parameter
                0x4a073364       0xfc nand_sunxi/sun50iw2p1/libnand-sun50iw2p1
                0x4a073364                init_parameter
 .text.nand_physic_init
                0x4a073460       0xe8 nand_sunxi/sun50iw2p1/libnand-sun50iw2p1
                0x4a073460                nand_physic_init
 .text.nand_exit_temp_buf
                0x4a073548       0x54 nand_sunxi/sun50iw2p1/libnand-sun50iw2p1
                0x4a073548                nand_exit_temp_buf
 .text.nand_physic_exit
                0x4a07359c      0x13c nand_sunxi/sun50iw2p1/libnand-sun50iw2p1
                0x4a07359c                nand_physic_exit
 .text.nand_get_temp_buf
                0x4a0736d8      0x14c nand_sunxi/sun50iw2p1/libnand-sun50iw2p1
                0x4a0736d8                nand_get_temp_buf
 .text.nand_free_temp_buf
                0x4a073824       0xd8 nand_sunxi/sun50iw2p1/libnand-sun50iw2p1
                0x4a073824                nand_free_temp_buf
 .text.NAND_GetPageCntPerBlk
                0x4a0738fc       0x18 nand_sunxi/sun50iw2p1/libnand-sun50iw2p1
                0x4a0738fc                NAND_GetPageCntPerBlk
 .text.NAND_GetPageSize
                0x4a073914       0x1c nand_sunxi/sun50iw2p1/libnand-sun50iw2p1
                0x4a073914                NAND_GetPageSize
 .text.is_nand_secure_storage_block
                0x4a073930       0x94 nand_sunxi/sun50iw2p1/libnand-sun50iw2p1
                0x4a073930                is_nand_secure_storage_block
 .text.nand_secure_check_sum
                0x4a0739c4       0x2c nand_sunxi/sun50iw2p1/libnand-sun50iw2p1
                0x4a0739c4                nand_secure_check_sum
 .text.nand_secure_storage_read_one
                0x4a0739f0       0xe8 nand_sunxi/sun50iw2p1/libnand-sun50iw2p1
                0x4a0739f0                nand_secure_storage_read_one
 .text.nand_secure_storage_write_init
                0x4a073ad8       0xfc nand_sunxi/sun50iw2p1/libnand-sun50iw2p1
                0x4a073ad8                nand_secure_storage_write_init
 .text.nand_secure_storage_first_build
                0x4a073bd4      0x130 nand_sunxi/sun50iw2p1/libnand-sun50iw2p1
                0x4a073bd4                nand_secure_storage_first_build
 .text.nand_secure_storage_read
                0x4a073d04       0xac nand_sunxi/sun50iw2p1/libnand-sun50iw2p1
                0x4a073d04                nand_secure_storage_read
 .text.nand_secure_storage_check
                0x4a073db0       0xe8 nand_sunxi/sun50iw2p1/libnand-sun50iw2p1
                0x4a073db0                nand_secure_storage_check
 .text.nand_secure_storage_repair
                0x4a073e98       0x6c nand_sunxi/sun50iw2p1/libnand-sun50iw2p1
                0x4a073e98                nand_secure_storage_repair
 .text.nand_secure_storage_update
                0x4a073f04       0x6c nand_sunxi/sun50iw2p1/libnand-sun50iw2p1
                0x4a073f04                nand_secure_storage_update
 .text.nand_secure_storage_write
                0x4a073f70      0x1dc nand_sunxi/sun50iw2p1/libnand-sun50iw2p1
                0x4a073f70                nand_secure_storage_write
 .text.nand_secure_storage_init
                0x4a07414c       0xf0 nand_sunxi/sun50iw2p1/libnand-sun50iw2p1
                0x4a07414c                nand_secure_storage_init
 .text.nand_enable_chip
                0x4a07423c       0x30 nand_sunxi/sun50iw2p1/libnand-sun50iw2p1
                0x4a07423c                nand_enable_chip
 .text.nand_disable_chip
                0x4a07426c       0x24 nand_sunxi/sun50iw2p1/libnand-sun50iw2p1
                0x4a07426c                nand_disable_chip
 .text.nand_reset_chip
                0x4a074290       0x6c nand_sunxi/sun50iw2p1/libnand-sun50iw2p1
                0x4a074290                nand_reset_chip
 .text.nand_first_reset_chip
                0x4a0742fc       0x98 nand_sunxi/sun50iw2p1/libnand-sun50iw2p1
                0x4a0742fc                nand_first_reset_chip
 .text.nand_read_chip_status
                0x4a074394       0x94 nand_sunxi/sun50iw2p1/libnand-sun50iw2p1
                0x4a074394                nand_read_chip_status
 .text.nand_read_chip_status_ready
                0x4a074428       0x84 nand_sunxi/sun50iw2p1/libnand-sun50iw2p1
                0x4a074428                nand_read_chip_status_ready
 .text.nand_read_id
                0x4a0744ac       0xa8 nand_sunxi/sun50iw2p1/libnand-sun50iw2p1
                0x4a0744ac                nand_read_id
 .text.nand_first_read_id
                0x4a074554       0x9c nand_sunxi/sun50iw2p1/libnand-sun50iw2p1
                0x4a074554                nand_first_read_id
 .text.nand_get_feature
                0x4a0745f0       0xb0 nand_sunxi/sun50iw2p1/libnand-sun50iw2p1
                0x4a0745f0                nand_get_feature
 .text.nand_set_feature
                0x4a0746a0       0xb0 nand_sunxi/sun50iw2p1/libnand-sun50iw2p1
                0x4a0746a0                nand_set_feature
 .text.get_row_addr
                0x4a074750       0x68 nand_sunxi/sun50iw2p1/libnand-sun50iw2p1
                0x4a074750                get_row_addr
 .text.fill_cmd_addr
                0x4a0747b8       0x60 nand_sunxi/sun50iw2p1/libnand-sun50iw2p1
                0x4a0747b8                fill_cmd_addr
 .text.set_default_batch_read_cmd_seq
                0x4a074818       0x44 nand_sunxi/sun50iw2p1/libnand-sun50iw2p1
                0x4a074818                set_default_batch_read_cmd_seq
 .text.set_default_batch_write_cmd_seq
                0x4a07485c       0x30 nand_sunxi/sun50iw2p1/libnand-sun50iw2p1
                0x4a07485c                set_default_batch_write_cmd_seq
 .text._cal_nand_onfi_timing_mode
                0x4a07488c      0x114 nand_sunxi/sun50iw2p1/libnand-sun50iw2p1
                0x4a07488c                _cal_nand_onfi_timing_mode
 .text._setup_nand_onfi_ddr2_para
                0x4a0749a0       0xc8 nand_sunxi/sun50iw2p1/libnand-sun50iw2p1
                0x4a0749a0                _setup_nand_onfi_ddr2_para
 .text._setup_nand_onfi_driver_strength
                0x4a074a68       0x94 nand_sunxi/sun50iw2p1/libnand-sun50iw2p1
                0x4a074a68                _setup_nand_onfi_driver_strength
 .text._setup_nand_onfi_vendor_specific_feature
                0x4a074afc      0x104 nand_sunxi/sun50iw2p1/libnand-sun50iw2p1
                0x4a074afc                _setup_nand_onfi_vendor_specific_feature
 .text._change_nand_onfi_timing_mode
                0x4a074c00      0x10c nand_sunxi/sun50iw2p1/libnand-sun50iw2p1
                0x4a074c00                _change_nand_onfi_timing_mode
 .text._setup_nand_toggle_ddr2_para
                0x4a074d0c       0xc8 nand_sunxi/sun50iw2p1/libnand-sun50iw2p1
                0x4a074d0c                _setup_nand_toggle_ddr2_para
 .text._setup_nand_toggle_driver_strength
                0x4a074dd4       0xa8 nand_sunxi/sun50iw2p1/libnand-sun50iw2p1
                0x4a074dd4                _setup_nand_toggle_driver_strength
 .text._setup_nand_toggle_vendor_specific_feature
                0x4a074e7c       0x54 nand_sunxi/sun50iw2p1/libnand-sun50iw2p1
                0x4a074e7c                _setup_nand_toggle_vendor_specific_feature
 .text._check_scan_data
                0x4a074ed0      0x18c nand_sunxi/sun50iw2p1/libnand-sun50iw2p1
                0x4a074ed0                _check_scan_data
 .text._change_all_nand_parameter
                0x4a07505c      0x5b8 nand_sunxi/sun50iw2p1/libnand-sun50iw2p1
                0x4a07505c                _change_all_nand_parameter
 .text._get_right_timing_para
                0x4a075614      0x504 nand_sunxi/sun50iw2p1/libnand-sun50iw2p1
                0x4a075614                _get_right_timing_para
 .text.set_cmd_with_nand_bus
                0x4a075b18      0x10c nand_sunxi/sun50iw2p1/libnand-sun50iw2p1
                0x4a075b18                set_cmd_with_nand_bus
 .text.get_data_with_nand_bus_one_cmd
                0x4a075c24      0x118 nand_sunxi/sun50iw2p1/libnand-sun50iw2p1
                0x4a075c24                get_data_with_nand_bus_one_cmd
 .text.set_one_cmd
                0x4a075d3c       0x30 nand_sunxi/sun50iw2p1/libnand-sun50iw2p1
                0x4a075d3c                set_one_cmd
 .text.set_one_addr
                0x4a075d6c       0x30 nand_sunxi/sun50iw2p1/libnand-sun50iw2p1
                0x4a075d6c                set_one_addr
 .text.nand_physic_erase_block
                0x4a075d9c       0x54 nand_sunxi/sun50iw2p1/libnand-sun50iw2p1
                0x4a075d9c                nand_physic_erase_block
 .text.nand_physic_read_page
                0x4a075df0       0x68 nand_sunxi/sun50iw2p1/libnand-sun50iw2p1
                0x4a075df0                nand_physic_read_page
 .text.nand_physic_write_page
                0x4a075e58       0x68 nand_sunxi/sun50iw2p1/libnand-sun50iw2p1
                0x4a075e58                nand_physic_write_page
 .text.nand_physic_bad_block_check
                0x4a075ec0       0x50 nand_sunxi/sun50iw2p1/libnand-sun50iw2p1
                0x4a075ec0                nand_physic_bad_block_check
 .text.nand_physic_block_copy
                0x4a075f10       0xc0 nand_sunxi/sun50iw2p1/libnand-sun50iw2p1
                0x4a075f10                nand_physic_block_copy
 .text.nci_add_to_nsi
                0x4a075fd0       0x64 nand_sunxi/sun50iw2p1/libnand-sun50iw2p1
                0x4a075fd0                nci_add_to_nsi
 .text.nci_add_to_nctri
                0x4a076034       0x64 nand_sunxi/sun50iw2p1/libnand-sun50iw2p1
                0x4a076034                nci_add_to_nctri
 .text.nci_get_from_nctri
                0x4a076098       0x20 nand_sunxi/sun50iw2p1/libnand-sun50iw2p1
                0x4a076098                nci_get_from_nctri
 .text.nci_get_from_nsi
                0x4a0760b8       0x20 nand_sunxi/sun50iw2p1/libnand-sun50iw2p1
                0x4a0760b8                nci_get_from_nsi
 .text.search_id
                0x4a0760d8       0x98 nand_sunxi/sun50iw2p1/libnand-sun50iw2p1
                0x4a0760d8                search_id
 .text.init_nci_from_id
                0x4a076170      0x1c4 nand_sunxi/sun50iw2p1/libnand-sun50iw2p1
                0x4a076170                init_nci_from_id
 .text.nand_build_nsi
                0x4a076334      0x1d4 nand_sunxi/sun50iw2p1/libnand-sun50iw2p1
                0x4a076334                nand_build_nsi
 .text.read_nand_structure
                0x4a076508      0x234 nand_sunxi/sun50iw2p1/libnand-sun50iw2p1
                0x4a076508                read_nand_structure
 .text.NAND_GetLsbblksize
                0x4a07673c       0x54 nand_sunxi/sun50iw2p1/libnand-sun50iw2p1
                0x4a07673c                NAND_GetLsbblksize
 .text.NAND_GetLsbPages
                0x4a076790       0x4c nand_sunxi/sun50iw2p1/libnand-sun50iw2p1
                0x4a076790                NAND_GetLsbPages
 .text.NAND_GetPhyblksize
                0x4a0767dc       0x24 nand_sunxi/sun50iw2p1/libnand-sun50iw2p1
                0x4a0767dc                NAND_GetPhyblksize
 .text.NAND_GetPageNo
                0x4a076800       0x58 nand_sunxi/sun50iw2p1/libnand-sun50iw2p1
                0x4a076800                NAND_GetPageNo
 .text.nand_wait_all_rb_ready
                0x4a076858       0x38 nand_sunxi/sun50iw2p1/libnand-sun50iw2p1
                0x4a076858                nand_wait_all_rb_ready
 .text.nand_physic_erase_super_block
                0x4a076890       0x54 nand_sunxi/sun50iw2p1/libnand-sun50iw2p1
                0x4a076890                nand_physic_erase_super_block
 .text.PHY_VirtualBlockErase
                0x4a0768e4        0x4 nand_sunxi/sun50iw2p1/libnand-sun50iw2p1
                0x4a0768e4                PHY_VirtualBlockErase
 .text.nand_physic_read_super_page
                0x4a0768e8       0x5c nand_sunxi/sun50iw2p1/libnand-sun50iw2p1
                0x4a0768e8                nand_physic_read_super_page
 .text.PHY_VirtualPageRead
                0x4a076944       0x18 nand_sunxi/sun50iw2p1/libnand-sun50iw2p1
                0x4a076944                PHY_VirtualPageRead
 .text.nand_physic_write_super_page
                0x4a07695c       0x5c nand_sunxi/sun50iw2p1/libnand-sun50iw2p1
                0x4a07695c                nand_physic_write_super_page
 .text.PHY_VirtualPageWrite
                0x4a0769b8       0x18 nand_sunxi/sun50iw2p1/libnand-sun50iw2p1
                0x4a0769b8                PHY_VirtualPageWrite
 .text.nand_physic_super_bad_block_check
                0x4a0769d0       0x54 nand_sunxi/sun50iw2p1/libnand-sun50iw2p1
                0x4a0769d0                nand_physic_super_bad_block_check
 .text.PHY_VirtualBadBlockCheck
                0x4a076a24        0x4 nand_sunxi/sun50iw2p1/libnand-sun50iw2p1
                0x4a076a24                PHY_VirtualBadBlockCheck
 .text.nand_physic_super_bad_block_mark
                0x4a076a28       0x54 nand_sunxi/sun50iw2p1/libnand-sun50iw2p1
                0x4a076a28                nand_physic_super_bad_block_mark
 .text.PHY_VirtualBadBlockMark
                0x4a076a7c        0x4 nand_sunxi/sun50iw2p1/libnand-sun50iw2p1
                0x4a076a7c                PHY_VirtualBadBlockMark
 .text.nsci_add_to_nssi
                0x4a076a80       0x4c nand_sunxi/sun50iw2p1/libnand-sun50iw2p1
                0x4a076a80                nsci_add_to_nssi
 .text.nsci_get_from_nssi
                0x4a076acc       0x20 nand_sunxi/sun50iw2p1/libnand-sun50iw2p1
                0x4a076acc                nsci_get_from_nssi
 .text.get_nand_structure
                0x4a076aec      0x164 nand_sunxi/sun50iw2p1/libnand-sun50iw2p1
                0x4a076aec                get_nand_structure
 .text.init_nsci_from_nctri
                0x4a076c50      0x254 nand_sunxi/sun50iw2p1/libnand-sun50iw2p1
                0x4a076c50                init_nsci_from_nctri
 .text.nand_build_nssi
                0x4a076ea4      0x1cc nand_sunxi/sun50iw2p1/libnand-sun50iw2p1
                0x4a076ea4                nand_build_nssi
 .text.nand_build_storage_info
                0x4a077070       0xfc nand_sunxi/sun50iw2p1/libnand-sun50iw2p1
                0x4a077070                nand_build_storage_info
 .text.add_to_nctri
                0x4a07716c       0x58 nand_sunxi/sun50iw2p1/libnand-sun50iw2p1
                0x4a07716c                add_to_nctri
 .text.before_update_nctri_interface
                0x4a0771c4       0xc0 nand_sunxi/sun50iw2p1/libnand-sun50iw2p1
                0x4a0771c4                before_update_nctri_interface
 .text.start_update_nctri_interface
                0x4a077284      0x148 nand_sunxi/sun50iw2p1/libnand-sun50iw2p1
                0x4a077284                start_update_nctri_interface
 .text.update_1st_nctri_interface
                0x4a0773cc      0x1cc nand_sunxi/sun50iw2p1/libnand-sun50iw2p1
                0x4a0773cc                update_1st_nctri_interface
 .text.update_other_nctri_interface
                0x4a077598      0x190 nand_sunxi/sun50iw2p1/libnand-sun50iw2p1
                0x4a077598                update_other_nctri_interface
 .text._update_ext_accessfreq_para
                0x4a077728      0x108 nand_sunxi/sun50iw2p1/libnand-sun50iw2p1
                0x4a077728                _update_ext_accessfreq_para
 .text.set_nand_script_frequence
                0x4a077830       0x3c nand_sunxi/sun50iw2p1/libnand-sun50iw2p1
                0x4a077830                set_nand_script_frequence
 .text.update_nctri
                0x4a07786c      0x304 nand_sunxi/sun50iw2p1/libnand-sun50iw2p1
                0x4a07786c                update_nctri
 .text.check_nctri
                0x4a077b70      0x15c nand_sunxi/sun50iw2p1/libnand-sun50iw2p1
                0x4a077b70                check_nctri
 .text.wait_reg_status_half_us
                0x4a077ccc       0x3c nand_sunxi/sun50iw2p1/libnand-sun50iw2p1
                0x4a077ccc                wait_reg_status_half_us
 .text.wait_reg_status
                0x4a077d08       0x64 nand_sunxi/sun50iw2p1/libnand-sun50iw2p1
                0x4a077d08                wait_reg_status
 .text.ndfc_print_reg
                0x4a077d6c      0x25c nand_sunxi/sun50iw2p1/libnand-sun50iw2p1
                0x4a077d6c                ndfc_print_reg
 .text.ndfc_print_save_reg
                0x4a077fc8      0x1e8 nand_sunxi/sun50iw2p1/libnand-sun50iw2p1
                0x4a077fc8                ndfc_print_save_reg
 .text._set_addr
                0x4a0781b0       0x54 nand_sunxi/sun50iw2p1/libnand-sun50iw2p1
                0x4a0781b0                _set_addr
 .text.ndfc_soft_reset
                0x4a078204       0x64 nand_sunxi/sun50iw2p1/libnand-sun50iw2p1
                0x4a078204                ndfc_soft_reset
 .text.ndfc_disable_ecc
                0x4a078268       0x14 nand_sunxi/sun50iw2p1/libnand-sun50iw2p1
                0x4a078268                ndfc_disable_ecc
 .text.ndfc_enable_ecc
                0x4a07827c       0x2c nand_sunxi/sun50iw2p1/libnand-sun50iw2p1
                0x4a07827c                ndfc_enable_ecc
 .text.ndfc_repeat_mode_enable
                0x4a0782a8       0x1c nand_sunxi/sun50iw2p1/libnand-sun50iw2p1
                0x4a0782a8                ndfc_repeat_mode_enable
 .text.ndfc_repeat_mode_disable
                0x4a0782c4       0x1c nand_sunxi/sun50iw2p1/libnand-sun50iw2p1
                0x4a0782c4                ndfc_repeat_mode_disable
 .text.ndfc_wait_cmdfifo_free
                0x4a0782e0       0x40 nand_sunxi/sun50iw2p1/libnand-sun50iw2p1
                0x4a0782e0                ndfc_wait_cmdfifo_free
 .text.ndfc_wait_fsm_ready
                0x4a078320       0x38 nand_sunxi/sun50iw2p1/libnand-sun50iw2p1
                0x4a078320                ndfc_wait_fsm_ready
 .text.ndfc_wait_cmd_finish
                0x4a078358       0x4c nand_sunxi/sun50iw2p1/libnand-sun50iw2p1
                0x4a078358                ndfc_wait_cmd_finish
 .text.ndfc_select_chip
                0x4a0783a4       0x2c nand_sunxi/sun50iw2p1/libnand-sun50iw2p1
                0x4a0783a4                ndfc_select_chip
 .text.ndfc_select_rb
                0x4a0783d0       0x1c nand_sunxi/sun50iw2p1/libnand-sun50iw2p1
                0x4a0783d0                ndfc_select_rb
 .text.ndfc_set_ecc_mode
                0x4a0783ec       0x1c nand_sunxi/sun50iw2p1/libnand-sun50iw2p1
                0x4a0783ec                ndfc_set_ecc_mode
 .text.ndfc_get_ecc_mode
                0x4a078408       0x10 nand_sunxi/sun50iw2p1/libnand-sun50iw2p1
                0x4a078408                ndfc_get_ecc_mode
 .text.ndfc_set_rand_seed
                0x4a078418       0x28 nand_sunxi/sun50iw2p1/libnand-sun50iw2p1
                0x4a078418                ndfc_set_rand_seed
 .text.ndfc_set_default_rand_seed
                0x4a078440       0x1c nand_sunxi/sun50iw2p1/libnand-sun50iw2p1
                0x4a078440                ndfc_set_default_rand_seed
 .text.ndfc_enable_randomize
                0x4a07845c       0x14 nand_sunxi/sun50iw2p1/libnand-sun50iw2p1
                0x4a07845c                ndfc_enable_randomize
 .text.ndfc_disable_randomize
                0x4a078470       0x20 nand_sunxi/sun50iw2p1/libnand-sun50iw2p1
                0x4a078470                ndfc_disable_randomize
 .text.ndfc_enable_rb_b2r_int
                0x4a078490       0x14 nand_sunxi/sun50iw2p1/libnand-sun50iw2p1
                0x4a078490                ndfc_enable_rb_b2r_int
 .text.ndfc_disable_rb_b2r_int
                0x4a0784a4       0x14 nand_sunxi/sun50iw2p1/libnand-sun50iw2p1
                0x4a0784a4                ndfc_disable_rb_b2r_int
 .text.ndfc_enable_dma_int
                0x4a0784b8       0x14 nand_sunxi/sun50iw2p1/libnand-sun50iw2p1
                0x4a0784b8                ndfc_enable_dma_int
 .text.ndfc_disable_dma_int
                0x4a0784cc       0x14 nand_sunxi/sun50iw2p1/libnand-sun50iw2p1
                0x4a0784cc                ndfc_disable_dma_int
 .text.ndfc_clear_dma_int
                0x4a0784e0       0x10 nand_sunxi/sun50iw2p1/libnand-sun50iw2p1
                0x4a0784e0                ndfc_clear_dma_int
 .text.ndfc_wait_rb_ready_int
                0x4a0784f0       0xbc nand_sunxi/sun50iw2p1/libnand-sun50iw2p1
                0x4a0784f0                ndfc_wait_rb_ready_int
 .text.ndfc_wait_rb_ready
                0x4a0785ac       0x28 nand_sunxi/sun50iw2p1/libnand-sun50iw2p1
                0x4a0785ac                ndfc_wait_rb_ready
 .text.ndfc_wait_all_rb_ready
                0x4a0785d4       0x28 nand_sunxi/sun50iw2p1/libnand-sun50iw2p1
                0x4a0785d4                ndfc_wait_all_rb_ready
 .text.ndfc_write_wait_rb_ready
                0x4a0785fc       0x14 nand_sunxi/sun50iw2p1/libnand-sun50iw2p1
                0x4a0785fc                ndfc_write_wait_rb_ready
 .text.fill_nctri
                0x4a078610      0x110 nand_sunxi/sun50iw2p1/libnand-sun50iw2p1
                0x4a078610                fill_nctri
 .text.save_nctri
                0x4a078720      0x164 nand_sunxi/sun50iw2p1/libnand-sun50iw2p1
                0x4a078720                save_nctri
 .text.ndfc_change_page_size
                0x4a078884       0x80 nand_sunxi/sun50iw2p1/libnand-sun50iw2p1
                0x4a078884                ndfc_change_page_size
 .text._normal_cmd_io_send
                0x4a078904      0x130 nand_sunxi/sun50iw2p1/libnand-sun50iw2p1
                0x4a078904                _normal_cmd_io_send
 .text._normal_cmd_io_wait
                0x4a078a34       0xe0 nand_sunxi/sun50iw2p1/libnand-sun50iw2p1
                0x4a078a34                _normal_cmd_io_wait
 .text._batch_cmd_io_send
                0x4a078b14      0x1b0 nand_sunxi/sun50iw2p1/libnand-sun50iw2p1
                0x4a078b14                _batch_cmd_io_send
 .text._batch_cmd_io_wait
                0x4a078cc4       0xbc nand_sunxi/sun50iw2p1/libnand-sun50iw2p1
                0x4a078cc4                _batch_cmd_io_wait
 .text.ndfc_clean_cmd_seq
                0x4a078d80        0xc nand_sunxi/sun50iw2p1/libnand-sun50iw2p1
                0x4a078d80                ndfc_clean_cmd_seq
 .text.ndfc_execute_cmd
                0x4a078d8c       0xf8 nand_sunxi/sun50iw2p1/libnand-sun50iw2p1
                0x4a078d8c                ndfc_execute_cmd
 .text.ndfc_get_spare_data
                0x4a078e84       0x58 nand_sunxi/sun50iw2p1/libnand-sun50iw2p1
                0x4a078e84                ndfc_get_spare_data
 .text.ndfc_set_spare_data
                0x4a078edc       0x58 nand_sunxi/sun50iw2p1/libnand-sun50iw2p1
                0x4a078edc                ndfc_set_spare_data
 .text.ndfc_is_toogle_interface
                0x4a078f34       0x14 nand_sunxi/sun50iw2p1/libnand-sun50iw2p1
                0x4a078f34                ndfc_is_toogle_interface
 .text.ndfc_set_legacy_interface
                0x4a078f48       0x18 nand_sunxi/sun50iw2p1/libnand-sun50iw2p1
                0x4a078f48                ndfc_set_legacy_interface
 .text.ndfc_set_toogle_interface
                0x4a078f60       0x18 nand_sunxi/sun50iw2p1/libnand-sun50iw2p1
                0x4a078f60                ndfc_set_toogle_interface
 .text.ndfc_get_nand_interface
                0x4a078f78       0x54 nand_sunxi/sun50iw2p1/libnand-sun50iw2p1
                0x4a078f78                ndfc_get_nand_interface
 .text.ndfc_change_nand_interface
                0x4a078fcc       0x6c nand_sunxi/sun50iw2p1/libnand-sun50iw2p1
                0x4a078fcc                ndfc_change_nand_interface
 .text.init_nctri
                0x4a079038      0x168 nand_sunxi/sun50iw2p1/libnand-sun50iw2p1
                0x4a079038                init_nctri
 .text.ndfc_dma_config_start
                0x4a0791a0       0xd4 nand_sunxi/sun50iw2p1/libnand-sun50iw2p1
                0x4a0791a0                ndfc_dma_config_start
 .text.ndfc_wait_dma_end
                0x4a079274      0x11c nand_sunxi/sun50iw2p1/libnand-sun50iw2p1
                0x4a079274                ndfc_wait_dma_end
 .text.ndfc_check_read_data_sta
                0x4a079390       0x9c nand_sunxi/sun50iw2p1/libnand-sun50iw2p1
                0x4a079390                ndfc_check_read_data_sta
 .text.ndfc_get_bad_blk_flag
                0x4a07942c       0xb4 nand_sunxi/sun50iw2p1/libnand-sun50iw2p1
                0x4a07942c                ndfc_get_bad_blk_flag
 .text.ndfc_check_ecc
                0x4a0794e0      0x124 nand_sunxi/sun50iw2p1/libnand-sun50iw2p1
                0x4a0794e0                ndfc_check_ecc
 .text.ndfc_update_ecc_sta_and_spare_data
                0x4a079604       0xdc nand_sunxi/sun50iw2p1/libnand-sun50iw2p1
                0x4a079604                ndfc_update_ecc_sta_and_spare_data
 .text._cal_sum
                0x4a0796e0       0x78 nand_sunxi/sun50iw2p1/libnand-sun50iw2p1
                0x4a0796e0                _cal_sum
 .text.check_sum
                0x4a079758       0x90 nand_sunxi/sun50iw2p1/libnand-sun50iw2p1
                0x4a079758                check_sum
 .text._generate_page_map_tab
                0x4a0797e8      0x23c nand_sunxi/sun50iw2p1/libnand-sun50iw2p1
                0x4a0797e8                _generate_page_map_tab
 .text.m0_write_boot0_one_pagetab_nonsecure
                0x4a079a24      0x2c4 nand_sunxi/sun50iw2p1/libnand-sun50iw2p1
                0x4a079a24                m0_write_boot0_one_pagetab_nonsecure
 .text.m0_write_boot0_one_pagetab_4k
                0x4a079ce8      0x31c nand_sunxi/sun50iw2p1/libnand-sun50iw2p1
                0x4a079ce8                m0_write_boot0_one_pagetab_4k
 .text.m0_write_boot0_one_pagetab_2k
                0x4a07a004      0x31c nand_sunxi/sun50iw2p1/libnand-sun50iw2p1
                0x4a07a004                m0_write_boot0_one_pagetab_2k
 .text.m0_write_boot0_one_1k_mode
                0x4a07a320      0x1c0 nand_sunxi/sun50iw2p1/libnand-sun50iw2p1
                0x4a07a320                m0_write_boot0_one_1k_mode
 .text.m0_write_boot0_one_nonsecure
                0x4a07a4e0       0x54 nand_sunxi/sun50iw2p1/libnand-sun50iw2p1
                0x4a07a4e0                m0_write_boot0_one_nonsecure
 .text.m0_write_boot0_one_secure
                0x4a07a534       0xb4 nand_sunxi/sun50iw2p1/libnand-sun50iw2p1
                0x4a07a534                m0_write_boot0_one_secure
 .text.m0_write_boot0_one
                0x4a07a5e8       0x70 nand_sunxi/sun50iw2p1/libnand-sun50iw2p1
                0x4a07a5e8                m0_write_boot0_one
 .text.m0_erase_block_start
                0x4a07a658      0x120 nand_sunxi/sun50iw2p1/libnand-sun50iw2p1
                0x4a07a658                m0_erase_block_start
 .text.m0_erase_block
                0x4a07a778       0x5c nand_sunxi/sun50iw2p1/libnand-sun50iw2p1
                0x4a07a778                m0_erase_block
 .text.m0_read_page_start
                0x4a07a7d4      0x1b4 nand_sunxi/sun50iw2p1/libnand-sun50iw2p1
                0x4a07a7d4                m0_read_page_start
 .text.m0_read_page_end_not_retry
                0x4a07a988       0xf0 nand_sunxi/sun50iw2p1/libnand-sun50iw2p1
                0x4a07a988                m0_read_page_end_not_retry
 .text.m0_read_page_end
                0x4a07aa78       0x64 nand_sunxi/sun50iw2p1/libnand-sun50iw2p1
                0x4a07aa78                m0_read_page_end
 .text.m0_read_page
                0x4a07aadc      0x10c nand_sunxi/sun50iw2p1/libnand-sun50iw2p1
                0x4a07aadc                m0_read_page
 .text.m0_write_page_start
                0x4a07abe8      0x230 nand_sunxi/sun50iw2p1/libnand-sun50iw2p1
                0x4a07abe8                m0_write_page_start
 .text.m0_write_page_end
                0x4a07ae18       0x98 nand_sunxi/sun50iw2p1/libnand-sun50iw2p1
                0x4a07ae18                m0_write_page_end
 .text.m0_write_page
                0x4a07aeb0       0xf8 nand_sunxi/sun50iw2p1/libnand-sun50iw2p1
                0x4a07aeb0                m0_write_page
 .text.m0_read_two_plane_page
                0x4a07afa8      0x170 nand_sunxi/sun50iw2p1/libnand-sun50iw2p1
                0x4a07afa8                m0_read_two_plane_page
 .text.m0_write_two_plane_page
                0x4a07b118      0x118 nand_sunxi/sun50iw2p1/libnand-sun50iw2p1
                0x4a07b118                m0_write_two_plane_page
 .text.m0_bad_block_check
                0x4a07b230      0x194 nand_sunxi/sun50iw2p1/libnand-sun50iw2p1
                0x4a07b230                m0_bad_block_check
 .text.m0_bad_block_mark
                0x4a07b3c4      0x358 nand_sunxi/sun50iw2p1/libnand-sun50iw2p1
                0x4a07b3c4                m0_bad_block_mark
 .text.m0_use_chip_function
                0x4a07b71c      0x2b0 nand_sunxi/sun50iw2p1/libnand-sun50iw2p1
                0x4a07b71c                m0_use_chip_function
 .text.m0_rw_use_chip_function
                0x4a07b9cc      0x828 nand_sunxi/sun50iw2p1/libnand-sun50iw2p1
                0x4a07b9cc                m0_rw_use_chip_function
 .text.m0_erase_super_block
                0x4a07c1f4        0x8 nand_sunxi/sun50iw2p1/libnand-sun50iw2p1
                0x4a07c1f4                m0_erase_super_block
 .text.m0_read_super_page
                0x4a07c1fc        0x8 nand_sunxi/sun50iw2p1/libnand-sun50iw2p1
                0x4a07c1fc                m0_read_super_page
 .text.m0_write_super_page
                0x4a07c204        0x8 nand_sunxi/sun50iw2p1/libnand-sun50iw2p1
                0x4a07c204                m0_write_super_page
 .text.m0_super_bad_block_check
                0x4a07c20c        0x8 nand_sunxi/sun50iw2p1/libnand-sun50iw2p1
                0x4a07c20c                m0_super_bad_block_check
 .text.m0_super_bad_block_mark
                0x4a07c214        0x8 nand_sunxi/sun50iw2p1/libnand-sun50iw2p1
                0x4a07c214                m0_super_bad_block_mark
 .text.m0_special_init
                0x4a07c21c       0x2c nand_sunxi/sun50iw2p1/libnand-sun50iw2p1
                0x4a07c21c                m0_special_init
 .text.m0_special_exit
                0x4a07c248       0x18 nand_sunxi/sun50iw2p1/libnand-sun50iw2p1
                0x4a07c248                m0_special_exit
 .text.m0_is_lsb_page
                0x4a07c260        0x8 nand_sunxi/sun50iw2p1/libnand-sun50iw2p1
                0x4a07c260                m0_is_lsb_page
 .text.m1_write_page_FF
                0x4a07c268      0x240 nand_sunxi/sun50iw2p1/libnand-sun50iw2p1
                0x4a07c268                m1_write_page_FF
 .text.m1_vender_set_param
                0x4a07c4a8       0xac nand_sunxi/sun50iw2p1/libnand-sun50iw2p1
                0x4a07c4a8                m1_vender_set_param
 .text.m1_major_check_byte
                0x4a07c554      0x160 nand_sunxi/sun50iw2p1/libnand-sun50iw2p1
                0x4a07c554                m1_major_check_byte
 .text.m1_get_read_retry_cfg
                0x4a07c6b4      0x210 nand_sunxi/sun50iw2p1/libnand-sun50iw2p1
                0x4a07c6b4                m1_get_read_retry_cfg
 .text.m1_read_otp_info_hynix
                0x4a07c8c4      0x250 nand_sunxi/sun50iw2p1/libnand-sun50iw2p1
                0x4a07c8c4                m1_read_otp_info_hynix
 .text.m1_get_rr_value_otp_hynix
                0x4a07cb14       0xa0 nand_sunxi/sun50iw2p1/libnand-sun50iw2p1
                0x4a07cb14                m1_get_rr_value_otp_hynix
 .text.m1_saveotpvalue
                0x4a07cbb4       0x20 nand_sunxi/sun50iw2p1/libnand-sun50iw2p1
                0x4a07cbb4                m1_saveotpvalue
 .text.m1_getotpparam
                0x4a07cbd4       0x74 nand_sunxi/sun50iw2p1/libnand-sun50iw2p1
                0x4a07cbd4                m1_getotpparam
 .text.m1_setdefaultparam
                0x4a07cc48       0x94 nand_sunxi/sun50iw2p1/libnand-sun50iw2p1
                0x4a07cc48                m1_setdefaultparam
 .text.m1_readretry_exit
                0x4a07ccdc       0x28 nand_sunxi/sun50iw2p1/libnand-sun50iw2p1
                0x4a07ccdc                m1_readretry_exit
 .text.m1_set_readretry
                0x4a07cd04       0x64 nand_sunxi/sun50iw2p1/libnand-sun50iw2p1
                0x4a07cd04                m1_set_readretry
 .text.m1_read_page_end
                0x4a07cd68      0x118 nand_sunxi/sun50iw2p1/libnand-sun50iw2p1
                0x4a07cd68                m1_read_page_end
 .text.m1_special_exit
                0x4a07ce80       0x40 nand_sunxi/sun50iw2p1/libnand-sun50iw2p1
                0x4a07ce80                m1_special_exit
 .text.m1_is_lsb_page
                0x4a07cec0       0x34 nand_sunxi/sun50iw2p1/libnand-sun50iw2p1
                0x4a07cec0                m1_is_lsb_page
 .text.m1_get_hynix_special_info
                0x4a07cef4      0x100 nand_sunxi/sun50iw2p1/libnand-sun50iw2p1
                0x4a07cef4                m1_get_hynix_special_info
 .text.m1_init_readretry_param
                0x4a07cff4      0x144 nand_sunxi/sun50iw2p1/libnand-sun50iw2p1
                0x4a07cff4                m1_init_readretry_param
 .text.m1_readretry_init
                0x4a07d138       0xb0 nand_sunxi/sun50iw2p1/libnand-sun50iw2p1
                0x4a07d138                m1_readretry_init
 .text.m1_special_init
                0x4a07d1e8       0xa4 nand_sunxi/sun50iw2p1/libnand-sun50iw2p1
                0x4a07d1e8                m1_special_init
 .text.m8_read_boot0_page_cfg_mode
                0x4a07d28c      0x1e8 nand_sunxi/sun50iw2p1/libnand-sun50iw2p1
                0x4a07d28c                m8_read_boot0_page_cfg_mode
 .text.m8_write_boot0_page_cfg_mode
                0x4a07d474      0x1f0 nand_sunxi/sun50iw2p1/libnand-sun50iw2p1
                0x4a07d474                m8_write_boot0_page_cfg_mode
 .text.m8_read_boot0_page
                0x4a07d664       0x44 nand_sunxi/sun50iw2p1/libnand-sun50iw2p1
                0x4a07d664                m8_read_boot0_page
 .text.m8_write_boot0_page
                0x4a07d6a8       0x38 nand_sunxi/sun50iw2p1/libnand-sun50iw2p1
                0x4a07d6a8                m8_write_boot0_page
 .text.m8_read_boot0_one_pagetab_nonsecure
                0x4a07d6e0      0x180 nand_sunxi/sun50iw2p1/libnand-sun50iw2p1
                0x4a07d6e0                m8_read_boot0_one_pagetab_nonsecure
 .text.m8_read_boot0_one_pagetab_4k
                0x4a07d860      0x170 nand_sunxi/sun50iw2p1/libnand-sun50iw2p1
                0x4a07d860                m8_read_boot0_one_pagetab_4k
 .text.m8_read_boot0_one_pagetab_2k
                0x4a07d9d0      0x170 nand_sunxi/sun50iw2p1/libnand-sun50iw2p1
                0x4a07d9d0                m8_read_boot0_one_pagetab_2k
 .text.m8_read_boot0_one_1k_mode
                0x4a07db40      0x1c4 nand_sunxi/sun50iw2p1/libnand-sun50iw2p1
                0x4a07db40                m8_read_boot0_one_1k_mode
 .text.m8_read_boot0_one_nonsecure
                0x4a07dd04       0x54 nand_sunxi/sun50iw2p1/libnand-sun50iw2p1
                0x4a07dd04                m8_read_boot0_one_nonsecure
 .text.m8_read_boot0_one_secure
                0x4a07dd58       0x94 nand_sunxi/sun50iw2p1/libnand-sun50iw2p1
                0x4a07dd58                m8_read_boot0_one_secure
 .text.m8_read_boot0_one
                0x4a07ddec       0x50 nand_sunxi/sun50iw2p1/libnand-sun50iw2p1
                0x4a07ddec                m8_read_boot0_one
 .text.m8_write_boot0_one_nonsecure
                0x4a07de3c      0x2f8 nand_sunxi/sun50iw2p1/libnand-sun50iw2p1
                0x4a07de3c                m8_write_boot0_one_nonsecure
 .text.m8_write_boot0_one_secure
                0x4a07e134      0x3a4 nand_sunxi/sun50iw2p1/libnand-sun50iw2p1
                0x4a07e134                m8_write_boot0_one_secure
 .text.m8_write_boot0_one
                0x4a07e4d8       0x58 nand_sunxi/sun50iw2p1/libnand-sun50iw2p1
                0x4a07e4d8                m8_write_boot0_one
 .text.m2_write_boot0_one_nonsecure
                0x4a07e530      0x374 nand_sunxi/sun50iw2p1/libnand-sun50iw2p1
                0x4a07e530                m2_write_boot0_one_nonsecure
 .text.m2_write_boot0_one_secure
                0x4a07e8a4      0x3cc nand_sunxi/sun50iw2p1/libnand-sun50iw2p1
                0x4a07e8a4                m2_write_boot0_one_secure
 .text.m2_write_boot0_one
                0x4a07ec70       0x50 nand_sunxi/sun50iw2p1/libnand-sun50iw2p1
                0x4a07ec70                m2_write_boot0_one
 .text.m2_vender_get_param
                0x4a07ecc0       0x70 nand_sunxi/sun50iw2p1/libnand-sun50iw2p1
                0x4a07ecc0                m2_vender_get_param
 .text.m2_vender_set_param
                0x4a07ed30       0x8c nand_sunxi/sun50iw2p1/libnand-sun50iw2p1
                0x4a07ed30                m2_vender_set_param
 .text.m2_lsb_init
                0x4a07edbc       0xd0 nand_sunxi/sun50iw2p1/libnand-sun50iw2p1
                0x4a07edbc                m2_lsb_init
 .text.m2_lsb_enable
                0x4a07ee8c       0x74 nand_sunxi/sun50iw2p1/libnand-sun50iw2p1
                0x4a07ee8c                m2_lsb_enable
 .text.m2_lsb_disable
                0x4a07ef00       0x2c nand_sunxi/sun50iw2p1/libnand-sun50iw2p1
                0x4a07ef00                m2_lsb_disable
 .text.m2_lsb_exit
                0x4a07ef2c       0x8c nand_sunxi/sun50iw2p1/libnand-sun50iw2p1
                0x4a07ef2c                m2_lsb_exit
 .text.m2_vender_get_param_otp_hynix
                0x4a07efb8      0x2a0 nand_sunxi/sun50iw2p1/libnand-sun50iw2p1
                0x4a07efb8                m2_vender_get_param_otp_hynix
 .text.m2_saveotpvalue
                0x4a07f258       0x20 nand_sunxi/sun50iw2p1/libnand-sun50iw2p1
                0x4a07f258                m2_saveotpvalue
 .text.m2_getotpparam
                0x4a07f278       0x90 nand_sunxi/sun50iw2p1/libnand-sun50iw2p1
                0x4a07f278                m2_getotpparam
 .text.m2_setdefaultparam
                0x4a07f308       0x94 nand_sunxi/sun50iw2p1/libnand-sun50iw2p1
                0x4a07f308                m2_setdefaultparam
 .text.m2_init_readretry_param
                0x4a07f39c      0x150 nand_sunxi/sun50iw2p1/libnand-sun50iw2p1
                0x4a07f39c                m2_init_readretry_param
 .text.m2_readretry_init
                0x4a07f4ec      0x118 nand_sunxi/sun50iw2p1/libnand-sun50iw2p1
                0x4a07f4ec                m2_readretry_init
 .text.m2_readretry_exit
                0x4a07f604       0x28 nand_sunxi/sun50iw2p1/libnand-sun50iw2p1
                0x4a07f604                m2_readretry_exit
 .text.m2_set_readretry
                0x4a07f62c       0xb0 nand_sunxi/sun50iw2p1/libnand-sun50iw2p1
                0x4a07f62c                m2_set_readretry
 .text.m2_read_page_end
                0x4a07f6dc      0x184 nand_sunxi/sun50iw2p1/libnand-sun50iw2p1
                0x4a07f6dc                m2_read_page_end
 .text.m2_special_init
                0x4a07f860       0xa4 nand_sunxi/sun50iw2p1/libnand-sun50iw2p1
                0x4a07f860                m2_special_init
 .text.m2_special_exit
                0x4a07f904       0x40 nand_sunxi/sun50iw2p1/libnand-sun50iw2p1
                0x4a07f904                m2_special_exit
 .text.m2_is_lsb_page
                0x4a07f944       0x60 nand_sunxi/sun50iw2p1/libnand-sun50iw2p1
                0x4a07f944                m2_is_lsb_page
 .text.m3_write_boot0_one_nonsecure
                0x4a07f9a4      0x374 nand_sunxi/sun50iw2p1/libnand-sun50iw2p1
                0x4a07f9a4                m3_write_boot0_one_nonsecure
 .text.m3_write_boot0_one_secure
                0x4a07fd18      0x3cc nand_sunxi/sun50iw2p1/libnand-sun50iw2p1
                0x4a07fd18                m3_write_boot0_one_secure
 .text.m3_write_boot0_one
                0x4a0800e4       0x50 nand_sunxi/sun50iw2p1/libnand-sun50iw2p1
                0x4a0800e4                m3_write_boot0_one
 .text.m3_vender_get_param
                0x4a080134       0x70 nand_sunxi/sun50iw2p1/libnand-sun50iw2p1
                0x4a080134                m3_vender_get_param
 .text.m3_vender_set_param
                0x4a0801a4       0xac nand_sunxi/sun50iw2p1/libnand-sun50iw2p1
                0x4a0801a4                m3_vender_set_param
 .text.m3_lsb_init
                0x4a080250       0xa0 nand_sunxi/sun50iw2p1/libnand-sun50iw2p1
                0x4a080250                m3_lsb_init
 .text.m3_lsb_enable
                0x4a0802f0       0x74 nand_sunxi/sun50iw2p1/libnand-sun50iw2p1
                0x4a0802f0                m3_lsb_enable
 .text.m3_lsb_disable
                0x4a080364       0x2c nand_sunxi/sun50iw2p1/libnand-sun50iw2p1
                0x4a080364                m3_lsb_disable
 .text.m3_lsb_exit
                0x4a080390       0x8c nand_sunxi/sun50iw2p1/libnand-sun50iw2p1
                0x4a080390                m3_lsb_exit
 .text.m3_getdefaultparam
                0x4a08041c       0x50 nand_sunxi/sun50iw2p1/libnand-sun50iw2p1
                0x4a08041c                m3_getdefaultparam
 .text.m3_setdefaultparam
                0x4a08046c       0x94 nand_sunxi/sun50iw2p1/libnand-sun50iw2p1
                0x4a08046c                m3_setdefaultparam
 .text.m3_get_default_param
                0x4a080500       0x5c nand_sunxi/sun50iw2p1/libnand-sun50iw2p1
                0x4a080500                m3_get_default_param
 .text.m3_readretry_init
                0x4a08055c      0x18c nand_sunxi/sun50iw2p1/libnand-sun50iw2p1
                0x4a08055c                m3_readretry_init
 .text.m3_readretry_exit
                0x4a0806e8       0x28 nand_sunxi/sun50iw2p1/libnand-sun50iw2p1
                0x4a0806e8                m3_readretry_exit
 .text.m3_set_readretry
                0x4a080710      0x100 nand_sunxi/sun50iw2p1/libnand-sun50iw2p1
                0x4a080710                m3_set_readretry
 .text.m3_read_page_end
                0x4a080810      0x118 nand_sunxi/sun50iw2p1/libnand-sun50iw2p1
                0x4a080810                m3_read_page_end
 .text.m3_special_init
                0x4a080928       0xa4 nand_sunxi/sun50iw2p1/libnand-sun50iw2p1
                0x4a080928                m3_special_init
 .text.m3_special_exit
                0x4a0809cc       0x40 nand_sunxi/sun50iw2p1/libnand-sun50iw2p1
                0x4a0809cc                m3_special_exit
 .text.m3_is_lsb_page
                0x4a080a0c       0x60 nand_sunxi/sun50iw2p1/libnand-sun50iw2p1
                0x4a080a0c                m3_is_lsb_page
 .text.micron_intel_set_feature
                0x4a080a6c       0x7c nand_sunxi/sun50iw2p1/libnand-sun50iw2p1
                0x4a080a6c                micron_intel_set_feature
 .text.m4_readretry_init
                0x4a080ae8       0xec nand_sunxi/sun50iw2p1/libnand-sun50iw2p1
                0x4a080ae8                m4_readretry_init
 .text.m4_set_readretry
                0x4a080bd4       0xec nand_sunxi/sun50iw2p1/libnand-sun50iw2p1
                0x4a080bd4                m4_set_readretry
 .text.m4_read_page_end
                0x4a080cc0       0xf0 nand_sunxi/sun50iw2p1/libnand-sun50iw2p1
                0x4a080cc0                m4_read_page_end
 .text.m4_special_init
                0x4a080db0       0x94 nand_sunxi/sun50iw2p1/libnand-sun50iw2p1
                0x4a080db0                m4_special_init
 .text.m4_special_exit
                0x4a080e44       0x60 nand_sunxi/sun50iw2p1/libnand-sun50iw2p1
                0x4a080e44                m4_special_exit
 .text.m4_0x40_is_lsb_page
                0x4a080ea4       0x60 nand_sunxi/sun50iw2p1/libnand-sun50iw2p1
                0x4a080ea4                m4_0x40_is_lsb_page
 .text.m4_0x41_is_lsb_page
                0x4a080f04       0x60 nand_sunxi/sun50iw2p1/libnand-sun50iw2p1
                0x4a080f04                m4_0x41_is_lsb_page
 .text.m4_0x42_is_lsb_page
                0x4a080f64       0x70 nand_sunxi/sun50iw2p1/libnand-sun50iw2p1
                0x4a080f64                m4_0x42_is_lsb_page
 .text.m5_readretry_init
                0x4a080fd4       0x50 nand_sunxi/sun50iw2p1/libnand-sun50iw2p1
                0x4a080fd4                m5_readretry_init
 .text.m5_vender_set_param
                0x4a081024       0x60 nand_sunxi/sun50iw2p1/libnand-sun50iw2p1
                0x4a081024                m5_vender_set_param
 .text.m5_set_readretry
                0x4a081084       0x60 nand_sunxi/sun50iw2p1/libnand-sun50iw2p1
                0x4a081084                m5_set_readretry
 .text.m5_read_page_end
                0x4a0810e4       0xf0 nand_sunxi/sun50iw2p1/libnand-sun50iw2p1
                0x4a0810e4                m5_read_page_end
 .text.m5_special_init
                0x4a0811d4       0x94 nand_sunxi/sun50iw2p1/libnand-sun50iw2p1
                0x4a0811d4                m5_special_init
 .text.m5_special_exit
                0x4a081268       0x38 nand_sunxi/sun50iw2p1/libnand-sun50iw2p1
                0x4a081268                m5_special_exit
 .text.m5_is_lsb_page
                0x4a0812a0       0x38 nand_sunxi/sun50iw2p1/libnand-sun50iw2p1
                0x4a0812a0                m5_is_lsb_page
 .text.m6_readretry_init
                0x4a0812d8       0x54 nand_sunxi/sun50iw2p1/libnand-sun50iw2p1
                0x4a0812d8                m6_readretry_init
 .text.m6_vender_pre_condition
                0x4a08132c       0x48 nand_sunxi/sun50iw2p1/libnand-sun50iw2p1
                0x4a08132c                m6_vender_pre_condition
 .text.m6_read_retry_clock_save
                0x4a081374       0x40 nand_sunxi/sun50iw2p1/libnand-sun50iw2p1
                0x4a081374                m6_read_retry_clock_save
 .text.m6_read_retry_clock_recover
                0x4a0813b4       0x30 nand_sunxi/sun50iw2p1/libnand-sun50iw2p1
                0x4a0813b4                m6_read_retry_clock_recover
 .text.m6_vender_set_param
                0x4a0813e4      0x240 nand_sunxi/sun50iw2p1/libnand-sun50iw2p1
                0x4a0813e4                m6_vender_set_param
 .text.m6_set_readretry
                0x4a081624      0x110 nand_sunxi/sun50iw2p1/libnand-sun50iw2p1
                0x4a081624                m6_set_readretry
 .text.m6_exit_readretry
                0x4a081734       0xe4 nand_sunxi/sun50iw2p1/libnand-sun50iw2p1
                0x4a081734                m6_exit_readretry
 .text.m6_read_page_end
                0x4a081818      0x108 nand_sunxi/sun50iw2p1/libnand-sun50iw2p1
                0x4a081818                m6_read_page_end
 .text.m6_special_init
                0x4a081920       0xa4 nand_sunxi/sun50iw2p1/libnand-sun50iw2p1
                0x4a081920                m6_special_init
 .text.m6_special_exit
                0x4a0819c4       0x38 nand_sunxi/sun50iw2p1/libnand-sun50iw2p1
                0x4a0819c4                m6_special_exit
 .text.m6_is_lsb_page
                0x4a0819fc       0x38 nand_sunxi/sun50iw2p1/libnand-sun50iw2p1
                0x4a0819fc                m6_is_lsb_page
 .text.m7_activation_seq
                0x4a081a34       0xcc nand_sunxi/sun50iw2p1/libnand-sun50iw2p1
                0x4a081a34                m7_activation_seq
 .text.m7_readretry_init
                0x4a081b00       0x88 nand_sunxi/sun50iw2p1/libnand-sun50iw2p1
                0x4a081b00                m7_readretry_init
 .text.m7_read_retry_clock_save
                0x4a081b88       0x40 nand_sunxi/sun50iw2p1/libnand-sun50iw2p1
                0x4a081b88                m7_read_retry_clock_save
 .text.m7_read_retry_clock_recover
                0x4a081bc8       0x30 nand_sunxi/sun50iw2p1/libnand-sun50iw2p1
                0x4a081bc8                m7_read_retry_clock_recover
 .text.m7_end_one_read_retry
                0x4a081bf8       0xa8 nand_sunxi/sun50iw2p1/libnand-sun50iw2p1
                0x4a081bf8                m7_end_one_read_retry
 .text.m7_vender_set_param
                0x4a081ca0       0xc4 nand_sunxi/sun50iw2p1/libnand-sun50iw2p1
                0x4a081ca0                m7_vender_set_param
 .text.m7_set_readretry
                0x4a081d64      0x178 nand_sunxi/sun50iw2p1/libnand-sun50iw2p1
                0x4a081d64                m7_set_readretry
 .text.m7_exit_readretry
                0x4a081edc       0xe8 nand_sunxi/sun50iw2p1/libnand-sun50iw2p1
                0x4a081edc                m7_exit_readretry
 .text.m7_read_page_end
                0x4a081fc4      0x144 nand_sunxi/sun50iw2p1/libnand-sun50iw2p1
                0x4a081fc4                m7_read_page_end
 .text.m7_special_init
                0x4a082108       0xa4 nand_sunxi/sun50iw2p1/libnand-sun50iw2p1
                0x4a082108                m7_special_init
 .text.m7_special_exit
                0x4a0821ac       0x38 nand_sunxi/sun50iw2p1/libnand-sun50iw2p1
                0x4a0821ac                m7_special_exit
 .text.m7_is_lsb_page
                0x4a0821e4       0x38 nand_sunxi/sun50iw2p1/libnand-sun50iw2p1
                0x4a0821e4                m7_is_lsb_page
 .text.m9_dsp_on
                0x4a08221c       0x4c nand_sunxi/sun50iw2p1/libnand-sun50iw2p1
                0x4a08221c                m9_dsp_on
 .text.m9_cmd25
                0x4a082268       0x4c nand_sunxi/sun50iw2p1/libnand-sun50iw2p1
                0x4a082268                m9_cmd25
 .text.m9_set_lmflgfix_next
                0x4a0822b4       0xf8 nand_sunxi/sun50iw2p1/libnand-sun50iw2p1
                0x4a0822b4                m9_set_lmflgfix_next
 .text.m9_readretry_init
                0x4a0823ac       0x78 nand_sunxi/sun50iw2p1/libnand-sun50iw2p1
                0x4a0823ac                m9_readretry_init
 .text.m9_vender_set_param
                0x4a082424       0x30 nand_sunxi/sun50iw2p1/libnand-sun50iw2p1
                0x4a082424                m9_vender_set_param
 .text.m9_set_readretry
                0x4a082454       0x5c nand_sunxi/sun50iw2p1/libnand-sun50iw2p1
                0x4a082454                m9_set_readretry
 .text.m9_exit_readretry
                0x4a0824b0       0x5c nand_sunxi/sun50iw2p1/libnand-sun50iw2p1
                0x4a0824b0                m9_exit_readretry
 .text.m9_read_page_end
                0x4a08250c      0x3d0 nand_sunxi/sun50iw2p1/libnand-sun50iw2p1
                0x4a08250c                m9_read_page_end
 .text.m9_special_init
                0x4a0828dc       0x8c nand_sunxi/sun50iw2p1/libnand-sun50iw2p1
                0x4a0828dc                m9_special_init
 .text.m9_special_exit
                0x4a082968       0x38 nand_sunxi/sun50iw2p1/libnand-sun50iw2p1
                0x4a082968                m9_special_exit

.glue_7         0x4a0829a0        0x0
 .glue_7        0x00000000        0x0 linker stubs

.glue_7t        0x4a0829a0        0x0
 .glue_7t       0x00000000        0x0 linker stubs

.vfp11_veneer   0x4a0829a0        0x0
 .vfp11_veneer  0x00000000        0x0 linker stubs

.v4_bx          0x4a0829a0        0x0
 .v4_bx         0x00000000        0x0 linker stubs

.iplt           0x4a0829a0        0x0
 .iplt          0x00000000        0x0 arch/arm/cpu/armv7/spare_head.o
                0x4a0829a0                . = ALIGN (0x4)

.rodata         0x4a0829a0    0x283f7
 *(SORT(.rodata*))
 .rodata        0x4a0829a0       0x80 arch/arm/lib/built-in.o
 .rodata        0x4a082a20       0x48 board/sunxi/common/built-in.o
 .rodata        0x4a082a68      0x684 drivers/built-in.o
 .rodata        0x4a0830ec       0x18 drivers/mmc/built-in.o
 .rodata        0x4a083104       0x58 drivers/pwm/built-in.o
 .rodata.CSWTCH.100
                0x4a08315c        0xc drivers/built-in.o
 .rodata.LCM_LT080B21BA94_setting
                0x4a083168     0x3d50 drivers/built-in.o
 .rodata.RSAPublicKey_aux
                0x4a086eb8       0x18 lib/openssl/built-in.o
 .rodata.RSAPublicKey_seq_tt
                0x4a086ed0       0x28 lib/openssl/built-in.o
 .rodata.X509_ALGOR_seq_tt
                0x4a086ef8       0x28 lib/openssl/built-in.o
 .rodata.X509_CINF_aux
                0x4a086f20       0x18 lib/openssl/built-in.o
 .rodata.X509_CINF_seq_tt
                0x4a086f38       0x50 lib/openssl/built-in.o
 .rodata.X509_EXTENSION_seq_tt
                0x4a086f88       0x3c lib/openssl/built-in.o
 .rodata.X509_PUBKEY_aux
                0x4a086fc4       0x18 lib/openssl/built-in.o
 .rodata.X509_PUBKEY_seq_tt
                0x4a086fdc       0x28 lib/openssl/built-in.o
 .rodata.X509_aux
                0x4a087004       0x18 lib/openssl/built-in.o
 .rodata.X509_seq_tt
                0x4a08701c       0x3c lib/openssl/built-in.o
 .rodata.baudrate_table
                0x4a087058       0x14 drivers/serial/built-in.o
 .rodata.block_drvr
                0x4a08706c       0x24 disk/built-in.o
 .rodata.boot_os
                0x4a087090       0x60 common/built-in.o
 .rodata.clk_tbl
                0x4a0870f0       0x50 drivers/built-in.o
 .rodata.crc_table
                0x4a087140      0x400 lib/built-in.o
 .rodata.de_clk_tbl
                0x4a087540       0x9c drivers/built-in.o
 .rodata.env_flags_varaccess_mask
                0x4a0875dc       0x10 common/built-in.o
 .rodata.fbase  0x4a0875ec       0x10 drivers/mmc/built-in.o
 .rodata.fdt_errtable
                0x4a0875fc       0x34 lib/libfdt/built-in.o
 .rodata.hdmi_mode_tbl
                0x4a087630       0x90 drivers/built-in.o
 .rodata.local_it.10847
                0x4a0876c0       0x1c lib/openssl/built-in.o
 .rodata.local_it.10851
                0x4a0876dc       0x1c lib/openssl/built-in.o
 .rodata.local_it.10855
                0x4a0876f8       0x1c lib/openssl/built-in.o
 .rodata.local_it.10859
                0x4a087714       0x1c lib/openssl/built-in.o
 .rodata.local_it.10863
                0x4a087730       0x1c lib/openssl/built-in.o
 .rodata.local_it.10871
                0x4a08774c       0x1c lib/openssl/built-in.o
 .rodata.local_it.11686
                0x4a087768       0x1c lib/openssl/built-in.o
 .rodata.local_it.11687
                0x4a087784       0x1c lib/openssl/built-in.o
 .rodata.local_it.11691
                0x4a0877a0       0x1c lib/openssl/built-in.o
 .rodata.local_it.11692
                0x4a0877bc       0x1c lib/openssl/built-in.o
 .rodata.local_it.11693
                0x4a0877d8       0x1c lib/openssl/built-in.o
 .rodata.local_it.11702
                0x4a0877f4       0x1c lib/openssl/built-in.o
 .rodata.local_it.6698
                0x4a087810       0x1c lib/openssl/built-in.o
 .rodata.multipliers
                0x4a08782c       0x40 drivers/mmc/built-in.o
 .rodata.op_adv
                0x4a08786c      0x100 common/built-in.o
                0x4a08786c                op_adv
 .rodata.panel_config
                0x4a08796c      0x498 drivers/built-in.o
                0x4a08796c                panel_config
 .rodata.ptbl   0x4a087e04      0x558 drivers/built-in.o
 .rodata.random_seed
                0x4a08835c      0x200 nand_sunxi/sun50iw2p1/libnand-sun50iw2p1
                0x4a08835c                random_seed
 .rodata.rsa_pkcs1_eay_meth
                0x4a08855c       0x38 lib/openssl/built-in.o
                0x4a08855c                rsa_pkcs1_eay_meth
 .rodata.serial_ports
                0x4a088594       0x18 drivers/serial/built-in.o
 .rodata.sun50iw2_de_features
                0x4a0885ac       0x2c drivers/built-in.o
 .rodata.sun50iw2_de_is_support_scale
                0x4a0885d8       0x18 drivers/built-in.o
 .rodata.sun50iw2_de_is_support_smbl
                0x4a0885f0        0x8 drivers/built-in.o
 .rodata.sun50iw2_de_is_support_vep
                0x4a0885f8       0x18 drivers/built-in.o
 .rodata.sun50iw2_de_is_support_wb
                0x4a088610        0x8 drivers/built-in.o
 .rodata.sun50iw2_de_num_chns
                0x4a088618        0x8 drivers/built-in.o
 .rodata.sun50iw2_de_num_layers
                0x4a088620       0x18 drivers/built-in.o
 .rodata.sun50iw2_de_num_vi_chns
                0x4a088638        0x8 drivers/built-in.o
 .rodata.sun50iw2_de_scale_line_buffer
                0x4a088640        0x8 drivers/built-in.o
 .rodata.sun50iw2_de_supported_output_types
                0x4a088648        0x8 drivers/built-in.o
 .rodata.sunxi_clk_factors_ops
                0x4a088650       0x2c drivers/clk/built-in.o
 .rodata.sunxi_clk_periph_ops
                0x4a08867c       0x2c drivers/clk/built-in.o
 .rodata.sunxi_mmc_ops
                0x4a0886a8       0x24 drivers/mmc/built-in.o
                0x4a0886a8                sunxi_mmc_ops
 .rodata.tacc_exp
                0x4a0886cc       0x20 drivers/mmc/built-in.o
 .rodata.tacc_mant
                0x4a0886ec       0x40 drivers/mmc/built-in.o
 .rodata.uimage_arch
                0x4a08872c      0x120 common/built-in.o
 .rodata.uimage_comp
                0x4a08884c       0x48 common/built-in.o
 .rodata.uimage_os
                0x4a088894       0x78 common/built-in.o
 .rodata.uimage_type
                0x4a08890c       0xf0 common/built-in.o
 .rodata.dbase.4091
                0x4a0889fc       0x40 lib/built-in.o
 .rodata.dext.4092
                0x4a088a3c       0x40 lib/built-in.o
 .rodata.distfix
                0x4a088a7c       0x80 lib/built-in.o
 .rodata.lbase.4089
                0x4a088afc       0x3e lib/built-in.o
 .rodata.lenfix
                0x4a088b3a      0x800 lib/built-in.o
 .rodata.lext.4090
                0x4a08933a       0x3e lib/built-in.o
 .rodata.order.4185
                0x4a089378       0x26 lib/built-in.o
 .rodata.para0  0x4a08939e       0x38 nand_sunxi/sun50iw2p1/libnand-sun50iw2p1
                0x4a08939e                para0
 .rodata.para1  0x4a0893d6       0x38 nand_sunxi/sun50iw2p1/libnand-sun50iw2p1
                0x4a0893d6                para1
 .rodata        0x4a08940e      0x6f4 common/built-in.o
 .rodata        0x4a089b02       0x11 lib/built-in.o
 .rodata        0x4a089b13       0xc3 lib/openssl/built-in.o
 .rodata        0x4a089bd6        0x9 nand_sunxi/sun50iw2p1/libnand-sun50iw2p1
 .rodata.CSWTCH.14
                0x4a089bdf        0x4 drivers/built-in.o
 .rodata.CSWTCH.25
                0x4a089be3        0xe drivers/built-in.o
 .rodata.CSWTCH.38
                0x4a089bf1       0x16 common/built-in.o
 .rodata.CSWTCH.98
                0x4a089c07        0xe drivers/built-in.o
 .rodata.InquiryData
                0x4a089c15       0x28 usb_sunxi/built-in.o
                0x4a089c15                InquiryData
 .rodata.RequestSense
                0x4a089c3d       0x14 usb_sunxi/built-in.o
                0x4a089c3d                RequestSense
 .rodata.__FUNCTION__.4174
                0x4a089c51       0x11 drivers/mmc/built-in.o
 .rodata.__FUNCTION__.4185
                0x4a089c62       0x19 drivers/mmc/built-in.o
 .rodata.__FUNCTION__.4194
                0x4a089c7b       0x17 drivers/mmc/built-in.o
 .rodata.__FUNCTION__.4197
                0x4a089c92        0xd drivers/mmc/built-in.o
 .rodata.__FUNCTION__.4225
                0x4a089c9f       0x11 drivers/mmc/built-in.o
 .rodata.__FUNCTION__.4232
                0x4a089cb0       0x12 drivers/mmc/built-in.o
 .rodata.__FUNCTION__.4238
                0x4a089cc2       0x12 drivers/mmc/built-in.o
 .rodata.__FUNCTION__.4245
                0x4a089cd4       0x1b drivers/mmc/built-in.o
 .rodata.__FUNCTION__.4252
                0x4a089cef       0x1a drivers/mmc/built-in.o
 .rodata.__FUNCTION__.4259
                0x4a089d09       0x17 drivers/mmc/built-in.o
 .rodata.__FUNCTION__.4266
                0x4a089d20       0x15 drivers/mmc/built-in.o
 .rodata.__FUNCTION__.4272
                0x4a089d35       0x14 drivers/mmc/built-in.o
 .rodata.__FUNCTION__.4276
                0x4a089d49       0x10 drivers/mmc/built-in.o
 .rodata.__FUNCTION__.4278
                0x4a089d59       0x17 drivers/mmc/built-in.o
 .rodata.__FUNCTION__.4288
                0x4a089d70       0x1c drivers/mmc/built-in.o
 .rodata.__FUNCTION__.4294
                0x4a089d8c       0x1b drivers/mmc/built-in.o
 .rodata.__FUNCTION__.4305
                0x4a089da7       0x13 drivers/mmc/built-in.o
 .rodata.__FUNCTION__.4315
                0x4a089dba       0x2a drivers/mmc/built-in.o
 .rodata.__FUNCTION__.4326
                0x4a089de4        0xe drivers/mmc/built-in.o
 .rodata.__FUNCTION__.4327
                0x4a089df2       0x21 drivers/mmc/built-in.o
 .rodata.__FUNCTION__.4336
                0x4a089e13       0x11 drivers/mmc/built-in.o
 .rodata.__FUNCTION__.4345
                0x4a089e24        0xd drivers/mmc/built-in.o
 .rodata.__FUNCTION__.4348
                0x4a089e31       0x14 drivers/mmc/built-in.o
 .rodata.__FUNCTION__.4354
                0x4a089e45       0x10 drivers/mmc/built-in.o
 .rodata.__FUNCTION__.4365
                0x4a089e55       0x15 drivers/mmc/built-in.o
 .rodata.__FUNCTION__.4377
                0x4a089e6a       0x14 drivers/mmc/built-in.o
 .rodata.__FUNCTION__.4380
                0x4a089e7e       0x14 drivers/mmc/built-in.o
 .rodata.__FUNCTION__.4385
                0x4a089e92       0x16 drivers/mmc/built-in.o
 .rodata.__FUNCTION__.4407
                0x4a089ea8        0xb drivers/mmc/built-in.o
 .rodata.__FUNCTION__.4465
                0x4a089eb3        0xd drivers/mmc/built-in.o
 .rodata.__FUNCTION__.4486
                0x4a089ec0       0x18 drivers/mmc/built-in.o
 .rodata.__FUNCTION__.4517
                0x4a089ed8       0x17 drivers/mmc/built-in.o
 .rodata.__FUNCTION__.4524
                0x4a089eef       0x19 drivers/mmc/built-in.o
 .rodata.__FUNCTION__.4544
                0x4a089f08       0x16 drivers/mmc/built-in.o
 .rodata.__FUNCTION__.4568
                0x4a089f1e       0x12 drivers/mmc/built-in.o
 .rodata.__FUNCTION__.4622
                0x4a089f30        0xd drivers/mmc/built-in.o
 .rodata.__FUNCTION__.4631
                0x4a089f3d       0x19 drivers/mmc/built-in.o
 .rodata.__FUNCTION__.4637
                0x4a089f56       0x17 common/built-in.o
 .rodata.__FUNCTION__.4638
                0x4a089f6d       0x1a drivers/sunxi_flash/built-in.o
 .rodata.__FUNCTION__.4654
                0x4a089f87        0xf drivers/mmc/built-in.o
 .rodata.__FUNCTION__.5077
                0x4a089f96       0x10 drivers/mmc/built-in.o
 .rodata.__FUNCTION__.5087
                0x4a089fa6        0xa drivers/mmc/built-in.o
 .rodata.__FUNCTION__.5337
                0x4a089fb0       0x16 drivers/mmc/built-in.o
 .rodata.__FUNCTION__.5365
                0x4a089fc6        0xc drivers/mmc/built-in.o
 .rodata.__FUNCTION__.5393
                0x4a089fd2        0xf drivers/mmc/built-in.o
 .rodata.__FUNCTION__.5395
                0x4a089fe1        0xb drivers/mmc/built-in.o
 .rodata.__FUNCTION__.5495
                0x4a089fec        0x9 drivers/mmc/built-in.o
 .rodata.__func__.10937
                0x4a089ff5       0x18 common/built-in.o
 .rodata.__func__.3796
                0x4a08a00d       0x16 arch/arm/cpu/armv7/built-in.o
 .rodata.__func__.3925
                0x4a08a023       0x10 common/built-in.o
 .rodata.__func__.3931
                0x4a08a033       0x18 drivers/clk/built-in.o
 .rodata.__func__.3941
                0x4a08a04b        0xb common/built-in.o
 .rodata.__func__.3948
                0x4a08a056        0xb common/built-in.o
 .rodata.__func__.3950
                0x4a08a061       0x14 board/sunxi/common/built-in.o
 .rodata.__func__.3960
                0x4a08a075       0x17 board/sunxi/cartoon/built-in.o
 .rodata.__func__.4014
                0x4a08a08c        0x8 board/sunxi/common/built-in.o
 .rodata.__func__.4021
                0x4a08a094        0xa board/sunxi/common/built-in.o
 .rodata.__func__.4029
                0x4a08a09e        0xd board/sunxi/common/built-in.o
 .rodata.__func__.4123
                0x4a08a0ab        0xe common/built-in.o
 .rodata.__func__.4129
                0x4a08a0b9       0x1b drivers/clk/built-in.o
 .rodata.__func__.4158
                0x4a08a0d4        0xe common/built-in.o
 .rodata.__func__.4199
                0x4a08a0e2       0x12 common/built-in.o
 .rodata.__func__.4214
                0x4a08a0f4       0x12 common/built-in.o
 .rodata.__func__.4227
                0x4a08a106       0x18 common/built-in.o
 .rodata.__func__.4269
                0x4a08a11e       0x1a sprite/built-in.o
 .rodata.__func__.4277
                0x4a08a138       0x1a sprite/built-in.o
 .rodata.__func__.4308
                0x4a08a152       0x1a sprite/built-in.o
 .rodata.__func__.4318
                0x4a08a16c       0x1b sprite/built-in.o
 .rodata.__func__.4326
                0x4a08a187       0x25 sprite/built-in.o
 .rodata.__func__.4338
                0x4a08a1ac       0x1f sprite/built-in.o
 .rodata.__func__.4383
                0x4a08a1cb       0x19 sprite/built-in.o
 .rodata.__func__.4474
                0x4a08a1e4        0xd drivers/mmc/built-in.o
 .rodata.__func__.4487
                0x4a08a1f1        0xe common/built-in.o
 .rodata.__func__.4519
                0x4a08a1ff       0x18 common/built-in.o
 .rodata.__func__.4554
                0x4a08a217        0xd drivers/clk/built-in.o
 .rodata.__func__.4565
                0x4a08a224       0x11 drivers/clk/built-in.o
 .rodata.__func__.4577
                0x4a08a235       0x12 drivers/clk/built-in.o
 .rodata.__func__.4583
                0x4a08a247        0xb drivers/clk/built-in.o
 .rodata.__func__.4598
                0x4a08a252       0x18 drivers/pwm/built-in.o
 .rodata.__func__.4612
                0x4a08a26a        0xf drivers/clk/built-in.o
 .rodata.__func__.4625
                0x4a08a279        0xd drivers/clk/built-in.o
 .rodata.__func__.4642
                0x4a08a286        0xd drivers/clk/built-in.o
 .rodata.__func__.4646
                0x4a08a293       0x19 drivers/mmc/built-in.o
 .rodata.__func__.4653
                0x4a08a2ac       0x18 drivers/clk/built-in.o
 .rodata.__func__.4664
                0x4a08a2c4       0x1b drivers/clk/built-in.o
 .rodata.__func__.4666
                0x4a08a2df       0x15 board/sunxi/common/built-in.o
 .rodata.__func__.4679
                0x4a08a2f4        0xb drivers/clk/built-in.o
 .rodata.__func__.4694
                0x4a08a2ff       0x10 drivers/sunxi_flash/built-in.o
 .rodata.__func__.4743
                0x4a08a30f        0xc drivers/pwm/built-in.o
 .rodata.__func__.4867
                0x4a08a31b       0x11 nand_sunxi/built-in.o
 .rodata.__func__.4920
                0x4a08a32c       0x14 sprite/built-in.o
 .rodata.__func__.4947
                0x4a08a340       0x25 board/sunxi/common/built-in.o
 .rodata.__func__.4992
                0x4a08a365       0x10 board/sunxi/common/built-in.o
 .rodata.__func__.4997
                0x4a08a375       0x22 board/sunxi/common/built-in.o
 .rodata.__func__.5041
                0x4a08a397       0x17 drivers/sunxi_flash/built-in.o
 .rodata.__func__.5047
                0x4a08a3ae       0x10 board/sunxi/common/built-in.o
 .rodata.__func__.5052
                0x4a08a3be       0x19 drivers/sunxi_flash/built-in.o
 .rodata.__func__.5055
                0x4a08a3d7       0x1a board/sunxi/common/built-in.o
 .rodata.__func__.5059
                0x4a08a3f1       0x1b drivers/sunxi_flash/built-in.o
 .rodata.__func__.5069
                0x4a08a40c       0x19 drivers/sunxi_flash/built-in.o
 .rodata.__func__.5084
                0x4a08a425       0x14 board/sunxi/common/built-in.o
 .rodata.__func__.5131
                0x4a08a439       0x13 common/built-in.o
 .rodata.__func__.5192
                0x4a08a44c       0x12 board/sunxi/common/built-in.o
 .rodata.__func__.5226
                0x4a08a45e       0x12 board/sunxi/common/built-in.o
 .rodata.__func__.5304
                0x4a08a470       0x1e nand_sunxi/sun50iw2p1/libnand-sun50iw2p1
 .rodata.__func__.5365
                0x4a08a48e       0x1d nand_sunxi/sun50iw2p1/libnand-sun50iw2p1
 .rodata.__func__.5565
                0x4a08a4ab       0x1b board/sunxi/common/built-in.o
 .rodata.__func__.5713
                0x4a08a4c6       0x14 usb_sunxi/built-in.o
 .rodata.__func__.5829
                0x4a08a4da       0x11 usb_sunxi/built-in.o
 .rodata.__func__.5842
                0x4a08a4eb       0x19 usb_sunxi/built-in.o
 .rodata.__func__.8479
                0x4a08a504        0xf drivers/built-in.o
 .rodata.__func__.8499
                0x4a08a513       0x11 drivers/built-in.o
 .rodata.__func__.8788
                0x4a08a524       0x17 drivers/built-in.o
 .rodata.__func__.8866
                0x4a08a53b        0x9 drivers/built-in.o
 .rodata.__func__.8875
                0x4a08a544        0x8 drivers/built-in.o
 .rodata.__func__.8893
                0x4a08a54c        0xc drivers/built-in.o
 .rodata.__func__.8898
                0x4a08a558        0xc drivers/built-in.o
 .rodata.__func__.8910
                0x4a08a564       0x19 drivers/built-in.o
 .rodata.__func__.8927
                0x4a08a57d        0xa drivers/built-in.o
 .rodata.__func__.8931
                0x4a08a587        0xb drivers/built-in.o
 .rodata.__func__.8935
                0x4a08a592        0xb drivers/built-in.o
 .rodata.__func__.8939
                0x4a08a59d        0xa drivers/built-in.o
 .rodata.__func__.8947
                0x4a08a5a7       0x10 drivers/built-in.o
 .rodata.__func__.9022
                0x4a08a5b7       0x16 drivers/built-in.o
 .rodata.__func__.9078
                0x4a08a5cd        0xe drivers/built-in.o
 .rodata.__func__.9095
                0x4a08a5db        0xe drivers/built-in.o
 .rodata.__func__.9123
                0x4a08a5e9        0xb drivers/built-in.o
 .rodata._ctype
                0x4a08a5f4      0x100 lib/built-in.o
                0x4a08a5f4                _ctype
 .rodata.bits.5739
                0x4a08a6f4      0x100 lib/openssl/built-in.o
 .rodata.byte_rev_table
                0x4a08a7f4      0x100 drivers/built-in.o
                0x4a08a7f4                byte_rev_table
 .rodata.default_environment
                0x4a08a8f4      0x6ef common/built-in.o
                0x4a08a8f4                default_environment
 .rodata.delims.3804
                0x4a08afe3        0x3 common/built-in.o
 .rodata.env_flags_varaccess_rep
                0x4a08afe6        0x5 common/built-in.o
 .rodata.env_flags_vartype_rep
                0x4a08afeb        0x5 common/built-in.o
 .rodata.erase_seq
                0x4a08aff0        0x4 common/built-in.o
 .rodata.extra_tuning_data_rand
                0x4a08aff4       0x80 drivers/mmc/built-in.o
 .rodata.extra_tuning_data_wifi
                0x4a08b074       0x40 drivers/mmc/built-in.o
 .rodata.hs200_tuning_blk_4b
                0x4a08b0b4       0x40 drivers/mmc/built-in.o
 .rodata.hs200_tuning_blk_8b
                0x4a08b0f4       0x80 drivers/mmc/built-in.o
 .rodata.names.3704
                0x4a08b174        0x6 lib/built-in.o
 .rodata.rand_factor_1st_spare_data
                0x4a08b17a      0x200 nand_sunxi/sun50iw2p1/libnand-sun50iw2p1
                0x4a08b17a                rand_factor_1st_spare_data
 .rodata.str1.1
                0x4a08b37a       0x65 arch/arm/cpu/armv7/built-in.o
 .rodata.str1.1
                0x4a08b3df      0x9cb arch/arm/cpu/armv7/sun50iw2p1/built-in.o
                                0x9d5 (size before relaxing)
 .rodata.str1.1
                0x4a08bdaa      0x363 arch/arm/lib/built-in.o
                                0x372 (size before relaxing)
 .rodata.str1.1
                0x4a08c10d      0x591 board/sunxi/cartoon/built-in.o
                                0x5a1 (size before relaxing)
 .rodata.str1.1
                0x4a08c69e     0x1c8a board/sunxi/common/built-in.o
                               0x1e08 (size before relaxing)
 .rodata.str1.1
                0x4a08e328       0x33 board/sunxi/sun50iw2p1/built-in.o
                                 0x34 (size before relaxing)
 .rodata.str1.1
                0x4a08e35b     0x4dbe common/built-in.o
                               0x5439 (size before relaxing)
 .rodata.str1.1
                0x4a093119      0x43b disk/built-in.o
                                0x471 (size before relaxing)
 .rodata.str1.1
                0x4a093554     0x1c08 drivers/built-in.o
                               0x1f00 (size before relaxing)
 .rodata.str1.1
                0x4a09515c      0x78c drivers/clk/built-in.o
                                0x7d5 (size before relaxing)
 .rodata.str1.1
                0x4a0958e8       0x33 drivers/i2c/built-in.o
 .rodata.str1.1
                0x4a09591b     0x3dca drivers/mmc/built-in.o
                               0x4144 (size before relaxing)
 .rodata.str1.1
                0x4a0996e5      0x783 drivers/power/built-in.o
                                0x799 (size before relaxing)
 .rodata.str1.1
                0x4a099e68      0x47c drivers/pwm/built-in.o
                                0x594 (size before relaxing)
 .rodata.str1.1
                0x4a09a2e4       0x89 drivers/serial/built-in.o
                                 0x92 (size before relaxing)
 .rodata.str1.1
                0x4a09a36d      0x127 drivers/smc/built-in.o
                                0x138 (size before relaxing)
 .rodata.str1.1
                0x4a09a494      0x2f8 drivers/sunxi_flash/built-in.o
                                0x32e (size before relaxing)
 .rodata.str1.1
                0x4a09a78c      0x27f fs/built-in.o
                                0x2eb (size before relaxing)
 .rodata.str1.1
                0x4a09aa0b      0x8c9 lib/built-in.o
                                0x8f9 (size before relaxing)
 .rodata.str1.1
                0x4a09b2d4       0xfc lib/libfdt/built-in.o
                                0x11c (size before relaxing)
 .rodata.str1.1
                0x4a09b3d0      0xa67 lib/openssl/built-in.o
                                0xade (size before relaxing)
 .rodata.str1.1
                0x4a09be37      0x121 memtest/built-in.o
                                0x134 (size before relaxing)
 .rodata.str1.1
                0x4a09bf58      0xb46 nand_sunxi/built-in.o
                                0xb65 (size before relaxing)
 .rodata.str1.1
                0x4a09ca9e     0x2b67 sprite/built-in.o
                               0x3021 (size before relaxing)
 .rodata.str1.1
                0x4a09f605     0x203b usb_sunxi/built-in.o
                               0x24e1 (size before relaxing)
 .rodata.str1.1
                0x4a0a1640       0x1b arch/arm/lib/eabi_compat.o
 .rodata.str1.1
                0x4a0a165b     0x96e4 nand_sunxi/sun50iw2p1/libnand-sun50iw2p1
                               0xa83d (size before relaxing)
 .rodata.sunxi_sprite_environment
                0x4a0aad3f        0x2 common/built-in.o
                0x4a0aad3f                sunxi_sprite_environment
 .rodata.tab_seq
                0x4a0aad41        0x9 common/built-in.o
 .rodata.version_string
                0x4a0aad4a       0x4d common/built-in.o
                0x4a0aad4a                version_string

.hash           0x4a0aad98       0x2c
 .hash          0x4a0aad98       0x2c arch/arm/cpu/armv7/spare_head.o
                0x4a0aadc4                . = ALIGN (0x4)

.data           0x4a0aadc8     0xfe84
 *(.data*)
 .data          0x4a0aadc8        0x4 arch/arm/cpu/armv7/sun50iw2p1/built-in.o
 .data.pll1_table
                0x4a0aadcc     0x1a54 arch/arm/cpu/armv7/sun50iw2p1/built-in.o
 .data.timer_callback
                0x4a0ac820       0x10 arch/arm/cpu/armv7/sun50iw2p1/built-in.o
                0x4a0ac820                timer_callback
 .data.usbc_base_address
                0x4a0ac830        0xc arch/arm/cpu/armv7/sun50iw2p1/built-in.o
 .data.fdt_node.5109
                0x4a0ac83c        0x4 board/sunxi/common/built-in.o
 .data          0x4a0ac840        0x4 common/built-in.o
                0x4a0ac840                working_fdt
 .data.reserved_list
                0x4a0ac844       0x84 common/built-in.o
 .data.hist_cur
                0x4a0ac8c8        0x4 common/built-in.o
 .data.init_sequence_f
                0x4a0ac8cc       0xac common/built-in.o
 .data.init_sequence_r
                0x4a0ac978       0x7c common/built-in.o
                0x4a0ac978                init_sequence_r
 .data.bootm_help_text
                0x4a0ac9f4      0x38b common/built-in.o
 *fill*         0x4a0acd7f        0x1 00
 .data.cmd_bootm_sub
                0x4a0acd80       0xfc common/built-in.o
 .data.tests    0x4a0ace7c       0x80 common/built-in.o
                0x4a0ace7c                tests
 .data.first_call
                0x4a0acefc        0x8 common/built-in.o
 .data.env_name_spec
                0x4a0acf04        0x4 common/built-in.o
                0x4a0acf04                env_name_spec
 .data.tabs.4470
                0x4a0acf08       0x21 common/built-in.o
 .data.fdt_help_text
                0x4a0acf29      0x61b common/built-in.o
 .data.root.4387
                0x4a0ad544        0x2 common/built-in.o
 *fill*         0x4a0ad546        0x2 00
 .data.dp_last_length
                0x4a0ad548        0x4 common/built-in.o
 .data.curr_device
                0x4a0ad54c        0x4 common/built-in.o
 .data.cmd_mmc  0x4a0ad550       0xfc common/built-in.o
 .data.env_help_text
                0x4a0ad64c      0x1ee common/built-in.o
 *fill*         0x4a0ad83a        0x2 00
 .data.env_id   0x4a0ad83c        0x4 common/built-in.o
 .data.cmd_env_sub
                0x4a0ad840       0xe0 common/built-in.o
 .data.env_htab
                0x4a0ad920       0x10 common/built-in.o
                0x4a0ad920                env_htab
 .data.av_      0x4a0ad930      0x408 common/built-in.o
 .data.sbrk_base
                0x4a0add38        0x4 common/built-in.o
 .data.trim_threshold
                0x4a0add3c        0x4 common/built-in.o
 .data.load_addr
                0x4a0add40        0x4 common/built-in.o
                0x4a0add40                load_addr
 .data.stdio_names
                0x4a0add44        0xc common/built-in.o
                0x4a0add44                stdio_names
 .data.IGNORE_ENV_VARIABLE
                0x4a0add50       0x2c common/built-in.o
                0x4a0add50                IGNORE_ENV_VARIABLE
 .data.g_disp_fdt_node_map
                0x4a0add7c       0xa0 drivers/built-in.o
 .data.device_list
                0x4a0ade1c        0x8 drivers/built-in.o
 .data.panel_array
                0x4a0ade24       0x28 drivers/built-in.o
                0x4a0ade24                panel_array
 .data.default_panel
                0x4a0ade4c       0x34 drivers/built-in.o
                0x4a0ade4c                default_panel
 .data.lt070me05000_panel
                0x4a0ade80       0x34 drivers/built-in.o
                0x4a0ade80                lt070me05000_panel
 .data.wtq05027d01_panel
                0x4a0adeb4       0x34 drivers/built-in.o
                0x4a0adeb4                wtq05027d01_panel
 .data.t27p06_panel
                0x4a0adee8       0x34 drivers/built-in.o
                0x4a0adee8                t27p06_panel
 .data.dx0960be40a1_panel
                0x4a0adf1c       0x34 drivers/built-in.o
                0x4a0adf1c                dx0960be40a1_panel
 .data.tft720x1280_panel
                0x4a0adf50       0x34 drivers/built-in.o
                0x4a0adf50                tft720x1280_panel
 .data.S6D7AA0X01_panel
                0x4a0adf84       0x34 drivers/built-in.o
                0x4a0adf84                S6D7AA0X01_panel
 .data.inet_dsi_panel
                0x4a0adfb8       0x34 drivers/built-in.o
                0x4a0adfb8                inet_dsi_panel
 .data.tg078uw004a0_panel
                0x4a0adfec       0x34 drivers/built-in.o
                0x4a0adfec                tg078uw004a0_panel
 .data.g_device_fps
                0x4a0ae020        0x8 drivers/built-in.o
 .data.lan2coefftab32
                0x4a0ae028      0x800 drivers/built-in.o
                0x4a0ae028                lan2coefftab32
 .data.bicubic8coefftab32_right
                0x4a0ae828      0x800 drivers/built-in.o
                0x4a0ae828                bicubic8coefftab32_right
 .data.lan3coefftab32_left
                0x4a0af028      0x800 drivers/built-in.o
                0x4a0af028                lan3coefftab32_left
 .data.lan3coefftab32_right
                0x4a0af828      0x800 drivers/built-in.o
                0x4a0af828                lan3coefftab32_right
 .data.bicubic4coefftab32
                0x4a0b0028      0x800 drivers/built-in.o
                0x4a0b0028                bicubic4coefftab32
 .data.bicubic8coefftab32_left
                0x4a0b0828      0x800 drivers/built-in.o
                0x4a0b0828                bicubic8coefftab32_left
 .data.lan2coefftab16
                0x4a0b1028      0x400 drivers/built-in.o
                0x4a0b1028                lan2coefftab16
 .data.sin_cos  0x4a0b1428      0x200 drivers/built-in.o
                0x4a0b1428                sin_cos
 .data.r2y      0x4a0b1628      0x200 drivers/built-in.o
                0x4a0b1628                r2y
 .data.y2r      0x4a0b1828      0x300 drivers/built-in.o
                0x4a0b1828                y2r
 .data.y2y      0x4a0b1b28      0x100 drivers/built-in.o
                0x4a0b1b28                y2y
 .data.bypass_csc
                0x4a0b1c28       0x30 drivers/built-in.o
                0x4a0b1c28                bypass_csc
 .data.r2r      0x4a0b1c58       0x80 drivers/built-in.o
                0x4a0b1c58                r2r
 .data.video_timing
                0x4a0b1cd8      0x980 drivers/built-in.o
                0x4a0b1cd8                video_timing
 .data.hdmi_detect_time
                0x4a0b2658        0x4 drivers/built-in.o
 .data.exp0     0x4a0b265c       0x10 drivers/built-in.o
 .data.exp1     0x4a0b266c       0x10 drivers/built-in.o
 .data.cali     0x4a0b267c       0x10 drivers/built-in.o
 *fill*         0x4a0b268c        0x4 00
 .data.dts_cfg_64
                0x4a0b2690      0x318 drivers/built-in.o
                0x4a0b2690                dts_cfg_64
 .data.arisc_debug_level
                0x4a0b29a8        0x4 drivers/built-in.o
                0x4a0b29a8                arisc_debug_level
 .data.dts_cfg  0x4a0b29ac      0x290 drivers/built-in.o
                0x4a0b29ac                dts_cfg
 .data          0x4a0b2c3c        0x4 drivers/clk/built-in.o
 .data.clk_fixed_rate_ops
                0x4a0b2c40       0x2c drivers/clk/built-in.o
                0x4a0b2c40                clk_fixed_rate_ops
 .data.sunxi_clk_periph_ve
                0x4a0b2c6c       0x48 drivers/clk/built-in.o
 .data.sunxi_clk_periph_pll_periphahb0
                0x4a0b2cb4       0x48 drivers/clk/built-in.o
 .data.sunxi_clk_periph_tcon1
                0x4a0b2cfc       0x48 drivers/clk/built-in.o
 .data.sunxi_clk_periph_pio
                0x4a0b2d44       0x48 drivers/clk/built-in.o
 .data.sunxi_clk_periph_spdif
                0x4a0b2d8c       0x48 drivers/clk/built-in.o
 .data.ve_parents
                0x4a0b2dd4        0x4 drivers/clk/built-in.o
 .data.apb2mod_parents
                0x4a0b2dd8        0x4 drivers/clk/built-in.o
 .data.sunxi_clk_periph_hdmi
                0x4a0b2ddc       0x48 drivers/clk/built-in.o
 .data.hosc_parents
                0x4a0b2e24        0x4 drivers/clk/built-in.o
 .data.periphx2_parents
                0x4a0b2e28       0x10 drivers/clk/built-in.o
 .data.sunxi_clk_periph_hdmi_slow
                0x4a0b2e38       0x48 drivers/clk/built-in.o
 .data.sunxi_clk_periph_sdmmc1_rst
                0x4a0b2e80       0x48 drivers/clk/built-in.o
 .data.sunxi_clk_periph_tcon0
                0x4a0b2ec8       0x48 drivers/clk/built-in.o
 .data.i2s_parents
                0x4a0b2f10       0x10 drivers/clk/built-in.o
 .data.sunxi_clk_periph_sdmmc0_bus
                0x4a0b2f20       0x48 drivers/clk/built-in.o
 .data.sdram_parents
                0x4a0b2f68       0x10 drivers/clk/built-in.o
 .data.ahb2mod_parents
                0x4a0b2f78        0x4 drivers/clk/built-in.o
 .data.sunxi_clk_periph_scr0
                0x4a0b2f7c       0x48 drivers/clk/built-in.o
 .data.sunxi_clk_periph_scr1
                0x4a0b2fc4       0x48 drivers/clk/built-in.o
 .data.sunxi_clk_periph_hwspinlock_rst
                0x4a0b300c       0x48 drivers/clk/built-in.o
 .data.cpu_parents
                0x4a0b3054       0x10 drivers/clk/built-in.o
 .data.periphx_parents
                0x4a0b3064       0x20 drivers/clk/built-in.o
 .data.pll_periphahb0_parents
                0x4a0b3084        0x4 drivers/clk/built-in.o
 .data.sunxi_clk_periph_de
                0x4a0b3088       0x48 drivers/clk/built-in.o
 .data.sunxi_periphs_init
                0x4a0b30d0      0x5a0 drivers/clk/built-in.o
                0x4a0b30d0                sunxi_periphs_init
 .data.sunxi_clk_periph_csi_s
                0x4a0b3670       0x48 drivers/clk/built-in.o
 .data.sunxi_clk_periph_sdmmc0_mod
                0x4a0b36b8       0x48 drivers/clk/built-in.o
 .data.tcon0_parents
                0x4a0b3700       0x20 drivers/clk/built-in.o
 .data.sunxi_clk_periph_uart1
                0x4a0b3720       0x48 drivers/clk/built-in.o
 .data.sunxi_clk_periph_uart2
                0x4a0b3768       0x48 drivers/clk/built-in.o
 .data.sunxi_clk_periph_uart0
                0x4a0b37b0       0x48 drivers/clk/built-in.o
 .data.sunxi_clk_periph_nand
                0x4a0b37f8       0x48 drivers/clk/built-in.o
 .data.sunxi_clk_factor_pll_periph0
                0x4a0b3840       0x24 drivers/clk/built-in.o
 .data.sunxi_clk_periph_ths
                0x4a0b3864       0x48 drivers/clk/built-in.o
 .data.ths_parents
                0x4a0b38ac       0x10 drivers/clk/built-in.o
 .data.sunxi_clk_periph_spi0
                0x4a0b38bc       0x48 drivers/clk/built-in.o
 .data.sunxi_clk_periph_spi1
                0x4a0b3904       0x48 drivers/clk/built-in.o
 *fill*         0x4a0b394c        0x4 00
 .data.sunxi_factos
                0x4a0b3950      0x288 drivers/clk/built-in.o
                0x4a0b3950                sunxi_factos
 .data.sunxi_clk_periph_uart3
                0x4a0b3bd8       0x48 drivers/clk/built-in.o
 .data.periph_parents
                0x4a0b3c20       0x10 drivers/clk/built-in.o
 .data.sunxi_clk_periph_msgbox
                0x4a0b3c30       0x48 drivers/clk/built-in.o
 .data.sunxi_clk_periph_hwspinlock_bus
                0x4a0b3c78       0x48 drivers/clk/built-in.o
 .data.com_gates
                0x4a0b3cc0        0x8 drivers/clk/built-in.o
                0x4a0b3cc0                com_gates
 .data.sunxi_clk_factor_pll_audio
                0x4a0b3cc8       0x24 drivers/clk/built-in.o
 .data.sunxi_clk_factor_pll_gpu
                0x4a0b3cec       0x24 drivers/clk/built-in.o
 .data.adda_parents
                0x4a0b3d10        0x4 drivers/clk/built-in.o
 .data.sunxi_clk_periph_cpu
                0x4a0b3d14       0x48 drivers/clk/built-in.o
 .data.sunxi_clk_periph_dma
                0x4a0b3d5c       0x48 drivers/clk/built-in.o
 .data.sunxi_clk_periph_usbohci0
                0x4a0b3da4       0x48 drivers/clk/built-in.o
 .data.sunxi_clk_periph_usbohci1
                0x4a0b3dec       0x48 drivers/clk/built-in.o
 .data.sunxi_clk_periph_usbohci2
                0x4a0b3e34       0x48 drivers/clk/built-in.o
 .data.sunxi_clk_periph_usbohci3
                0x4a0b3e7c       0x48 drivers/clk/built-in.o
 .data.hdmi_parents
                0x4a0b3ec4       0x10 drivers/clk/built-in.o
 .data.sunxi_clk_periph_hstimer
                0x4a0b3ed4       0x48 drivers/clk/built-in.o
 .data.sunxi_clk_periph_cpuapb
                0x4a0b3f1c       0x48 drivers/clk/built-in.o
 .data.sunxi_clk_periph_sdmmc2_rst
                0x4a0b3f64       0x48 drivers/clk/built-in.o
 .data.sunxi_clk_periph_sdram
                0x4a0b3fac       0x48 drivers/clk/built-in.o
 .data.factor_pllve_tbl
                0x4a0b3ff4      0x508 drivers/clk/built-in.o
                0x4a0b3ff4                factor_pllve_tbl
 .data.apb1mod_parents
                0x4a0b44fc        0x4 drivers/clk/built-in.o
 .data.sunxi_clk_factor_pll_ddr
                0x4a0b4500       0x24 drivers/clk/built-in.o
 .data.sunxi_clk_periph_sdmmc1_bus
                0x4a0b4524       0x48 drivers/clk/built-in.o
 .data.factor_pllperiph1_tbl
                0x4a0b456c      0x1d0 drivers/clk/built-in.o
                0x4a0b456c                factor_pllperiph1_tbl
 .data.sunxi_clk_periph_i2s0
                0x4a0b473c       0x48 drivers/clk/built-in.o
 .data.sunxi_clk_periph_i2s1
                0x4a0b4784       0x48 drivers/clk/built-in.o
 .data.sunxi_clk_periph_i2s2
                0x4a0b47cc       0x48 drivers/clk/built-in.o
 .data.sunxi_clk_periph_ts
                0x4a0b4814       0x48 drivers/clk/built-in.o
 .data.sunxi_clk_periph_csi_misc
                0x4a0b485c       0x48 drivers/clk/built-in.o
 .data.sunxi_clk_factor_pll_video
                0x4a0b48a4       0x24 drivers/clk/built-in.o
 .data.sunxi_clk_periph_sdmmc1_mod
                0x4a0b48c8       0x48 drivers/clk/built-in.o
 .data.sunxi_clk_periph_usbehci0
                0x4a0b4910       0x48 drivers/clk/built-in.o
 .data.sunxi_clk_periph_gmac
                0x4a0b4958       0x48 drivers/clk/built-in.o
 .data.sunxi_clk_periph_usbehci2
                0x4a0b49a0       0x48 drivers/clk/built-in.o
 .data.factor_pllde_tbl
                0x4a0b49e8      0x548 drivers/clk/built-in.o
                0x4a0b49e8                factor_pllde_tbl
 .data.sunxi_clk_periph_deinterlace
                0x4a0b4f30       0x48 drivers/clk/built-in.o
 .data.apb1_parents
                0x4a0b4f78        0x4 drivers/clk/built-in.o
 .data.sunxi_clk_factor_pll_periph1
                0x4a0b4f7c       0x24 drivers/clk/built-in.o
 .data.sunxi_clk_periph_usbotg
                0x4a0b4fa0       0x48 drivers/clk/built-in.o
 .data.sunxi_clk_periph_usbphy1
                0x4a0b4fe8       0x48 drivers/clk/built-in.o
 .data.sunxi_clk_factor_pll_ve
                0x4a0b5030       0x24 drivers/clk/built-in.o
 .data.ahb1mod_parents
                0x4a0b5054        0x4 drivers/clk/built-in.o
 .data.apb2_parents
                0x4a0b5058       0x10 drivers/clk/built-in.o
 .data.sunxi_clk_periph_usbphy0
                0x4a0b5068       0x48 drivers/clk/built-in.o
 .data.axi_parents
                0x4a0b50b0        0x4 drivers/clk/built-in.o
 .data.sunxi_clk_periph_usbphy2
                0x4a0b50b4       0x48 drivers/clk/built-in.o
 .data.sunxi_clk_periph_usbphy3
                0x4a0b50fc       0x48 drivers/clk/built-in.o
 .data.sunxi_clk_periph_axi
                0x4a0b5144       0x48 drivers/clk/built-in.o
 .data.tve_parents
                0x4a0b518c       0x20 drivers/clk/built-in.o
 .data.sunxi_clk_periph_avs
                0x4a0b51ac       0x48 drivers/clk/built-in.o
 .data.factor_pllperiph0_tbl
                0x4a0b51f4      0x1e0 drivers/clk/built-in.o
                0x4a0b51f4                factor_pllperiph0_tbl
 .data.sunxi_clk_periph_sdmmc0_rst
                0x4a0b53d4       0x48 drivers/clk/built-in.o
 .data.sunxi_clk_periph_twi1
                0x4a0b541c       0x48 drivers/clk/built-in.o
 .data.sunxi_clk_periph_twi2
                0x4a0b5464       0x48 drivers/clk/built-in.o
 .data.sunxi_clk_periph_ahb1
                0x4a0b54ac       0x48 drivers/clk/built-in.o
 .data.ts_parents
                0x4a0b54f4       0x40 drivers/clk/built-in.o
 .data.sunxi_clk_periph_ahb2
                0x4a0b5534       0x48 drivers/clk/built-in.o
 .data.sunxi_clk_periph_apb1
                0x4a0b557c       0x48 drivers/clk/built-in.o
 .data.sunxi_clk_periph_apb2
                0x4a0b55c4       0x48 drivers/clk/built-in.o
 .data.cpuapb_parents
                0x4a0b560c        0x4 drivers/clk/built-in.o
 .data.factor_pllcpu_tbl
                0x4a0b5610      0x220 drivers/clk/built-in.o
                0x4a0b5610                factor_pllcpu_tbl
 .data.factor_pllvideo_tbl
                0x4a0b5830      0x440 drivers/clk/built-in.o
                0x4a0b5830                factor_pllvideo_tbl
 .data.sunxi_clk_periph_mbus
                0x4a0b5c70       0x48 drivers/clk/built-in.o
 .data.gpu_parents
                0x4a0b5cb8        0x4 drivers/clk/built-in.o
 .data.sunxi_clk_factor_pll_cpu
                0x4a0b5cbc       0x24 drivers/clk/built-in.o
 .data.sunxi_clk_factor_pll_de
                0x4a0b5ce0       0x24 drivers/clk/built-in.o
 .data.sunxi_clk_periph_sdmmc2_bus
                0x4a0b5d04       0x48 drivers/clk/built-in.o
 .data.sunxi_clk_periph_adda
                0x4a0b5d4c       0x48 drivers/clk/built-in.o
 .data.de_parents
                0x4a0b5d94       0x20 drivers/clk/built-in.o
 .data.mbus_parents
                0x4a0b5db4       0x10 drivers/clk/built-in.o
 .data.factor_pllddr_tbl
                0x4a0b5dc4      0x468 drivers/clk/built-in.o
                0x4a0b5dc4                factor_pllddr_tbl
 .data.sunxi_clk_periph_twi0
                0x4a0b622c       0x48 drivers/clk/built-in.o
 .data.ahb1_parents
                0x4a0b6274       0x10 drivers/clk/built-in.o
 .data.sunxi_clk_periph_gpu
                0x4a0b6284       0x48 drivers/clk/built-in.o
 .data.sunxi_clk_periph_usbehci1
                0x4a0b62cc       0x48 drivers/clk/built-in.o
 .data.sunxi_clk_periph_sdmmc2_mod
                0x4a0b6314       0x48 drivers/clk/built-in.o
 .data.sunxi_clk_periph_usbehci3
                0x4a0b635c       0x48 drivers/clk/built-in.o
 .data.ahb2_parents
                0x4a0b63a4       0x10 drivers/clk/built-in.o
 .data.audio_parents
                0x4a0b63b4        0x4 drivers/clk/built-in.o
 .data.sunxi_clk_periph_ce
                0x4a0b63b8       0x48 drivers/clk/built-in.o
 .data.sunxi_clk_periph_tve
                0x4a0b6400       0x48 drivers/clk/built-in.o
 .data.factor_pllgpu_tbl
                0x4a0b6448      0x528 drivers/clk/built-in.o
                0x4a0b6448                factor_pllgpu_tbl
 .data.sunxi_clk_periph_csi_m
                0x4a0b6970       0x48 drivers/clk/built-in.o
 .data.csi_m_parents
                0x4a0b69b8       0x20 drivers/clk/built-in.o
 .data.sunxi_i2c_write_pt
                0x4a0b69d8        0x4 drivers/i2c/built-in.o
                0x4a0b69d8                sunxi_i2c_write_pt
 .data.sunxi_i2c_read_pt
                0x4a0b69dc        0x4 drivers/i2c/built-in.o
                0x4a0b69dc                sunxi_i2c_read_pt
 .data          0x4a0b69e0       0x10 drivers/mmc/built-in.o
                0x4a0b69e0                tuning_blk_8b
                0x4a0b69e4                tuning_blk_4b
                0x4a0b69e8                tuning_blk_cnt_8b
                0x4a0b69ec                tuning_blk_cnt_4b
 .data.cur_dev_num
                0x4a0b69f0        0x4 drivers/mmc/built-in.o
 .data.mmc_devices
                0x4a0b69f4        0x8 drivers/mmc/built-in.o
                0x4a0b69f4                mmc_devices
 .data.freq_range_hs400
                0x4a0b69fc        0x8 drivers/mmc/built-in.o
                0x4a0b69fc                freq_range_hs400
 .data.pat_seed_pair
                0x4a0b6a04       0x10 drivers/mmc/built-in.o
                0x4a0b6a04                pat_seed_pair
 .data.freq_def
                0x4a0b6a14        0x4 drivers/mmc/built-in.o
                0x4a0b6a14                freq_def
 .data.freq_hssdr52_sdr25
                0x4a0b6a18       0x20 drivers/mmc/built-in.o
                0x4a0b6a18                freq_hssdr52_sdr25
 .data.freq_ds26_sdr12
                0x4a0b6a38       0x20 drivers/mmc/built-in.o
                0x4a0b6a38                freq_ds26_sdr12
 .data.spd_name
                0x4a0b6a58       0x14 drivers/mmc/built-in.o
                0x4a0b6a58                spd_name
 .data.freq_hs400
                0x4a0b6a6c       0x20 drivers/mmc/built-in.o
                0x4a0b6a6c                freq_hs400
 .data.freq_hs200_sdr104
                0x4a0b6a8c       0x20 drivers/mmc/built-in.o
                0x4a0b6a8c                freq_hs200_sdr104
 .data.freq_range_hssdr52_sdr25
                0x4a0b6aac        0x8 drivers/mmc/built-in.o
                0x4a0b6aac                freq_range_hssdr52_sdr25
 .data.freq_hsddr52_ddr50
                0x4a0b6ab4       0x20 drivers/mmc/built-in.o
                0x4a0b6ab4                freq_hsddr52_ddr50
 .data.freq_range_hs200_sdr104
                0x4a0b6ad4        0x8 drivers/mmc/built-in.o
                0x4a0b6ad4                freq_range_hs200_sdr104
 .data.freq_range_ds26_sdr12
                0x4a0b6adc        0x8 drivers/mmc/built-in.o
                0x4a0b6adc                freq_range_ds26_sdr12
 .data.freq_range_hsddr52_ddr50
                0x4a0b6ae4        0x8 drivers/mmc/built-in.o
                0x4a0b6ae4                freq_range_hsddr52_ddr50
 .data          0x4a0b6aec        0xc drivers/power/built-in.o
 .data.sunxi_axp_null
                0x4a0b6af8       0x64 drivers/power/built-in.o
                0x4a0b6af8                sunxi_axp_null
 .data.nodeoffset.5073
                0x4a0b6b5c        0x4 drivers/power/built-in.o
 .data.sunxi_axp_806
                0x4a0b6b60       0x64 drivers/power/built-in.o
                0x4a0b6b60                sunxi_axp_806
 .data.pwm_list
                0x4a0b6bc4        0x8 drivers/pwm/built-in.o
 .data.sunxi_pwm_ops
                0x4a0b6bcc       0x14 drivers/pwm/built-in.o
 .data.eserial1_device
                0x4a0b6be0       0x30 drivers/serial/built-in.o
                0x4a0b6be0                eserial1_device
 .data.eserial2_device
                0x4a0b6c10       0x30 drivers/serial/built-in.o
                0x4a0b6c10                eserial2_device
 .data.eserial3_device
                0x4a0b6c40       0x30 drivers/serial/built-in.o
                0x4a0b6c40                eserial3_device
 .data.eserial4_device
                0x4a0b6c70       0x30 drivers/serial/built-in.o
                0x4a0b6c70                eserial4_device
 .data.smc_writel_pt
                0x4a0b6ca0        0x4 drivers/smc/built-in.o
                0x4a0b6ca0                smc_writel_pt
 .data.smc_readl_pt
                0x4a0b6ca4        0x4 drivers/smc/built-in.o
                0x4a0b6ca4                smc_readl_pt
 .data.sunxi_sprite_erase_pt
                0x4a0b6ca8        0x4 drivers/sunxi_flash/built-in.o
                0x4a0b6ca8                sunxi_sprite_erase_pt
 .data.sunxi_flash_phywrite_pt
                0x4a0b6cac        0x4 drivers/sunxi_flash/built-in.o
                0x4a0b6cac                sunxi_flash_phywrite_pt
 .data.sunxi_sprite_force_erase_pt
                0x4a0b6cb0        0x4 drivers/sunxi_flash/built-in.o
                0x4a0b6cb0                sunxi_sprite_force_erase_pt
 .data.sunxi_flash_phyread_pt
                0x4a0b6cb4        0x4 drivers/sunxi_flash/built-in.o
                0x4a0b6cb4                sunxi_flash_phyread_pt
 .data.sunxi_flash_flush_pt
                0x4a0b6cb8        0x4 drivers/sunxi_flash/built-in.o
                0x4a0b6cb8                sunxi_flash_flush_pt
 .data.sunxi_flash_exit_pt
                0x4a0b6cbc        0x4 drivers/sunxi_flash/built-in.o
                0x4a0b6cbc                sunxi_flash_exit_pt
 .data.sunxi_flash_write_pt
                0x4a0b6cc0        0x4 drivers/sunxi_flash/built-in.o
                0x4a0b6cc0                sunxi_flash_write_pt
 .data.sunxi_sprite_init_pt
                0x4a0b6cc4        0x4 drivers/sunxi_flash/built-in.o
                0x4a0b6cc4                sunxi_sprite_init_pt
 .data.sunxi_sprite_read_pt
                0x4a0b6cc8        0x4 drivers/sunxi_flash/built-in.o
                0x4a0b6cc8                sunxi_sprite_read_pt
 .data.sunxi_sprite_phywrite_pt
                0x4a0b6ccc        0x4 drivers/sunxi_flash/built-in.o
                0x4a0b6ccc                sunxi_sprite_phywrite_pt
 .data.sunxi_flash_size_pt
                0x4a0b6cd0        0x4 drivers/sunxi_flash/built-in.o
                0x4a0b6cd0                sunxi_flash_size_pt
 .data.sunxi_sprite_phyread_pt
                0x4a0b6cd4        0x4 drivers/sunxi_flash/built-in.o
                0x4a0b6cd4                sunxi_sprite_phyread_pt
 .data.sunxi_flash_init_pt
                0x4a0b6cd8        0x4 drivers/sunxi_flash/built-in.o
                0x4a0b6cd8                sunxi_flash_init_pt
 .data.sunxi_flash_read_pt
                0x4a0b6cdc        0x4 drivers/sunxi_flash/built-in.o
                0x4a0b6cdc                sunxi_flash_read_pt
 .data.sunxi_sprite_flush_pt
                0x4a0b6ce0        0x4 drivers/sunxi_flash/built-in.o
                0x4a0b6ce0                sunxi_sprite_flush_pt
 .data.sunxi_sprite_size_pt
                0x4a0b6ce4        0x4 drivers/sunxi_flash/built-in.o
                0x4a0b6ce4                sunxi_sprite_size_pt
 .data.sunxi_sprite_write_pt
                0x4a0b6ce8        0x4 drivers/sunxi_flash/built-in.o
                0x4a0b6ce8                sunxi_sprite_write_pt
 .data.sunxi_sprite_exit_pt
                0x4a0b6cec        0x4 drivers/sunxi_flash/built-in.o
                0x4a0b6cec                sunxi_sprite_exit_pt
 .data.fstypes  0x4a0b6cf0       0x40 fs/built-in.o
 .data.lvalues  0x4a0b6d30       0xc8 lib/openssl/built-in.o
 .data.obj_objs
                0x4a0b6df8       0x5c lib/openssl/built-in.o
 .data.nid_objs
                0x4a0b6e54      0x228 lib/openssl/built-in.o
 .data.bignum_pf
                0x4a0b707c       0x1c lib/openssl/built-in.o
 .data.impl_default
                0x4a0b7098        0x8 lib/openssl/built-in.o
 .data.mem_progress
                0x4a0b70a0        0x5 memtest/built-in.o
                0x4a0b70a0                mem_progress
 .data.sunxi_usb_mass_iManufacturer
                0x4a0b70a5       0x20 usb_sunxi/built-in.o
                0x4a0b70a5                sunxi_usb_mass_iManufacturer
 .data.sunxi_usb_mass_iSerialNum0
                0x4a0b70c5       0x20 usb_sunxi/built-in.o
                0x4a0b70c5                sunxi_usb_mass_iSerialNum0
 .data.sunxi_usb_mass_iProduct
                0x4a0b70e5       0x20 usb_sunxi/built-in.o
                0x4a0b70e5                sunxi_usb_mass_iProduct
 .data.normal_LangID
                0x4a0b7105        0x8 usb_sunxi/built-in.o
                0x4a0b7105                normal_LangID
 *fill*         0x4a0b710d        0x3 00
 .data.sunxi_usb_mass_dev
                0x4a0b7110       0x10 usb_sunxi/built-in.o
                0x4a0b7110                sunxi_usb_mass_dev
 .data.setup_req_1
                0x4a0b7120       0x20 usb_sunxi/built-in.o
                0x4a0b7120                setup_req_1
 .data.sunxi_usb_efex_app_step
                0x4a0b7140        0x4 usb_sunxi/built-in.o
 .data.setup_req_2
                0x4a0b7144       0x20 usb_sunxi/built-in.o
                0x4a0b7144                setup_req_2
 .data.setup_req_3
                0x4a0b7164       0x20 usb_sunxi/built-in.o
                0x4a0b7164                setup_req_3
 .data.sunxi_usb_fastboot_dev
                0x4a0b7184       0x18 usb_sunxi/built-in.o
                0x4a0b7184                sunxi_usb_fastboot_dev
 .data.sunxi_fastboot_normal_LangID
                0x4a0b719c        0x8 usb_sunxi/built-in.o
                0x4a0b719c                sunxi_fastboot_normal_LangID
 .data.setup_req_4
                0x4a0b71a4       0x20 usb_sunxi/built-in.o
                0x4a0b71a4                setup_req_4
 .data.buf_queue_max_len
                0x4a0b71c4        0x4 usb_sunxi/built-in.o
                0x4a0b71c4                buf_queue_max_len
 .data.buf_queue_page_size
                0x4a0b71c8        0x4 usb_sunxi/built-in.o
                0x4a0b71c8                buf_queue_page_size
 .data.nand_permanent_data
                0x4a0b71cc      0x100 nand_sunxi/sun50iw2p1/libnand-sun50iw2p1
                0x4a0b71cc                nand_permanent_data
 .data.nand_physic_function
                0x4a0b72cc      0x330 nand_sunxi/sun50iw2p1/libnand-sun50iw2p1
                0x4a0b72cc                nand_physic_function
 .data.nand_tbl
                0x4a0b75fc     0x32e8 nand_sunxi/sun50iw2p1/libnand-sun50iw2p1
                0x4a0b75fc                nand_tbl
 .data.physic_arch_para
                0x4a0ba8e4       0xc0 nand_sunxi/sun50iw2p1/libnand-sun50iw2p1
                0x4a0ba8e4                physic_arch_para
 .data.def_ddr_info
                0x4a0ba9a4       0x40 nand_sunxi/sun50iw2p1/libnand-sun50iw2p1
                0x4a0ba9a4                def_ddr_info
 .data.m4_p1_1  0x4a0ba9e4        0xa nand_sunxi/sun50iw2p1/libnand-sun50iw2p1
                0x4a0ba9e4                m4_p1_1
 .data.m4_p1_2  0x4a0ba9ee        0xc nand_sunxi/sun50iw2p1/libnand-sun50iw2p1
                0x4a0ba9ee                m4_p1_2
 .data.m4_p1_3  0x4a0ba9fa        0x7 nand_sunxi/sun50iw2p1/libnand-sun50iw2p1
                0x4a0ba9fa                m4_p1_3
 .data.m5_p1    0x4a0baa01       0x3c nand_sunxi/sun50iw2p1/libnand-sun50iw2p1
                0x4a0baa01                m5_p1
 .data.m5_read_retry_addr
                0x4a0baa3d        0x4 nand_sunxi/sun50iw2p1/libnand-sun50iw2p1
                0x4a0baa3d                m5_read_retry_addr
 .data.m5_read_retry_cmd
                0x4a0baa41        0x4 nand_sunxi/sun50iw2p1/libnand-sun50iw2p1
                0x4a0baa41                m5_read_retry_cmd
 .data.m6_read_retry_exit_cmd
                0x4a0baa45        0x1 nand_sunxi/sun50iw2p1/libnand-sun50iw2p1
                0x4a0baa45                m6_read_retry_exit_cmd
 .data.m6_read_retry_addr_1
                0x4a0baa46        0x4 nand_sunxi/sun50iw2p1/libnand-sun50iw2p1
                0x4a0baa46                m6_read_retry_addr_1
 .data.m6_read_retry_last_cmd
                0x4a0baa4a        0x1 nand_sunxi/sun50iw2p1/libnand-sun50iw2p1
                0x4a0baa4a                m6_read_retry_last_cmd
 .data.m6_p1_2  0x4a0baa4b       0x28 nand_sunxi/sun50iw2p1/libnand-sun50iw2p1
                0x4a0baa4b                m6_p1_2
 .data.m6_p1_1  0x4a0baa73       0x1c nand_sunxi/sun50iw2p1/libnand-sun50iw2p1
                0x4a0baa73                m6_p1_1
 .data.m6_read_retry_start_cmd
                0x4a0baa8f        0x2 nand_sunxi/sun50iw2p1/libnand-sun50iw2p1
                0x4a0baa8f                m6_read_retry_start_cmd
 .data.m6_p1_3  0x4a0baa91       0x37 nand_sunxi/sun50iw2p1/libnand-sun50iw2p1
                0x4a0baa91                m6_p1_3
 .data.m6_read_retry_cmd_1
                0x4a0baac8        0x4 nand_sunxi/sun50iw2p1/libnand-sun50iw2p1
                0x4a0baac8                m6_read_retry_cmd_1
 .data.m6_read_retry_cmd_2
                0x4a0baacc        0x5 nand_sunxi/sun50iw2p1/libnand-sun50iw2p1
                0x4a0baacc                m6_read_retry_cmd_2
 .data.m6_read_retry_end_cmd
                0x4a0baad1        0x2 nand_sunxi/sun50iw2p1/libnand-sun50iw2p1
                0x4a0baad1                m6_read_retry_end_cmd
 .data.m6_read_retry_addr_2
                0x4a0baad3        0x5 nand_sunxi/sun50iw2p1/libnand-sun50iw2p1
                0x4a0baad3                m6_read_retry_addr_2
 .data.m7_read_retry_reg_adr_1y
                0x4a0baad8        0x1 nand_sunxi/sun50iw2p1/libnand-sun50iw2p1
                0x4a0baad8                m7_read_retry_reg_adr_1y
 .data.m7_acti_start_addr
                0x4a0baad9        0x9 nand_sunxi/sun50iw2p1/libnand-sun50iw2p1
                0x4a0baad9                m7_acti_start_addr
 .data.m7_19_high
                0x4a0baae2       0x3c nand_sunxi/sun50iw2p1/libnand-sun50iw2p1
                0x4a0baae2                m7_19_high
 .data.m7_read_retry_disable_cmd_19
                0x4a0bab1e        0x1 nand_sunxi/sun50iw2p1/libnand-sun50iw2p1
                0x4a0bab1e                m7_read_retry_disable_cmd_19
 .data.m7_read_retry_reg_adr_19
                0x4a0bab1f        0x9 nand_sunxi/sun50iw2p1/libnand-sun50iw2p1
                0x4a0bab1f                m7_read_retry_reg_adr_19
 .data.m7_read_retry_cmd_19
                0x4a0bab28        0x3 nand_sunxi/sun50iw2p1/libnand-sun50iw2p1
                0x4a0bab28                m7_read_retry_cmd_19
 .data.m7_read_retry_reg_adr_24
                0x4a0bab2b        0x9 nand_sunxi/sun50iw2p1/libnand-sun50iw2p1
                0x4a0bab2b                m7_read_retry_reg_adr_24
 .data.m7_read_retry_cmd_1y
                0x4a0bab34        0x1 nand_sunxi/sun50iw2p1/libnand-sun50iw2p1
                0x4a0bab34                m7_read_retry_cmd_1y
 .data.m7_19_low
                0x4a0bab35       0x30 nand_sunxi/sun50iw2p1/libnand-sun50iw2p1
                0x4a0bab35                m7_19_low
 .data.m7_acti_start_cmd
                0x4a0bab65        0x2 nand_sunxi/sun50iw2p1/libnand-sun50iw2p1
                0x4a0bab65                m7_acti_start_cmd
 .data.m7_24    0x4a0bab67       0x1b nand_sunxi/sun50iw2p1/libnand-sun50iw2p1
                0x4a0bab67                m7_24
 .data.m7_1y    0x4a0bab82       0x4c nand_sunxi/sun50iw2p1/libnand-sun50iw2p1
                0x4a0bab82                m7_1y
 .data.m9_read_retry_cmd_1y
                0x4a0babce        0x1 nand_sunxi/sun50iw2p1/libnand-sun50iw2p1
                0x4a0babce                m9_read_retry_cmd_1y
 .data.m9_1y    0x4a0babcf       0x7c nand_sunxi/sun50iw2p1/libnand-sun50iw2p1
                0x4a0babcf                m9_1y
 .data.m9_read_retry_reg_adr_1y
                0x4a0bac4b        0x1 nand_sunxi/sun50iw2p1/libnand-sun50iw2p1
                0x4a0bac4b                m9_read_retry_reg_adr_1y

.got            0x4a0bac4c        0x0
 .got           0x00000000        0x0 arch/arm/cpu/armv7/spare_head.o

.got.plt        0x4a0bac4c        0xc
 .got.plt       0x4a0bac4c        0xc arch/arm/cpu/armv7/spare_head.o
                0x4a0bac4c                _GLOBAL_OFFSET_TABLE_

.igot.plt       0x4a0bac58        0x0
 .igot.plt      0x00000000        0x0 arch/arm/cpu/armv7/spare_head.o
                0x4a0bac58                . = ALIGN (0x4)
                0x4a0bac58                . = .
                0x4a0bac58                . = ALIGN (0x4)

.u_boot_list    0x4a0bac58      0x7b4
 *(SORT(.u_boot_list*))
 .u_boot_list_2_cmd_1
                0x4a0bac58        0x0 common/built-in.o
 .u_boot_list_2_cmd_2_aw_fatload
                0x4a0bac58       0x1c common/built-in.o
                0x4a0bac58                _u_boot_list_2_cmd_2_aw_fatload
 .u_boot_list_2_cmd_2_base
                0x4a0bac74       0x1c common/built-in.o
                0x4a0bac74                _u_boot_list_2_cmd_2_base
 .u_boot_list_2_cmd_2_boot
                0x4a0bac90       0x1c common/built-in.o
                0x4a0bac90                _u_boot_list_2_cmd_2_boot
 .u_boot_list_2_cmd_2_bootd
                0x4a0bacac       0x1c common/built-in.o
                0x4a0bacac                _u_boot_list_2_cmd_2_bootd
 .u_boot_list_2_cmd_2_bootelf
                0x4a0bacc8       0x1c common/built-in.o
                0x4a0bacc8                _u_boot_list_2_cmd_2_bootelf
 .u_boot_list_2_cmd_2_bootm
                0x4a0bace4       0x1c common/built-in.o
                0x4a0bace4                _u_boot_list_2_cmd_2_bootm
 .u_boot_list_2_cmd_2_bootvx
                0x4a0bad00       0x1c common/built-in.o
                0x4a0bad00                _u_boot_list_2_cmd_2_bootvx
 .u_boot_list_2_cmd_2_check_userdata
                0x4a0bad1c       0x1c common/built-in.o
                0x4a0bad1c                _u_boot_list_2_cmd_2_check_userdata
 .u_boot_list_2_cmd_2_cmp
                0x4a0bad38       0x1c common/built-in.o
                0x4a0bad38                _u_boot_list_2_cmd_2_cmp
 .u_boot_list_2_cmd_2_cp
                0x4a0bad54       0x1c common/built-in.o
                0x4a0bad54                _u_boot_list_2_cmd_2_cp
 .u_boot_list_2_cmd_2_crc32
                0x4a0bad70       0x1c common/built-in.o
                0x4a0bad70                _u_boot_list_2_cmd_2_crc32
 .u_boot_list_2_cmd_2_delay_test
                0x4a0bad8c       0x1c common/built-in.o
                0x4a0bad8c                _u_boot_list_2_cmd_2_delay_test
 .u_boot_list_2_cmd_2_echo
                0x4a0bada8       0x1c common/built-in.o
                0x4a0bada8                _u_boot_list_2_cmd_2_echo
 .u_boot_list_2_cmd_2_efex
                0x4a0badc4       0x1c common/built-in.o
                0x4a0badc4                _u_boot_list_2_cmd_2_efex
 .u_boot_list_2_cmd_2_efex_test
                0x4a0bade0       0x1c common/built-in.o
                0x4a0bade0                _u_boot_list_2_cmd_2_efex_test
 .u_boot_list_2_cmd_2_efuse_read
                0x4a0badfc       0x1c board/sunxi/common/built-in.o
                0x4a0badfc                _u_boot_list_2_cmd_2_efuse_read
 .u_boot_list_2_cmd_2_env
                0x4a0bae18       0x1c common/built-in.o
                0x4a0bae18                _u_boot_list_2_cmd_2_env
 .u_boot_list_2_cmd_2_erase_userdata
                0x4a0bae34       0x1c common/built-in.o
                0x4a0bae34                _u_boot_list_2_cmd_2_erase_userdata
 .u_boot_list_2_cmd_2_exit
                0x4a0bae50       0x1c common/built-in.o
                0x4a0bae50                _u_boot_list_2_cmd_2_exit
 .u_boot_list_2_cmd_2_false
                0x4a0bae6c       0x1c common/built-in.o
                0x4a0bae6c                _u_boot_list_2_cmd_2_false
 .u_boot_list_2_cmd_2_fastboot
                0x4a0bae88       0x1c common/built-in.o
                0x4a0bae88                _u_boot_list_2_cmd_2_fastboot
 .u_boot_list_2_cmd_2_fastboot_test
                0x4a0baea4       0x1c common/built-in.o
                0x4a0baea4                _u_boot_list_2_cmd_2_fastboot_test
 .u_boot_list_2_cmd_2_fatinfo
                0x4a0baec0       0x1c common/built-in.o
                0x4a0baec0                _u_boot_list_2_cmd_2_fatinfo
 .u_boot_list_2_cmd_2_fatload
                0x4a0baedc       0x1c common/built-in.o
                0x4a0baedc                _u_boot_list_2_cmd_2_fatload
 .u_boot_list_2_cmd_2_fatls
                0x4a0baef8       0x1c common/built-in.o
                0x4a0baef8                _u_boot_list_2_cmd_2_fatls
 .u_boot_list_2_cmd_2_fdt
                0x4a0baf14       0x1c common/built-in.o
                0x4a0baf14                _u_boot_list_2_cmd_2_fdt
 .u_boot_list_2_cmd_2_fdt_test
                0x4a0baf30       0x1c common/built-in.o
                0x4a0baf30                _u_boot_list_2_cmd_2_fdt_test
 .u_boot_list_2_cmd_2_go
                0x4a0baf4c       0x1c common/built-in.o
                0x4a0baf4c                _u_boot_list_2_cmd_2_go
 .u_boot_list_2_cmd_2_help
                0x4a0baf68       0x1c common/built-in.o
                0x4a0baf68                _u_boot_list_2_cmd_2_help
 .u_boot_list_2_cmd_2_interrupts
                0x4a0baf84       0x1c common/built-in.o
                0x4a0baf84                _u_boot_list_2_cmd_2_interrupts
 .u_boot_list_2_cmd_2_irqinfo
                0x4a0bafa0       0x1c common/built-in.o
                0x4a0bafa0                _u_boot_list_2_cmd_2_irqinfo
 .u_boot_list_2_cmd_2_key_test
                0x4a0bafbc       0x1c arch/arm/cpu/armv7/sun50iw2p1/built-in.o
                0x4a0bafbc                _u_boot_list_2_cmd_2_key_test
 .u_boot_list_2_cmd_2_logo
                0x4a0bafd8       0x1c common/built-in.o
                0x4a0bafd8                _u_boot_list_2_cmd_2_logo
 .u_boot_list_2_cmd_2_loop
                0x4a0baff4       0x1c common/built-in.o
                0x4a0baff4                _u_boot_list_2_cmd_2_loop
 .u_boot_list_2_cmd_2_mass_test
                0x4a0bb010       0x1c common/built-in.o
                0x4a0bb010                _u_boot_list_2_cmd_2_mass_test
 .u_boot_list_2_cmd_2_md
                0x4a0bb02c       0x1c common/built-in.o
                0x4a0bb02c                _u_boot_list_2_cmd_2_md
 .u_boot_list_2_cmd_2_memcpy_test
                0x4a0bb048       0x1c common/built-in.o
                0x4a0bb048                _u_boot_list_2_cmd_2_memcpy_test
 .u_boot_list_2_cmd_2_memtester
                0x4a0bb064       0x1c common/built-in.o
                0x4a0bb064                _u_boot_list_2_cmd_2_memtester
 .u_boot_list_2_cmd_2_mm
                0x4a0bb080       0x1c common/built-in.o
                0x4a0bb080                _u_boot_list_2_cmd_2_mm
 .u_boot_list_2_cmd_2_mmc
                0x4a0bb09c       0x1c common/built-in.o
                0x4a0bb09c                _u_boot_list_2_cmd_2_mmc
 .u_boot_list_2_cmd_2_mmcinfo
                0x4a0bb0b8       0x1c common/built-in.o
                0x4a0bb0b8                _u_boot_list_2_cmd_2_mmcinfo
 .u_boot_list_2_cmd_2_mw
                0x4a0bb0d4       0x1c common/built-in.o
                0x4a0bb0d4                _u_boot_list_2_cmd_2_mw
 .u_boot_list_2_cmd_2_nm
                0x4a0bb0f0       0x1c common/built-in.o
                0x4a0bb0f0                _u_boot_list_2_cmd_2_nm
 .u_boot_list_2_cmd_2_pbread
                0x4a0bb10c       0x1c common/built-in.o
                0x4a0bb10c                _u_boot_list_2_cmd_2_pbread
 .u_boot_list_2_cmd_2_printenv
                0x4a0bb128       0x1c common/built-in.o
                0x4a0bb128                _u_boot_list_2_cmd_2_printenv
 .u_boot_list_2_cmd_2_pst
                0x4a0bb144       0x1c common/built-in.o
                0x4a0bb144                _u_boot_list_2_cmd_2_pst
 .u_boot_list_2_cmd_2_question_mark
                0x4a0bb160       0x1c common/built-in.o
                0x4a0bb160                _u_boot_list_2_cmd_2_question_mark
 .u_boot_list_2_cmd_2_reset
                0x4a0bb17c       0x1c common/built-in.o
                0x4a0bb17c                _u_boot_list_2_cmd_2_reset
 .u_boot_list_2_cmd_2_rotpk_test
                0x4a0bb198       0x1c common/built-in.o
                0x4a0bb198                _u_boot_list_2_cmd_2_rotpk_test
 .u_boot_list_2_cmd_2_run
                0x4a0bb1b4       0x1c common/built-in.o
                0x4a0bb1b4                _u_boot_list_2_cmd_2_run
 .u_boot_list_2_cmd_2_save_userdata
                0x4a0bb1d0       0x1c common/built-in.o
                0x4a0bb1d0                _u_boot_list_2_cmd_2_save_userdata
 .u_boot_list_2_cmd_2_saveenv
                0x4a0bb1ec       0x1c common/built-in.o
                0x4a0bb1ec                _u_boot_list_2_cmd_2_saveenv
 .u_boot_list_2_cmd_2_screen_char
                0x4a0bb208       0x1c board/sunxi/cartoon/built-in.o
                0x4a0bb208                _u_boot_list_2_cmd_2_screen_char
 .u_boot_list_2_cmd_2_setenv
                0x4a0bb224       0x1c common/built-in.o
                0x4a0bb224                _u_boot_list_2_cmd_2_setenv
 .u_boot_list_2_cmd_2_showvar
                0x4a0bb240       0x1c common/built-in.o
                0x4a0bb240                _u_boot_list_2_cmd_2_showvar
 .u_boot_list_2_cmd_2_shutdown
                0x4a0bb25c       0x1c common/built-in.o
                0x4a0bb25c                _u_boot_list_2_cmd_2_shutdown
 .u_boot_list_2_cmd_2_sprite_test
                0x4a0bb278       0x1c common/built-in.o
                0x4a0bb278                _u_boot_list_2_cmd_2_sprite_test
 .u_boot_list_2_cmd_2_sunxi_aes
                0x4a0bb294       0x1c common/built-in.o
                0x4a0bb294                _u_boot_list_2_cmd_2_sunxi_aes
 .u_boot_list_2_cmd_2_sunxi_bmp_info
                0x4a0bb2b0       0x1c common/built-in.o
                0x4a0bb2b0                _u_boot_list_2_cmd_2_sunxi_bmp_info
 .u_boot_list_2_cmd_2_sunxi_bmp_show
                0x4a0bb2cc       0x1c common/built-in.o
                0x4a0bb2cc                _u_boot_list_2_cmd_2_sunxi_bmp_show
 .u_boot_list_2_cmd_2_sunxi_card0_probe
                0x4a0bb2e8       0x1c common/built-in.o
                0x4a0bb2e8                _u_boot_list_2_cmd_2_sunxi_card0_probe
 .u_boot_list_2_cmd_2_sunxi_smc
                0x4a0bb304       0x1c common/built-in.o
                0x4a0bb304                _u_boot_list_2_cmd_2_sunxi_smc
 .u_boot_list_2_cmd_2_sunxi_so
                0x4a0bb320       0x1c sprite/built-in.o
                0x4a0bb320                _u_boot_list_2_cmd_2_sunxi_so
 .u_boot_list_2_cmd_2_test
                0x4a0bb33c       0x1c common/built-in.o
                0x4a0bb33c                _u_boot_list_2_cmd_2_test
 .u_boot_list_2_cmd_2_timer_test
                0x4a0bb358       0x1c common/built-in.o
                0x4a0bb358                _u_boot_list_2_cmd_2_timer_test
 .u_boot_list_2_cmd_2_timer_test1
                0x4a0bb374       0x1c common/built-in.o
                0x4a0bb374                _u_boot_list_2_cmd_2_timer_test1
 .u_boot_list_2_cmd_2_true
                0x4a0bb390       0x1c common/built-in.o
                0x4a0bb390                _u_boot_list_2_cmd_2_true
 .u_boot_list_2_cmd_2_uburn
                0x4a0bb3ac       0x1c common/built-in.o
                0x4a0bb3ac                _u_boot_list_2_cmd_2_uburn
 .u_boot_list_2_cmd_2_version
                0x4a0bb3c8       0x1c common/built-in.o
                0x4a0bb3c8                _u_boot_list_2_cmd_2_version
 .u_boot_list_2_cmd_3
                0x4a0bb3e4        0x0 common/built-in.o
 .u_boot_list_2_env_clbk_1
                0x4a0bb3e4        0x0 common/built-in.o
 .u_boot_list_2_env_clbk_2_baudrate
                0x4a0bb3e4        0x8 drivers/serial/built-in.o
                0x4a0bb3e4                _u_boot_list_2_env_clbk_2_baudrate
 .u_boot_list_2_env_clbk_2_callbacks
                0x4a0bb3ec        0x8 common/built-in.o
                0x4a0bb3ec                _u_boot_list_2_env_clbk_2_callbacks
 .u_boot_list_2_env_clbk_2_console
                0x4a0bb3f4        0x8 common/built-in.o
                0x4a0bb3f4                _u_boot_list_2_env_clbk_2_console
 .u_boot_list_2_env_clbk_2_flags
                0x4a0bb3fc        0x8 common/built-in.o
                0x4a0bb3fc                _u_boot_list_2_env_clbk_2_flags
 .u_boot_list_2_env_clbk_2_loadaddr
                0x4a0bb404        0x8 common/built-in.o
                0x4a0bb404                _u_boot_list_2_env_clbk_2_loadaddr
 .u_boot_list_2_env_clbk_3
                0x4a0bb40c        0x0 common/built-in.o
                0x4a0bb40c                . = ALIGN (0x4)

.image_copy_end
                0x4a0bb40c        0x0
 *(.__image_copy_end)
 .__image_copy_end
                0x4a0bb40c        0x0 arch/arm/lib/built-in.o

.rel_dyn_start  0x4a0bb40c        0x0
 *(.__rel_dyn_start)
 .__rel_dyn_start
                0x4a0bb40c        0x0 arch/arm/lib/built-in.o

.rel.dyn        0x4a0bb40c    0x12e30
 *(.rel*)
 .rel.got       0x00000000        0x0 arch/arm/cpu/armv7/spare_head.o
 .rel.plt       0x00000000        0x0 arch/arm/cpu/armv7/spare_head.o
 .rel.iplt      0x00000000        0x0 arch/arm/cpu/armv7/spare_head.o
 .rel.text      0x4a0bb40c       0x40 arch/arm/cpu/armv7/spare_head.o
 .rel.text.v7_dcache_maint_range
                0x4a0bb44c       0x18 arch/arm/cpu/armv7/spare_head.o
 .rel.text.sunxi_clock_set_corepll
                0x4a0bb464        0x8 arch/arm/cpu/armv7/spare_head.o
 .rel.text.timerX_callback_default
                0x4a0bb46c        0x8 arch/arm/cpu/armv7/spare_head.o
 .rel.text.timer1_func
                0x4a0bb474       0x10 arch/arm/cpu/armv7/spare_head.o
 .rel.text.timer0_func
                0x4a0bb484       0x10 arch/arm/cpu/armv7/spare_head.o
 .rel.text.add_timer
                0x4a0bb494       0x28 arch/arm/cpu/armv7/spare_head.o
 .rel.text.del_timer
                0x4a0bb4bc       0x18 arch/arm/cpu/armv7/spare_head.o
 .rel.text.stick_printf
                0x00000000        0x0 arch/arm/cpu/armv7/spare_head.o
 .rel.text.tick0_printf
                0x00000000        0x0 arch/arm/cpu/armv7/spare_head.o
 .rel.text.display_inner
                0x00000000        0x0 arch/arm/cpu/armv7/spare_head.o
 .rel.text.script_init
                0x4a0bb4d4        0x8 arch/arm/cpu/armv7/spare_head.o
 .rel.text.power_source_init
                0x4a0bb4dc       0x30 arch/arm/cpu/armv7/spare_head.o
 .rel.text.sunxi_probe_securemode
                0x4a0bb50c       0x38 arch/arm/cpu/armv7/spare_head.o
 .rel.text.sunxi_probe_secure_monitor
                0x4a0bb544        0x8 arch/arm/cpu/armv7/spare_head.o
 .rel.text.sunxi_board_restart
                0x4a0bb54c        0x8 arch/arm/cpu/armv7/spare_head.o
 .rel.text.sunxi_board_shutdown
                0x4a0bb554       0x10 arch/arm/cpu/armv7/spare_head.o
 .rel.text.sunxi_board_run_fel
                0x4a0bb564       0x18 arch/arm/cpu/armv7/spare_head.o
 .rel.text.sunxi_board_run_fel_eraly
                0x4a0bb57c       0x10 arch/arm/cpu/armv7/spare_head.o
 .rel.text.sunxi_key_init
                0x4a0bb58c       0x20 arch/arm/cpu/armv7/spare_head.o
 .rel.text.sunxi_key_read
                0x4a0bb5ac       0x10 arch/arm/cpu/armv7/spare_head.o
 .rel.text.do_key_test
                0x4a0bb5bc       0x30 arch/arm/cpu/armv7/spare_head.o
 .rel.text.gic_distributor_init
                0x4a0bb5ec        0x8 arch/arm/cpu/armv7/spare_head.o
 .rel.text.default_isr
                0x4a0bb5f4        0x8 arch/arm/cpu/armv7/spare_head.o
 .rel.text.irq_enable
                0x4a0bb5fc        0x8 arch/arm/cpu/armv7/spare_head.o
 .rel.text.irq_disable
                0x4a0bb604        0x8 arch/arm/cpu/armv7/spare_head.o
 .rel.text.irq_install_handler
                0x4a0bb60c        0x8 arch/arm/cpu/armv7/spare_head.o
 .rel.text.irq_free_handler
                0x4a0bb614       0x10 arch/arm/cpu/armv7/spare_head.o
 .rel.text.do_irq
                0x4a0bb624       0x30 arch/arm/cpu/armv7/spare_head.o
 .rel.text.do_irqinfo
                0x4a0bb654       0x20 arch/arm/cpu/armv7/spare_head.o
 .rel.text.arch_interrupt_init
                0x4a0bb674       0x20 arch/arm/cpu/armv7/spare_head.o
 .rel.text.USBC_GetVbusStatus
                0x00000000        0x0 arch/arm/cpu/armv7/spare_head.o
 .rel.text.USBC_ConfigFIFO_Base
                0x4a0bb694        0x8 arch/arm/cpu/armv7/spare_head.o
 .rel.text.USBC_GetPortFifoStartAddr
                0x00000000        0x0 arch/arm/cpu/armv7/spare_head.o
 .rel.text.USBC_GetPortFifoSize
                0x00000000        0x0 arch/arm/cpu/armv7/spare_head.o
 .rel.text.USBC_PrintAllReg
                0x00000000        0x0 arch/arm/cpu/armv7/spare_head.o
 .rel.text.USBC_open_otg
                0x4a0bb69c       0x10 arch/arm/cpu/armv7/spare_head.o
 .rel.text.USBC_exit
                0x00000000        0x0 arch/arm/cpu/armv7/spare_head.o
 .rel.text.USBC_Dev_ConfigTransferMode
                0x4a0bb6ac       0x20 arch/arm/cpu/armv7/spare_head.o
 .rel.text.USBC_Host_ConfigEp
                0x00000000        0x0 arch/arm/cpu/armv7/spare_head.o
 .rel.data.timer_callback
                0x4a0bb6cc       0x10 arch/arm/cpu/armv7/spare_head.o
 .rel.u_boot_list_2_cmd_2_key_test
                0x4a0bb6dc       0x20 arch/arm/cpu/armv7/spare_head.o
 .rel.text.boot_jump_linux
                0x4a0bb6fc       0x28 arch/arm/cpu/armv7/spare_head.o
 .rel.text.boot_prep_linux
                0x4a0bb724       0x18 arch/arm/cpu/armv7/spare_head.o
 .rel.text.boot_prep_vxworks
                0x4a0bb73c       0x10 arch/arm/cpu/armv7/spare_head.o
 .rel.text.interrupt_init
                0x4a0bb74c       0x18 arch/arm/cpu/armv7/spare_head.o
 .rel.text.bad_mode
                0x4a0bb764        0x8 arch/arm/cpu/armv7/spare_head.o
 .rel.text.show_regs
                0x4a0bb76c       0x50 arch/arm/cpu/armv7/spare_head.o
 .rel.text.do_undefined_instruction
                0x4a0bb7bc        0x8 arch/arm/cpu/armv7/spare_head.o
 .rel.text.do_software_interrupt
                0x4a0bb7c4        0x8 arch/arm/cpu/armv7/spare_head.o
 .rel.text.do_prefetch_abort
                0x4a0bb7cc        0x8 arch/arm/cpu/armv7/spare_head.o
 .rel.text.do_data_abort
                0x4a0bb7d4        0x8 arch/arm/cpu/armv7/spare_head.o
 .rel.text.do_not_used
                0x4a0bb7dc        0x8 arch/arm/cpu/armv7/spare_head.o
 .rel.text.do_fiq
                0x4a0bb7e4        0x8 arch/arm/cpu/armv7/spare_head.o
 .rel.text.do_reset
                0x4a0bb7ec        0x8 arch/arm/cpu/armv7/spare_head.o
 .rel.text.enable_caches
                0x00000000        0x0 arch/arm/cpu/armv7/spare_head.o
 .rel.text.dram_bank_mmu_setup
                0x4a0bb7f4        0x8 arch/arm/cpu/armv7/spare_head.o
 .rel.rodata    0x4a0bb7fc      0x100 arch/arm/cpu/armv7/spare_head.o
 .rel.text.sprite_cartoon_screen_set
                0x4a0bb8fc       0x18 arch/arm/cpu/armv7/spare_head.o
 .rel.text.sprite_cartoon_test
                0x4a0bb914       0x40 arch/arm/cpu/armv7/spare_head.o
 .rel.text.sprite_cartoon_create
                0x4a0bb954       0x30 arch/arm/cpu/armv7/spare_head.o
 .rel.text.sprite_cartoon_upgrade
                0x4a0bb984       0x18 arch/arm/cpu/armv7/spare_head.o
 .rel.text.sprite_cartoon_destroy
                0x00000000        0x0 arch/arm/cpu/armv7/spare_head.o
 .rel.text.sprite_cartoon_progressbar_create
                0x4a0bb99c        0x8 arch/arm/cpu/armv7/spare_head.o
 .rel.text.sprite_cartoon_progressbar_upgrate
                0x4a0bb9a4       0x10 arch/arm/cpu/armv7/spare_head.o
 .rel.text.sprite_cartoon_ui_draw_hollowrectangle
                0x4a0bb9b4        0x8 arch/arm/cpu/armv7/spare_head.o
 .rel.text.sprite_cartoon_ui_draw_solidrectangle
                0x4a0bb9bc        0x8 arch/arm/cpu/armv7/spare_head.o
 .rel.text.sprite_cartoon_ui_draw_line
                0x00000000        0x0 arch/arm/cpu/armv7/spare_head.o
 .rel.text.sprite_cartoon_ui_draw_lineto
                0x00000000        0x0 arch/arm/cpu/armv7/spare_head.o
 .rel.text.sprite_cartoon_ui_draw_point
                0x00000000        0x0 arch/arm/cpu/armv7/spare_head.o
 .rel.text.sprite_cartoon_ui_set_color
                0x4a0bb9c4        0x8 arch/arm/cpu/armv7/spare_head.o
 .rel.text.sprite_cartoon_ui_get_color
                0x4a0bb9cc        0x8 arch/arm/cpu/armv7/spare_head.o
 .rel.text.sprite_cartoon_ui_moveto
                0x00000000        0x0 arch/arm/cpu/armv7/spare_head.o
 .rel.text.sprite_cartoon_ui_clear
                0x00000000        0x0 arch/arm/cpu/armv7/spare_head.o
 .rel.text.uichar_change_newline
                0x4a0bb9d4       0x18 arch/arm/cpu/armv7/spare_head.o
 .rel.text.sprite_uichar_init
                0x4a0bb9ec       0x28 arch/arm/cpu/armv7/spare_head.o
 .rel.text.sprite_uichar_printf
                0x4a0bba14       0x10 arch/arm/cpu/armv7/spare_head.o
 .rel.text.sprite_uichar_printf_ex
                0x4a0bba24       0x10 arch/arm/cpu/armv7/spare_head.o
 .rel.text.draw_pixel
                0x4a0bba34        0x8 arch/arm/cpu/armv7/spare_head.o
 .rel.text.open_font
                0x4a0bba3c       0x10 arch/arm/cpu/armv7/spare_head.o
 .rel.text.close_font
                0x00000000        0x0 arch/arm/cpu/armv7/spare_head.o
 .rel.text.check_change_line
                0x4a0bba4c       0x10 arch/arm/cpu/armv7/spare_head.o
 .rel.text.draw_bmp_ulc
                0x4a0bba5c       0x10 arch/arm/cpu/armv7/spare_head.o
 .rel.text.draw_cursor
                0x00000000        0x0 arch/arm/cpu/armv7/spare_head.o
 .rel.text.SFTE_New_Face
                0x4a0bba6c       0x40 arch/arm/cpu/armv7/spare_head.o
 .rel.text.SFTE_Done_Face
                0x4a0bbaac        0x8 arch/arm/cpu/armv7/spare_head.o
 .rel.text.SFTE_Set_Pixel_Sizes
                0x4a0bbab4       0x30 arch/arm/cpu/armv7/spare_head.o
 .rel.text.SFTE_Get_Pixel_Sizes
                0x00000000        0x0 arch/arm/cpu/armv7/spare_head.o
 .rel.text.SFTE_Get_Glyph
                0x4a0bbae4       0x28 arch/arm/cpu/armv7/spare_head.o
 .rel.text.SFTE_Get_XAdvance
                0x00000000        0x0 arch/arm/cpu/armv7/spare_head.o
 .rel.u_boot_list_2_cmd_2_screen_char
                0x4a0bbb0c       0x20 arch/arm/cpu/armv7/spare_head.o
 .rel.text.sunxi_dump
                0x4a0bbb2c       0x10 arch/arm/cpu/armv7/spare_head.o
 .rel.text.gpio_set_axpgpio_value.constprop.6
                0x4a0bbb3c        0x8 arch/arm/cpu/armv7/spare_head.o
 .rel.text.fdt_get_all_pin
                0x4a0bbb44       0x90 arch/arm/cpu/armv7/spare_head.o
 .rel.text.fdt_get_pin_num
                0x00000000        0x0 arch/arm/cpu/armv7/spare_head.o
 .rel.text.fdt_set_all_pin
                0x4a0bbbd4       0x18 arch/arm/cpu/armv7/spare_head.o
 .rel.text.fdt_set_all_pin_by_offset
                0x4a0bbbec       0x10 arch/arm/cpu/armv7/spare_head.o
 .rel.text.fdt_get_one_gpio_by_offset
                0x4a0bbbfc        0x8 arch/arm/cpu/armv7/spare_head.o
 .rel.text.fdt_get_one_gpio
                0x4a0bbc04        0x8 arch/arm/cpu/armv7/spare_head.o
 .rel.text.script_parser_subkey
                0x00000000        0x0 arch/arm/cpu/armv7/spare_head.o
 .rel.text.script_parser_fetch_ex
                0x00000000        0x0 arch/arm/cpu/armv7/spare_head.o
 .rel.text.gpio_request_simple
                0x00000000        0x0 arch/arm/cpu/armv7/spare_head.o
 .rel.text.sunxi_partition_get_total_num
                0x4a0bbc0c       0x10 arch/arm/cpu/armv7/spare_head.o
 .rel.text.sunxi_partition_get_name
                0x4a0bbc1c       0x10 arch/arm/cpu/armv7/spare_head.o
 .rel.text.sunxi_partition_get_offset
                0x4a0bbc2c       0x10 arch/arm/cpu/armv7/spare_head.o
 .rel.text.sunxi_partition_get_size
                0x4a0bbc3c       0x10 arch/arm/cpu/armv7/spare_head.o
 .rel.text.sunxi_partition_get_offset_byname
                0x4a0bbc4c       0x10 arch/arm/cpu/armv7/spare_head.o
 .rel.text.sunxi_partition_get_partno_byname
                0x4a0bbc5c       0x10 arch/arm/cpu/armv7/spare_head.o
 .rel.text.sunxi_partition_get_size_byname
                0x4a0bbc6c       0x10 arch/arm/cpu/armv7/spare_head.o
 .rel.text.sunxi_partition_get_info_byname
                0x00000000        0x0 arch/arm/cpu/armv7/spare_head.o
 .rel.text.sunxi_partition_fetch_mbr
                0x00000000        0x0 arch/arm/cpu/armv7/spare_head.o
 .rel.text.sunxi_partition_refresh
                0x00000000        0x0 arch/arm/cpu/armv7/spare_head.o
 .rel.text.sunxi_partition_init
                0x4a0bbc7c       0x20 arch/arm/cpu/armv7/spare_head.o
 .rel.text.sunxi_update_subsequent_processing
                0x4a0bbc9c       0x50 arch/arm/cpu/armv7/spare_head.o
 .rel.text.sunxi_fastboot_init
                0x4a0bbcec       0xd0 arch/arm/cpu/armv7/spare_head.o
 .rel.text.check_physical_key_early
                0x4a0bbdbc       0x50 arch/arm/cpu/armv7/spare_head.o
 .rel.text.update_bootcmd
                0x4a0bbe0c      0x130 arch/arm/cpu/armv7/spare_head.o
 .rel.text.disable_node
                0x4a0bbf3c       0x18 arch/arm/cpu/armv7/spare_head.o
 .rel.text.update_fdt_para_for_kernel
                0x4a0bbf54      0x140 arch/arm/cpu/armv7/spare_head.o
 .rel.text.get_boot_work_mode
                0x4a0bc094        0x8 arch/arm/cpu/armv7/spare_head.o
 .rel.text.get_boot_storage_type
                0x4a0bc09c        0x8 arch/arm/cpu/armv7/spare_head.o
 .rel.text.get_boot_dram_para_addr
                0x4a0bc0a4        0x8 arch/arm/cpu/armv7/spare_head.o
 .rel.text.get_boot_dram_update_flag
                0x4a0bc0ac        0x8 arch/arm/cpu/armv7/spare_head.o
 .rel.text.get_debugmode_flag
                0x4a0bc0b4       0x18 arch/arm/cpu/armv7/spare_head.o
 .rel.text.write_usb_recovery_to_misc
                0x4a0bc0cc       0x28 arch/arm/cpu/armv7/spare_head.o
 .rel.text.respond_physical_key_action
                0x4a0bc0f4       0x18 arch/arm/cpu/armv7/spare_head.o
 .rel.text.update_dram_para_for_ota
                0x4a0bc10c       0x28 arch/arm/cpu/armv7/spare_head.o
 .rel.text.board_late_init
                0x4a0bc134       0x10 arch/arm/cpu/armv7/spare_head.o
 .rel.text.sunxi_led_init
                0x4a0bc144       0x40 arch/arm/cpu/armv7/spare_head.o
 .rel.text.power_limit_init
                0x4a0bc184       0x10 arch/arm/cpu/armv7/spare_head.o
 .rel.text.power_limit_for_vbus
                0x4a0bc194       0x28 arch/arm/cpu/armv7/spare_head.o
 .rel.text.EnterAndroidChargeMode
                0x4a0bc1bc       0x10 arch/arm/cpu/armv7/spare_head.o
 .rel.text.EnterNormalBootMode
                0x4a0bc1cc       0x10 arch/arm/cpu/armv7/spare_head.o
 .rel.text.ProbePreSystemMode
                0x4a0bc1dc       0x18 arch/arm/cpu/armv7/spare_head.o
 .rel.text.PowerCheck
                0x4a0bc1f4       0x80 arch/arm/cpu/armv7/spare_head.o
 .rel.text.check_update_key
                0x4a0bc274       0x78 arch/arm/cpu/armv7/spare_head.o
 .rel.text.check_uart_input
                0x4a0bc2ec       0x18 arch/arm/cpu/armv7/spare_head.o
 .rel.text.do_efuse_read
                0x4a0bc304       0x28 arch/arm/cpu/armv7/spare_head.o
 .rel.text.sunxi_keydata_burn_by_usb
                0x4a0bc32c       0x80 arch/arm/cpu/armv7/spare_head.o
 .rel.text.get_serial_num_from_file
                0x00000000        0x0 arch/arm/cpu/armv7/spare_head.o
 .rel.text.get_serial_num_from_chipid
                0x4a0bc3ac        0x8 arch/arm/cpu/armv7/spare_head.o
 .rel.text.sunxi_set_serial_num
                0x4a0bc3b4       0x20 arch/arm/cpu/armv7/spare_head.o
 .rel.text.set_int_gate_onoff
                0x4a0bc3d4        0x8 arch/arm/cpu/armv7/spare_head.o
 .rel.text.set_int_mode
                0x4a0bc3dc        0x8 arch/arm/cpu/armv7/spare_head.o
 .rel.text.clean_int_pending
                0x4a0bc3e4        0x8 arch/arm/cpu/armv7/spare_head.o
 .rel.text.standby_led_control
                0x4a0bc3ec       0x30 arch/arm/cpu/armv7/spare_head.o
 .rel.text.init_standby_wakeup_src
                0x4a0bc41c       0x30 arch/arm/cpu/armv7/spare_head.o
 .rel.text.do_box_standby
                0x4a0bc44c       0x78 arch/arm/cpu/armv7/spare_head.o
 .rel.text.disp_getprop_by_name
                0x4a0bc4c4       0x28 arch/arm/cpu/armv7/spare_head.o
 .rel.text.get_saved_hdmi_vendor_id
                0x00000000        0x0 arch/arm/cpu/armv7/spare_head.o
 .rel.text.board_display_update_para_for_kernel
                0x4a0bc4ec       0x28 arch/arm/cpu/armv7/spare_head.o
 .rel.text.board_display_layer_open
                0x4a0bc514        0x8 arch/arm/cpu/armv7/spare_head.o
 .rel.text.board_display_layer_close
                0x00000000        0x0 arch/arm/cpu/armv7/spare_head.o
 .rel.text.board_display_layer_para_set
                0x4a0bc51c        0x8 arch/arm/cpu/armv7/spare_head.o
 .rel.text.board_display_show_until_lcd_open
                0x4a0bc524       0x10 arch/arm/cpu/armv7/spare_head.o
 .rel.text.board_display_framebuffer_set
                0x4a0bc534       0x48 arch/arm/cpu/armv7/spare_head.o
 .rel.text.get_display_resolution
                0x00000000        0x0 arch/arm/cpu/armv7/spare_head.o
 .rel.text.init_display_out_attr
                0x00000000        0x0 arch/arm/cpu/armv7/spare_head.o
 .rel.text.board_display_device_open
                0x00000000        0x0 arch/arm/cpu/armv7/spare_head.o
 .rel.text.board_display_setenv
                0x00000000        0x0 arch/arm/cpu/armv7/spare_head.o
 .rel.text.borad_display_get_screen_width
                0x00000000        0x0 arch/arm/cpu/armv7/spare_head.o
 .rel.text.borad_display_get_screen_height
                0x00000000        0x0 arch/arm/cpu/armv7/spare_head.o
 .rel.text.set_interest_region
                0x4a0bc57c       0x18 arch/arm/cpu/armv7/spare_head.o
 .rel.text.fb_init
                0x4a0bc594       0x58 arch/arm/cpu/armv7/spare_head.o
 .rel.text.fb_quit
                0x00000000        0x0 arch/arm/cpu/armv7/spare_head.o
 .rel.text.fb_lock
                0x4a0bc5ec       0x20 arch/arm/cpu/armv7/spare_head.o
 .rel.text.fb_unlock
                0x4a0bc60c       0x20 arch/arm/cpu/armv7/spare_head.o
 .rel.text.fb_save_para
                0x4a0bc62c       0x28 arch/arm/cpu/armv7/spare_head.o
 .rel.text.get_canvas_utils
                0x4a0bc654        0x8 arch/arm/cpu/armv7/spare_head.o
 .rel.text.disp_devices_open
                0x4a0bc65c        0x8 arch/arm/cpu/armv7/spare_head.o
 .rel.text.hdmi_verify_mode
                0x4a0bc664       0x50 arch/arm/cpu/armv7/spare_head.o
 .rel.text.get_disp_fdt_node
                0x4a0bc6b4       0x18 arch/arm/cpu/armv7/spare_head.o
 .rel.text.hal_save_int_to_kernel
                0x4a0bc6cc       0x18 arch/arm/cpu/armv7/spare_head.o
 .rel.text.hal_save_string_to_kernel
                0x4a0bc6e4       0x18 arch/arm/cpu/armv7/spare_head.o
 .rel.text.hal_get_mode_check
                0x4a0bc6fc        0x8 arch/arm/cpu/armv7/spare_head.o
 .rel.text.hal_switch_device
                0x4a0bc704       0x38 arch/arm/cpu/armv7/spare_head.o
 .rel.text.hal_get_disp_devices
                0x4a0bc73c       0x60 arch/arm/cpu/armv7/spare_head.o
 .rel.text.hal_get_fb_configs
                0x4a0bc79c       0x18 arch/arm/cpu/armv7/spare_head.o
 .rel.text.hal_request_layer
                0x4a0bc7b4       0x20 arch/arm/cpu/armv7/spare_head.o
 .rel.text.hal_set_layer_geometry
                0x4a0bc7d4       0x10 arch/arm/cpu/armv7/spare_head.o
 .rel.text.hal_release_layer
                0x00000000        0x0 arch/arm/cpu/armv7/spare_head.o
 .rel.u_boot_list_2_cmd_2_efuse_read
                0x4a0bc7e4       0x20 arch/arm/cpu/armv7/spare_head.o
 .rel.text.dram_init
                0x4a0bc804       0x10 arch/arm/cpu/armv7/spare_head.o
 .rel.text.platform_axp_probe
                0x4a0bc814       0x20 arch/arm/cpu/armv7/spare_head.o
 .rel.text.board_hardware_info
                0x00000000        0x0 arch/arm/cpu/armv7/spare_head.o
 .rel.text.find_cmd
                0x4a0bc834       0x10 arch/arm/cpu/armv7/spare_head.o
 .rel.text.cmd_usage
                0x4a0bc844       0x18 arch/arm/cpu/armv7/spare_head.o
 .rel.text._do_help
                0x4a0bc85c       0x10 arch/arm/cpu/armv7/spare_head.o
 .rel.text.var_complete
                0x4a0bc86c       0x10 arch/arm/cpu/armv7/spare_head.o
 .rel.text.cmd_auto_complete
                0x4a0bc87c       0x40 arch/arm/cpu/armv7/spare_head.o
 .rel.text.cmd_get_data_size
                0x4a0bc8bc        0x8 arch/arm/cpu/armv7/spare_head.o
 .rel.text.cmd_process
                0x4a0bc8c4       0x18 arch/arm/cpu/armv7/spare_head.o
 .rel.text.cmd_process_error
                0x00000000        0x0 arch/arm/cpu/armv7/spare_head.o
 .rel.text.jumptable_init
                0x4a0bc8dc       0x98 arch/arm/cpu/armv7/spare_head.o
 .rel.text.hash_lookup_algo
                0x00000000        0x0 arch/arm/cpu/armv7/spare_head.o
 .rel.text.hash_show
                0x00000000        0x0 arch/arm/cpu/armv7/spare_head.o
 .rel.text.hash_command
                0x4a0bc974        0x8 arch/arm/cpu/armv7/spare_head.o
 .rel.text.mapset
                0x4a0bc97c        0x8 arch/arm/cpu/armv7/spare_head.o
 .rel.text.syntax_err
                0x4a0bc984        0x8 arch/arm/cpu/armv7/spare_head.o
 .rel.text.do_showvar
                0x4a0bc98c       0x20 arch/arm/cpu/armv7/spare_head.o
 .rel.text.b_addqchr
                0x4a0bc9ac        0x8 arch/arm/cpu/armv7/spare_head.o
 .rel.text.is_assignment.part.0
                0x4a0bc9b4        0x8 arch/arm/cpu/armv7/spare_head.o
 .rel.text.xmalloc
                0x4a0bc9bc        0x8 arch/arm/cpu/armv7/spare_head.o
 .rel.text.file_get
                0x4a0bc9c4       0x30 arch/arm/cpu/armv7/spare_head.o
 .rel.text.xrealloc
                0x4a0bc9f4        0x8 arch/arm/cpu/armv7/spare_head.o
 .rel.text.done_word
                0x4a0bc9fc        0x8 arch/arm/cpu/armv7/spare_head.o
 .rel.text.get_local_var
                0x4a0bca04       0x20 arch/arm/cpu/armv7/spare_head.o
 .rel.text.set_local_var
                0x4a0bca24       0x20 arch/arm/cpu/armv7/spare_head.o
 .rel.text.insert_var_value_sub
                0x4a0bca44        0x8 arch/arm/cpu/armv7/spare_head.o
 .rel.text.unset_local_var
                0x00000000        0x0 arch/arm/cpu/armv7/spare_head.o
 .rel.text.parse_string_outer
                0x4a0bca4c       0x18 arch/arm/cpu/armv7/spare_head.o
 .rel.text.run_list_real
                0x4a0bca64       0x48 arch/arm/cpu/armv7/spare_head.o
 .rel.text.parse_stream_outer
                0x4a0bcaac       0x68 arch/arm/cpu/armv7/spare_head.o
 .rel.text.parse_file_outer
                0x4a0bcb14       0x10 arch/arm/cpu/armv7/spare_head.o
 .rel.text.u_boot_hush_start
                0x4a0bcb24       0x18 arch/arm/cpu/armv7/spare_head.o
 .rel.text.cli_simple_parse_line
                0x00000000        0x0 arch/arm/cpu/armv7/spare_head.o
 .rel.text.cli_simple_run_command
                0x00000000        0x0 arch/arm/cpu/armv7/spare_head.o
 .rel.text.cli_simple_loop
                0x00000000        0x0 arch/arm/cpu/armv7/spare_head.o
 .rel.text.do_run
                0x4a0bcb3c        0x8 arch/arm/cpu/armv7/spare_head.o
 .rel.text.cli_process_fdt
                0x4a0bcb44       0x10 arch/arm/cpu/armv7/spare_head.o
 .rel.text.cli_secure_boot_cmd
                0x4a0bcb54       0x18 arch/arm/cpu/armv7/spare_head.o
 .rel.text.delete_char.part.0
                0x4a0bcb6c       0x10 arch/arm/cpu/armv7/spare_head.o
 .rel.text.cread_add_char
                0x4a0bcb7c        0x8 arch/arm/cpu/armv7/spare_head.o
 .rel.text.cli_readline_into_buffer
                0x4a0bcb84       0xb0 arch/arm/cpu/armv7/spare_head.o
 .rel.text.cli_readline
                0x4a0bcc34        0x8 arch/arm/cpu/armv7/spare_head.o
 .rel.text.srec_decode
                0x00000000        0x0 arch/arm/cpu/armv7/spare_head.o
 .rel.text.xyzModem_get_hdr
                0x00000000        0x0 arch/arm/cpu/armv7/spare_head.o
 .rel.text.xyzModem_stream_open
                0x00000000        0x0 arch/arm/cpu/armv7/spare_head.o
 .rel.text.xyzModem_stream_read
                0x00000000        0x0 arch/arm/cpu/armv7/spare_head.o
 .rel.text.xyzModem_stream_close
                0x00000000        0x0 arch/arm/cpu/armv7/spare_head.o
 .rel.text.xyzModem_stream_terminate
                0x00000000        0x0 arch/arm/cpu/armv7/spare_head.o
 .rel.text.xyzModem_error
                0x00000000        0x0 arch/arm/cpu/armv7/spare_head.o
 .rel.text.bootdelay_process
                0x4a0bcc3c       0x38 arch/arm/cpu/armv7/spare_head.o
 .rel.text.autoboot_command
                0x4a0bcc74       0x18 arch/arm/cpu/armv7/spare_head.o
 .rel.text.setup_mon_len
                0x4a0bcc8c       0x10 arch/arm/cpu/armv7/spare_head.o
 .rel.text.reserve_sysconfig
                0x4a0bcc9c        0x8 arch/arm/cpu/armv7/spare_head.o
 .rel.text.reloc_sysconfig
                0x4a0bcca4        0x8 arch/arm/cpu/armv7/spare_head.o
 .rel.text.setup_reloc
                0x4a0bccac        0x8 arch/arm/cpu/armv7/spare_head.o
 .rel.text.reloc_fdt
                0x4a0bccb4        0x8 arch/arm/cpu/armv7/spare_head.o
 .rel.text.display_text_info
                0x4a0bccbc       0x10 arch/arm/cpu/armv7/spare_head.o
 .rel.text.reserve_fdt
                0x4a0bcccc        0x8 arch/arm/cpu/armv7/spare_head.o
 .rel.text.announce_dram_init
                0x4a0bccd4        0x8 arch/arm/cpu/armv7/spare_head.o
 .rel.text.init_func_pmubus
                0x4a0bccdc       0x10 arch/arm/cpu/armv7/spare_head.o
 .rel.text.init_baud_rate
                0x4a0bccec        0x8 arch/arm/cpu/armv7/spare_head.o
 .rel.text.setup_fdt
                0x4a0bccf4        0x8 arch/arm/cpu/armv7/spare_head.o
 .rel.text.board_init_f
                0x4a0bccfc        0x8 arch/arm/cpu/armv7/spare_head.o
 .rel.text.initr_reloc_global_data
                0x4a0bcd04       0x18 arch/arm/cpu/armv7/spare_head.o
 .rel.text.run_main_loop
                0x4a0bcd1c        0x8 arch/arm/cpu/armv7/spare_head.o
 .rel.text.initr_env
                0x4a0bcd24       0x18 arch/arm/cpu/armv7/spare_head.o
 .rel.text.sunxi_prepare_hdcpkey
                0x4a0bcd3c       0x48 arch/arm/cpu/armv7/spare_head.o
 .rel.text.initr_sunxi_display
                0x4a0bcd84       0x18 arch/arm/cpu/armv7/spare_head.o
 .rel.text.initr_mmc
                0x00000000        0x0 arch/arm/cpu/armv7/spare_head.o
 .rel.text.display_for_hdcp
                0x00000000        0x0 arch/arm/cpu/armv7/spare_head.o
 .rel.text.intr_vector_fix
                0x4a0bcd9c       0x40 arch/arm/cpu/armv7/spare_head.o
 .rel.text.board_init_r
                0x4a0bcddc        0x8 arch/arm/cpu/armv7/spare_head.o
 .rel.text.do_go
                0x4a0bcde4       0x10 arch/arm/cpu/armv7/spare_head.o
 .rel.text.do_bootd
                0x4a0bcdf4        0x8 arch/arm/cpu/armv7/spare_head.o
 .rel.text.do_bootm
                0x4a0bcdfc       0x18 arch/arm/cpu/armv7/spare_head.o
 .rel.text.bootm_maybe_autostart
                0x00000000        0x0 arch/arm/cpu/armv7/spare_head.o
 .rel.text.bootm_find_ramdisk_fdt
                0x4a0bce14       0x20 arch/arm/cpu/armv7/spare_head.o
 .rel.text.do_bootm_states
                0x4a0bce34       0xd8 arch/arm/cpu/armv7/spare_head.o
 .rel.text.do_bootm_rtems
                0x4a0bcf0c        0x8 arch/arm/cpu/armv7/spare_head.o
 .rel.text.do_bootm_plan9
                0x4a0bcf14       0x18 arch/arm/cpu/armv7/spare_head.o
 .rel.text.do_bootm_standalone
                0x4a0bcf2c       0x18 arch/arm/cpu/armv7/spare_head.o
 .rel.text.do_bootm_qnxelf
                0x4a0bcf44        0x8 arch/arm/cpu/armv7/spare_head.o
 .rel.text.do_bootm_netbsd
                0x4a0bcf4c       0x18 arch/arm/cpu/armv7/spare_head.o
 .rel.text.do_bootvx_fdt
                0x4a0bcf64       0x38 arch/arm/cpu/armv7/spare_head.o
 .rel.text.bootm_os_get_boot_func
                0x4a0bcf9c        0x8 arch/arm/cpu/armv7/spare_head.o
 .rel.text.do_help
                0x4a0bcfa4       0x10 arch/arm/cpu/armv7/spare_head.o
 .rel.text.do_version
                0x4a0bcfb4       0x20 arch/arm/cpu/armv7/spare_head.o
 .rel.text.do_efex_test
                0x4a0bcfd4       0x10 arch/arm/cpu/armv7/spare_head.o
 .rel.text.do_mass_test
                0x4a0bcfe4       0x10 arch/arm/cpu/armv7/spare_head.o
 .rel.text.do_fastboot_test
                0x4a0bcff4       0x10 arch/arm/cpu/armv7/spare_head.o
 .rel.text.do_sprite_test
                0x4a0bd004       0x40 arch/arm/cpu/armv7/spare_head.o
 .rel.text.timer1_test_func
                0x4a0bd044       0x10 arch/arm/cpu/armv7/spare_head.o
 .rel.text.timer0_test_func
                0x4a0bd054       0x10 arch/arm/cpu/armv7/spare_head.o
 .rel.text.do_delay_test
                0x4a0bd064       0x10 arch/arm/cpu/armv7/spare_head.o
 .rel.text.do_timer_test1
                0x4a0bd074       0x20 arch/arm/cpu/armv7/spare_head.o
 .rel.text.do_timer_test
                0x4a0bd094       0x20 arch/arm/cpu/armv7/spare_head.o
 .rel.text.do_efex
                0x4a0bd0b4        0x8 arch/arm/cpu/armv7/spare_head.o
 .rel.text.memtester_pagesize
                0x4a0bd0bc        0x8 arch/arm/cpu/armv7/spare_head.o
 .rel.text.usage
                0x4a0bd0c4        0x8 arch/arm/cpu/armv7/spare_head.o
 .rel.text.do_memtester
                0x4a0bd0cc       0x90 arch/arm/cpu/armv7/spare_head.o
 .rel.text.do_sunxi_bmp_info
                0x4a0bd15c       0x38 arch/arm/cpu/armv7/spare_head.o
 .rel.text.fat_read_file_ex.constprop.1
                0x4a0bd194       0x40 arch/arm/cpu/armv7/spare_head.o
 .rel.text.show_bmp_on_fb
                0x4a0bd1d4       0x38 arch/arm/cpu/armv7/spare_head.o
 .rel.text.sunxi_bmp_decode
                0x4a0bd20c       0x10 arch/arm/cpu/armv7/spare_head.o
 .rel.text.do_sunxi_bmp_display
                0x4a0bd21c       0x28 arch/arm/cpu/armv7/spare_head.o
 .rel.text.sunxi_advert_display
                0x4a0bd244       0x30 arch/arm/cpu/armv7/spare_head.o
 .rel.text.sunxi_bmp_display
                0x4a0bd274       0x50 arch/arm/cpu/armv7/spare_head.o
 .rel.text.do_sunxi_logo
                0x4a0bd2c4        0x8 arch/arm/cpu/armv7/spare_head.o
 .rel.text.do_read_from_boot
                0x4a0bd2cc       0x20 arch/arm/cpu/armv7/spare_head.o
 .rel.text.do_probe_secure_storage
                0x4a0bd2ec       0x48 arch/arm/cpu/armv7/spare_head.o
 .rel.text.probe_usb_overtime
                0x4a0bd334       0x10 arch/arm/cpu/armv7/spare_head.o
 .rel.text.do_burn_from_boot
                0x4a0bd344       0x88 arch/arm/cpu/armv7/spare_head.o
 .rel.text.env_attr_lookup
                0x4a0bd3cc        0x8 arch/arm/cpu/armv7/spare_head.o
 .rel.text.on_callbacks
                0x4a0bd3d4       0x20 arch/arm/cpu/armv7/spare_head.o
 .rel.text.find_env_callback
                0x4a0bd3f4       0x10 arch/arm/cpu/armv7/spare_head.o
 .rel.text.set_callback
                0x4a0bd404        0x8 arch/arm/cpu/armv7/spare_head.o
 .rel.text.env_callback_init
                0x4a0bd40c       0x20 arch/arm/cpu/armv7/spare_head.o
 .rel.text.on_flags
                0x4a0bd42c       0x20 arch/arm/cpu/armv7/spare_head.o
 .rel.text.skip_num.constprop.0
                0x4a0bd44c        0x8 arch/arm/cpu/armv7/spare_head.o
 .rel.text.env_flags_parse_vartype
                0x4a0bd454       0x10 arch/arm/cpu/armv7/spare_head.o
 .rel.text.env_flags_parse_varaccess
                0x4a0bd464       0x10 arch/arm/cpu/armv7/spare_head.o
 .rel.text.set_flags
                0x4a0bd474       0x10 arch/arm/cpu/armv7/spare_head.o
 .rel.text.env_flags_parse_varaccess_from_binflags
                0x00000000        0x0 arch/arm/cpu/armv7/spare_head.o
 .rel.text.env_flags_init
                0x4a0bd484       0x30 arch/arm/cpu/armv7/spare_head.o
 .rel.text.env_flags_validate
                0x4a0bd4b4       0x58 arch/arm/cpu/armv7/spare_head.o
 .rel.text.flash_env_relocate_spec
                0x4a0bd50c       0x40 arch/arm/cpu/armv7/spare_head.o
 .rel.text.env_init
                0x4a0bd54c        0x8 arch/arm/cpu/armv7/spare_head.o
 .rel.text.saveenv
                0x4a0bd554       0x20 arch/arm/cpu/armv7/spare_head.o
 .rel.text.env_relocate_spec
                0x4a0bd574        0x8 arch/arm/cpu/armv7/spare_head.o
 .rel.text.do_echo
                0x4a0bd57c        0x8 arch/arm/cpu/armv7/spare_head.o
 .rel.text.valid_elf_image
                0x4a0bd584       0x10 arch/arm/cpu/armv7/spare_head.o
 .rel.text.do_bootvx
                0x4a0bd594       0x98 arch/arm/cpu/armv7/spare_head.o
 .rel.text.do_bootelf
                0x4a0bd62c       0x18 arch/arm/cpu/armv7/spare_head.o
 .rel.text.do_fat_fsinfo
                0x4a0bd644       0x10 arch/arm/cpu/armv7/spare_head.o
 .rel.text.aw_fat_fsload
                0x4a0bd654       0x40 arch/arm/cpu/armv7/spare_head.o
 .rel.text.of_bus_default_count_cells
                0x00000000        0x0 arch/arm/cpu/armv7/spare_head.o
 .rel.text.fdt_find_or_add_subnode.constprop.6
                0x4a0bd694       0x10 arch/arm/cpu/armv7/spare_head.o
 .rel.text.set_working_fdt_addr
                0x4a0bd6a4       0x10 arch/arm/cpu/armv7/spare_head.o
 .rel.text.fdt_getprop_u32
                0x4a0bd6b4        0x8 arch/arm/cpu/armv7/spare_head.o
 .rel.text.fdt_initrd
                0x4a0bd6bc       0x38 arch/arm/cpu/armv7/spare_head.o
 .rel.text.fdt_chosen
                0x4a0bd6f4       0x20 arch/arm/cpu/armv7/spare_head.o
 .rel.text.do_fixup_by_path
                0x4a0bd714        0x8 arch/arm/cpu/armv7/spare_head.o
 .rel.text.fdt_fixup_memory_banks
                0x4a0bd71c       0x48 arch/arm/cpu/armv7/spare_head.o
 .rel.text.fdt_fixup_ethernet
                0x4a0bd764       0x38 arch/arm/cpu/armv7/spare_head.o
 .rel.text.fdt_del_node_and_alias
                0x00000000        0x0 arch/arm/cpu/armv7/spare_head.o
 .rel.text.fdt_translate_address
                0x00000000        0x0 arch/arm/cpu/armv7/spare_head.o
 .rel.text.fdt_node_offset_by_compat_reg
                0x00000000        0x0 arch/arm/cpu/armv7/spare_head.o
 .rel.text.fdt_set_phandle
                0x00000000        0x0 arch/arm/cpu/armv7/spare_head.o
 .rel.text.fdt_create_phandle
                0x00000000        0x0 arch/arm/cpu/armv7/spare_head.o
 .rel.text.fdt_set_node_status
                0x4a0bd79c       0x50 arch/arm/cpu/armv7/spare_head.o
 .rel.text.fdt_verify_alias_address
                0x00000000        0x0 arch/arm/cpu/armv7/spare_head.o
 .rel.text.fdt_get_base_address
                0x00000000        0x0 arch/arm/cpu/armv7/spare_head.o
 .rel.text.fdt_read_range
                0x00000000        0x0 arch/arm/cpu/armv7/spare_head.o
 .rel.text.do_fdt_test
                0x4a0bd7ec       0xa8 arch/arm/cpu/armv7/spare_head.o
 .rel.text.fdt_valid
                0x4a0bd894       0x28 arch/arm/cpu/armv7/spare_head.o
 .rel.text.is_printable_string
                0x4a0bd8bc        0x8 arch/arm/cpu/armv7/spare_head.o
 .rel.text.print_data
                0x4a0bd8c4       0x58 arch/arm/cpu/armv7/spare_head.o
 .rel.text.save_fdt_to_flash
                0x4a0bd91c       0x10 arch/arm/cpu/armv7/spare_head.o
 .rel.text.do_fdt
                0x4a0bd92c      0x258 arch/arm/cpu/armv7/spare_head.o
 .rel.text.do_interrupts
                0x4a0bdb84        0x8 arch/arm/cpu/armv7/spare_head.o
 .rel.text.do_memcpy_test
                0x4a0bdb8c       0x10 arch/arm/cpu/armv7/spare_head.o
 .rel.text.do_mem_mw
                0x4a0bdb9c        0x8 arch/arm/cpu/armv7/spare_head.o
 .rel.text.do_mem_base
                0x4a0bdba4       0x10 arch/arm/cpu/armv7/spare_head.o
 .rel.text.do_mem_cmp
                0x4a0bdbb4       0x38 arch/arm/cpu/armv7/spare_head.o
 .rel.text.do_mem_crc
                0x4a0bdbec        0x8 arch/arm/cpu/armv7/spare_head.o
 .rel.text.do_mem_cp
                0x4a0bdbf4       0x10 arch/arm/cpu/armv7/spare_head.o
 .rel.text.do_mem_md
                0x4a0bdc04       0x20 arch/arm/cpu/armv7/spare_head.o
 .rel.text.mod_mem.isra.2
                0x4a0bdc24       0x48 arch/arm/cpu/armv7/spare_head.o
 .rel.text.do_mmcops
                0x4a0bdc6c       0x18 arch/arm/cpu/armv7/spare_head.o
 .rel.text.init_mmc_device
                0x4a0bdc84        0x8 arch/arm/cpu/armv7/spare_head.o
 .rel.text.do_mmc_rescan
                0x4a0bdc8c        0x8 arch/arm/cpu/armv7/spare_head.o
 .rel.text.do_mmcinfo
                0x4a0bdc94       0x88 arch/arm/cpu/armv7/spare_head.o
 .rel.text.do_mmc_dev
                0x4a0bdd1c       0x20 arch/arm/cpu/armv7/spare_head.o
 .rel.text.do_mmc_part
                0x4a0bdd3c       0x10 arch/arm/cpu/armv7/spare_head.o
 .rel.text.do_mmc_erase
                0x4a0bdd4c       0x30 arch/arm/cpu/armv7/spare_head.o
 .rel.text.do_mmc_write
                0x4a0bdd7c       0x30 arch/arm/cpu/armv7/spare_head.o
 .rel.text.do_mmc_read
                0x4a0bddac       0x28 arch/arm/cpu/armv7/spare_head.o
 .rel.text.do_mmc_setdsr
                0x4a0bddd4       0x28 arch/arm/cpu/armv7/spare_head.o
 .rel.text.do_card0_probe
                0x4a0bddfc       0x28 arch/arm/cpu/armv7/spare_head.o
 .rel.text.do_test
                0x4a0bde24       0x70 arch/arm/cpu/armv7/spare_head.o
 .rel.text.sunxi_verify_signature
                0x00000000        0x0 arch/arm/cpu/armv7/spare_head.o
 .rel.text.sunxi_verify_rotpk_hash
                0x4a0bde94       0x68 arch/arm/cpu/armv7/spare_head.o
 .rel.text.do_fastboot
                0x4a0bdefc        0x8 arch/arm/cpu/armv7/spare_head.o
 .rel.text.do_env_delete
                0x4a0bdf04       0x10 arch/arm/cpu/armv7/spare_head.o
 .rel.text.env_print
                0x4a0bdf14       0x18 arch/arm/cpu/armv7/spare_head.o
 .rel.text.do_env_print
                0x4a0bdf2c       0x10 arch/arm/cpu/armv7/spare_head.o
 .rel.text.do_env
                0x4a0bdf3c        0x8 arch/arm/cpu/armv7/spare_head.o
 .rel.text.do_env_import
                0x4a0bdf44       0x58 arch/arm/cpu/armv7/spare_head.o
 .rel.text.do_env_default
                0x4a0bdf9c        0x8 arch/arm/cpu/armv7/spare_head.o
 .rel.text.do_env_save
                0x4a0bdfa4       0x10 arch/arm/cpu/armv7/spare_head.o
 .rel.text._do_env_set.isra.1
                0x4a0bdfb4       0x30 arch/arm/cpu/armv7/spare_head.o
 .rel.text.get_env_id
                0x00000000        0x0 arch/arm/cpu/armv7/spare_head.o
 .rel.text.setenv
                0x4a0bdfe4        0x8 arch/arm/cpu/armv7/spare_head.o
 .rel.text.setenv_hex
                0x4a0bdfec        0x8 arch/arm/cpu/armv7/spare_head.o
 .rel.text.do_env_export
                0x4a0bdff4       0x40 arch/arm/cpu/armv7/spare_head.o
 .rel.text.getenv_f
                0x4a0be034        0x8 arch/arm/cpu/armv7/spare_head.o
 .rel.text.getenv
                0x4a0be03c        0x8 arch/arm/cpu/armv7/spare_head.o
 .rel.text.env_get_addr
                0x4a0be044        0x8 arch/arm/cpu/armv7/spare_head.o
 .rel.text.env_get_char
                0x4a0be04c        0x8 arch/arm/cpu/armv7/spare_head.o
 .rel.text.set_default_env
                0x4a0be054       0x40 arch/arm/cpu/armv7/spare_head.o
 .rel.text.set_default_vars
                0x4a0be094       0x10 arch/arm/cpu/armv7/spare_head.o
 .rel.text.env_import
                0x4a0be0a4       0x38 arch/arm/cpu/armv7/spare_head.o
 .rel.text.env_export
                0x4a0be0dc       0x28 arch/arm/cpu/armv7/spare_head.o
 .rel.text.env_relocate
                0x4a0be104        0x8 arch/arm/cpu/armv7/spare_head.o
 .rel.text.env_complete
                0x4a0be10c       0x18 arch/arm/cpu/armv7/spare_head.o
 .rel.text.console_setfile
                0x4a0be124       0x10 arch/arm/cpu/armv7/spare_head.o
 .rel.text.fgetc
                0x4a0be134        0x8 arch/arm/cpu/armv7/spare_head.o
 .rel.text.ftstc
                0x4a0be13c        0x8 arch/arm/cpu/armv7/spare_head.o
 .rel.text.fputc
                0x4a0be144        0x8 arch/arm/cpu/armv7/spare_head.o
 .rel.text.fputs
                0x4a0be14c        0x8 arch/arm/cpu/armv7/spare_head.o
 .rel.text.tick_printf
                0x4a0be154        0x8 arch/arm/cpu/armv7/spare_head.o
 .rel.text.sunxi_tick_printf
                0x4a0be15c        0x8 arch/arm/cpu/armv7/spare_head.o
 .rel.text.ctrlc
                0x4a0be164       0x10 arch/arm/cpu/armv7/spare_head.o
 .rel.text.confirm_yesno
                0x00000000        0x0 arch/arm/cpu/armv7/spare_head.o
 .rel.text.disable_ctrlc
                0x4a0be174        0x8 arch/arm/cpu/armv7/spare_head.o
 .rel.text.had_ctrlc
                0x4a0be17c        0x8 arch/arm/cpu/armv7/spare_head.o
 .rel.text.clear_ctrlc
                0x4a0be184        0x8 arch/arm/cpu/armv7/spare_head.o
 .rel.text.on_console
                0x4a0be18c       0x20 arch/arm/cpu/armv7/spare_head.o
 .rel.text.stdio_print_current_devices
                0x4a0be1ac       0x40 arch/arm/cpu/armv7/spare_head.o
 .rel.text.console_init_r
                0x4a0be1ec       0x10 arch/arm/cpu/armv7/spare_head.o
 .rel.text.sbrk
                0x4a0be1fc       0x18 arch/arm/cpu/armv7/spare_head.o
 .rel.text.mem_malloc_init
                0x4a0be214       0x18 arch/arm/cpu/armv7/spare_head.o
 .rel.text.malloc_trim
                0x4a0be22c       0x18 arch/arm/cpu/armv7/spare_head.o
 .rel.text.free
                0x4a0be244       0x18 arch/arm/cpu/armv7/spare_head.o
 .rel.text.malloc
                0x4a0be25c       0x40 arch/arm/cpu/armv7/spare_head.o
 .rel.text.calloc
                0x4a0be29c        0x8 arch/arm/cpu/armv7/spare_head.o
 .rel.text.realloc
                0x4a0be2a4        0x8 arch/arm/cpu/armv7/spare_head.o
 .rel.text.mallopt
                0x00000000        0x0 arch/arm/cpu/armv7/spare_head.o
 .rel.text.on_loadaddr
                0x4a0be2ac        0x8 arch/arm/cpu/armv7/spare_head.o
 .rel.text.getenv_bootm_low
                0x4a0be2b4        0x8 arch/arm/cpu/armv7/spare_head.o
 .rel.text.getenv_bootm_size
                0x4a0be2bc       0x10 arch/arm/cpu/armv7/spare_head.o
 .rel.text.getenv_bootm_mapsize
                0x4a0be2cc        0x8 arch/arm/cpu/armv7/spare_head.o
 .rel.text.genimg_print_size
                0x4a0be2d4       0x10 arch/arm/cpu/armv7/spare_head.o
 .rel.text.genimg_get_os_name
                0x4a0be2e4       0x10 arch/arm/cpu/armv7/spare_head.o
 .rel.text.genimg_get_arch_name
                0x4a0be2f4       0x10 arch/arm/cpu/armv7/spare_head.o
 .rel.text.genimg_get_type_name
                0x4a0be304       0x10 arch/arm/cpu/armv7/spare_head.o
 .rel.text.genimg_get_comp_name
                0x4a0be314       0x10 arch/arm/cpu/armv7/spare_head.o
 .rel.text.image_print_contents
                0x4a0be324       0x50 arch/arm/cpu/armv7/spare_head.o
 .rel.text.genimg_get_os_id
                0x00000000        0x0 arch/arm/cpu/armv7/spare_head.o
 .rel.text.genimg_get_arch_id
                0x00000000        0x0 arch/arm/cpu/armv7/spare_head.o
 .rel.text.genimg_get_type_id
                0x00000000        0x0 arch/arm/cpu/armv7/spare_head.o
 .rel.text.genimg_get_comp_id
                0x00000000        0x0 arch/arm/cpu/armv7/spare_head.o
 .rel.text.boot_get_ramdisk
                0x4a0be374       0x50 arch/arm/cpu/armv7/spare_head.o
 .rel.text.boot_ramdisk_high
                0x4a0be3c4       0x20 arch/arm/cpu/armv7/spare_head.o
 .rel.text.boot_get_cmdline
                0x4a0be3e4       0x10 arch/arm/cpu/armv7/spare_head.o
 .rel.text.image_setup_linux
                0x4a0be3f4        0x8 arch/arm/cpu/armv7/spare_head.o
 .rel.text.fdt_error
                0x4a0be3fc       0x10 arch/arm/cpu/armv7/spare_head.o
 .rel.text.boot_fdt_add_mem_rsv_regions
                0x4a0be40c        0x8 arch/arm/cpu/armv7/spare_head.o
 .rel.text.boot_relocate_fdt
                0x4a0be414       0x40 arch/arm/cpu/armv7/spare_head.o
 .rel.text.boot_get_fdt
                0x00000000        0x0 arch/arm/cpu/armv7/spare_head.o
 .rel.text.image_setup_libfdt
                0x4a0be454       0x10 arch/arm/cpu/armv7/spare_head.o
 .rel.text.stdio_get_list
                0x4a0be464        0x8 arch/arm/cpu/armv7/spare_head.o
 .rel.text.stdio_get_by_name
                0x4a0be46c        0x8 arch/arm/cpu/armv7/spare_head.o
 .rel.text.stdio_register
                0x4a0be474        0x8 arch/arm/cpu/armv7/spare_head.o
 .rel.text.stdio_init
                0x4a0be47c       0x30 arch/arm/cpu/armv7/spare_head.o
 .rel.text.mem_noncache_malloc_init
                0x4a0be4ac       0x10 arch/arm/cpu/armv7/spare_head.o
 .rel.text.malloc_noncache
                0x4a0be4bc        0x8 arch/arm/cpu/armv7/spare_head.o
 .rel.text.free_noncache
                0x00000000        0x0 arch/arm/cpu/armv7/spare_head.o
 .rel.text.do_sunxi_aes
                0x4a0be4c4       0x40 arch/arm/cpu/armv7/spare_head.o
 .rel.text.do_sunxi_smc
                0x4a0be504       0x40 arch/arm/cpu/armv7/spare_head.o
 .rel.text.user_data_list
                0x4a0be544       0x48 arch/arm/cpu/armv7/spare_head.o
 .rel.text.save_user_data_to_secure_storage
                0x4a0be58c       0x38 arch/arm/cpu/armv7/spare_head.o
 .rel.text.do_check_userdata
                0x4a0be5c4        0x8 arch/arm/cpu/armv7/spare_head.o
 .rel.text.save_user_private_data
                0x4a0be5cc       0x50 arch/arm/cpu/armv7/spare_head.o
 .rel.text.do_save_user_data
                0x4a0be61c       0x48 arch/arm/cpu/armv7/spare_head.o
 .rel.text.erase_all_private_data
                0x4a0be664       0x20 arch/arm/cpu/armv7/spare_head.o
 .rel.text.erase_private_data
                0x4a0be684        0x8 arch/arm/cpu/armv7/spare_head.o
 .rel.text.read_private_key_by_name
                0x4a0be68c       0x48 arch/arm/cpu/armv7/spare_head.o
 .rel.text.check_user_data
                0x4a0be6d4       0x48 arch/arm/cpu/armv7/spare_head.o
 .rel.text.update_user_data
                0x4a0be71c       0x68 arch/arm/cpu/armv7/spare_head.o
 .rel.rodata.CSWTCH.13
                0x00000000        0x0 arch/arm/cpu/armv7/spare_head.o
 .rel.rodata.boot_os
                0x4a0be784       0x38 arch/arm/cpu/armv7/spare_head.o
 .rel.rodata.op_adv
                0x4a0be7bc       0x80 arch/arm/cpu/armv7/spare_head.o
 .rel.rodata.uimage_comp
                0x4a0be83c       0x60 arch/arm/cpu/armv7/spare_head.o
 .rel.rodata.uimage_os
                0x4a0be89c       0x98 arch/arm/cpu/armv7/spare_head.o
 .rel.rodata.uimage_arch
                0x4a0be934      0x178 arch/arm/cpu/armv7/spare_head.o
 .rel.rodata.uimage_type
                0x4a0beaac      0x138 arch/arm/cpu/armv7/spare_head.o
 .rel.data.hash_algo
                0x00000000        0x0 arch/arm/cpu/armv7/spare_head.o
 .rel.data.reserved_list
                0x4a0bebe4       0x58 arch/arm/cpu/armv7/spare_head.o
 .rel.u_boot_list_2_cmd_2_showvar
                0x4a0bec3c       0x20 arch/arm/cpu/armv7/spare_head.o
 .rel.data.init_sequence_f
                0x4a0bec5c      0x150 arch/arm/cpu/armv7/spare_head.o
 .rel.data.init_sequence_r
                0x4a0bedac       0xf8 arch/arm/cpu/armv7/spare_head.o
 .rel.u_boot_list_2_cmd_2_go
                0x4a0beea4       0x20 arch/arm/cpu/armv7/spare_head.o
 .rel.u_boot_list_2_cmd_2_reset
                0x4a0beec4       0x20 arch/arm/cpu/armv7/spare_head.o
 .rel.u_boot_list_2_cmd_2_boot
                0x4a0beee4       0x20 arch/arm/cpu/armv7/spare_head.o
 .rel.u_boot_list_2_cmd_2_bootd
                0x4a0bef04       0x20 arch/arm/cpu/armv7/spare_head.o
 .rel.u_boot_list_2_cmd_2_bootm
                0x4a0bef24       0x20 arch/arm/cpu/armv7/spare_head.o
 .rel.data.cmd_bootm_sub
                0x4a0bef44       0xd8 arch/arm/cpu/armv7/spare_head.o
 .rel.u_boot_list_2_cmd_2_question_mark
                0x4a0bf01c       0x20 arch/arm/cpu/armv7/spare_head.o
 .rel.u_boot_list_2_cmd_2_help
                0x4a0bf03c       0x20 arch/arm/cpu/armv7/spare_head.o
 .rel.u_boot_list_2_cmd_2_version
                0x4a0bf05c       0x20 arch/arm/cpu/armv7/spare_head.o
 .rel.u_boot_list_2_cmd_2_mass_test
                0x4a0bf07c       0x20 arch/arm/cpu/armv7/spare_head.o
 .rel.u_boot_list_2_cmd_2_efex_test
                0x4a0bf09c       0x20 arch/arm/cpu/armv7/spare_head.o
 .rel.u_boot_list_2_cmd_2_sprite_test
                0x4a0bf0bc       0x20 arch/arm/cpu/armv7/spare_head.o
 .rel.u_boot_list_2_cmd_2_fastboot_test
                0x4a0bf0dc       0x20 arch/arm/cpu/armv7/spare_head.o
 .rel.u_boot_list_2_cmd_2_delay_test
                0x4a0bf0fc       0x20 arch/arm/cpu/armv7/spare_head.o
 .rel.u_boot_list_2_cmd_2_timer_test1
                0x4a0bf11c       0x20 arch/arm/cpu/armv7/spare_head.o
 .rel.u_boot_list_2_cmd_2_timer_test
                0x4a0bf13c       0x20 arch/arm/cpu/armv7/spare_head.o
 .rel.u_boot_list_2_cmd_2_efex
                0x4a0bf15c       0x20 arch/arm/cpu/armv7/spare_head.o
 .rel.u_boot_list_2_cmd_2_shutdown
                0x4a0bf17c       0x20 arch/arm/cpu/armv7/spare_head.o
 .rel.u_boot_list_2_cmd_2_memtester
                0x4a0bf19c       0x20 arch/arm/cpu/armv7/spare_head.o
 .rel.data.tests
                0x4a0bf1bc       0xf0 arch/arm/cpu/armv7/spare_head.o
 .rel.u_boot_list_2_cmd_2_sunxi_bmp_info
                0x4a0bf2ac       0x20 arch/arm/cpu/armv7/spare_head.o
 .rel.u_boot_list_2_cmd_2_sunxi_bmp_show
                0x4a0bf2cc       0x20 arch/arm/cpu/armv7/spare_head.o
 .rel.u_boot_list_2_cmd_2_logo
                0x4a0bf2ec       0x20 arch/arm/cpu/armv7/spare_head.o
 .rel.u_boot_list_2_cmd_2_pbread
                0x4a0bf30c       0x20 arch/arm/cpu/armv7/spare_head.o
 .rel.u_boot_list_2_cmd_2_pst
                0x4a0bf32c       0x20 arch/arm/cpu/armv7/spare_head.o
 .rel.u_boot_list_2_cmd_2_uburn
                0x4a0bf34c       0x20 arch/arm/cpu/armv7/spare_head.o
 .rel.u_boot_list_2_env_clbk_2_callbacks
                0x4a0bf36c       0x10 arch/arm/cpu/armv7/spare_head.o
 .rel.u_boot_list_2_env_clbk_2_flags
                0x4a0bf37c       0x10 arch/arm/cpu/armv7/spare_head.o
 .rel.data.env_name_spec
                0x4a0bf38c        0x8 arch/arm/cpu/armv7/spare_head.o
 .rel.u_boot_list_2_cmd_2_echo
                0x4a0bf394       0x20 arch/arm/cpu/armv7/spare_head.o
 .rel.u_boot_list_2_cmd_2_bootelf
                0x4a0bf3b4       0x20 arch/arm/cpu/armv7/spare_head.o
 .rel.u_boot_list_2_cmd_2_bootvx
                0x4a0bf3d4       0x20 arch/arm/cpu/armv7/spare_head.o
 .rel.u_boot_list_2_cmd_2_exit
                0x4a0bf3f4       0x20 arch/arm/cpu/armv7/spare_head.o
 .rel.u_boot_list_2_cmd_2_fatinfo
                0x4a0bf414       0x20 arch/arm/cpu/armv7/spare_head.o
 .rel.u_boot_list_2_cmd_2_fatload
                0x4a0bf434       0x20 arch/arm/cpu/armv7/spare_head.o
 .rel.u_boot_list_2_cmd_2_fatls
                0x4a0bf454       0x20 arch/arm/cpu/armv7/spare_head.o
 .rel.u_boot_list_2_cmd_2_aw_fatload
                0x4a0bf474       0x20 arch/arm/cpu/armv7/spare_head.o
 .rel.data.of_busses
                0x00000000        0x0 arch/arm/cpu/armv7/spare_head.o
 .rel.u_boot_list_2_cmd_2_fdt
                0x4a0bf494       0x20 arch/arm/cpu/armv7/spare_head.o
 .rel.u_boot_list_2_cmd_2_fdt_test
                0x4a0bf4b4       0x20 arch/arm/cpu/armv7/spare_head.o
 .rel.u_boot_list_2_cmd_2_memcpy_test
                0x4a0bf4d4       0x20 arch/arm/cpu/armv7/spare_head.o
 .rel.u_boot_list_2_cmd_2_irqinfo
                0x4a0bf4f4       0x20 arch/arm/cpu/armv7/spare_head.o
 .rel.u_boot_list_2_cmd_2_interrupts
                0x4a0bf514       0x20 arch/arm/cpu/armv7/spare_head.o
 .rel.u_boot_list_2_cmd_2_base
                0x4a0bf534       0x20 arch/arm/cpu/armv7/spare_head.o
 .rel.u_boot_list_2_cmd_2_cmp
                0x4a0bf554       0x20 arch/arm/cpu/armv7/spare_head.o
 .rel.u_boot_list_2_cmd_2_nm
                0x4a0bf574       0x20 arch/arm/cpu/armv7/spare_head.o
 .rel.u_boot_list_2_cmd_2_loop
                0x4a0bf594       0x20 arch/arm/cpu/armv7/spare_head.o
 .rel.u_boot_list_2_cmd_2_cp
                0x4a0bf5b4       0x20 arch/arm/cpu/armv7/spare_head.o
 .rel.u_boot_list_2_cmd_2_mm
                0x4a0bf5d4       0x20 arch/arm/cpu/armv7/spare_head.o
 .rel.u_boot_list_2_cmd_2_crc32
                0x4a0bf5f4       0x20 arch/arm/cpu/armv7/spare_head.o
 .rel.u_boot_list_2_cmd_2_md
                0x4a0bf614       0x20 arch/arm/cpu/armv7/spare_head.o
 .rel.u_boot_list_2_cmd_2_mw
                0x4a0bf634       0x20 arch/arm/cpu/armv7/spare_head.o
 .rel.u_boot_list_2_cmd_2_sunxi_card0_probe
                0x4a0bf654       0x20 arch/arm/cpu/armv7/spare_head.o
 .rel.u_boot_list_2_cmd_2_mmcinfo
                0x4a0bf674       0x20 arch/arm/cpu/armv7/spare_head.o
 .rel.data.cmd_mmc
                0x4a0bf694      0x120 arch/arm/cpu/armv7/spare_head.o
 .rel.u_boot_list_2_cmd_2_mmc
                0x4a0bf7b4       0x20 arch/arm/cpu/armv7/spare_head.o
 .rel.u_boot_list_2_cmd_2_test
                0x4a0bf7d4       0x20 arch/arm/cpu/armv7/spare_head.o
 .rel.u_boot_list_2_cmd_2_true
                0x4a0bf7f4       0x18 arch/arm/cpu/armv7/spare_head.o
 .rel.u_boot_list_2_cmd_2_false
                0x4a0bf80c       0x18 arch/arm/cpu/armv7/spare_head.o
 .rel.u_boot_list_2_cmd_2_rotpk_test
                0x4a0bf824       0x20 arch/arm/cpu/armv7/spare_head.o
 .rel.u_boot_list_2_cmd_2_fastboot
                0x4a0bf844       0x20 arch/arm/cpu/armv7/spare_head.o
 .rel.u_boot_list_2_cmd_2_setenv
                0x4a0bf864       0x28 arch/arm/cpu/armv7/spare_head.o
 .rel.u_boot_list_2_cmd_2_env
                0x4a0bf88c       0x20 arch/arm/cpu/armv7/spare_head.o
 .rel.u_boot_list_2_cmd_2_saveenv
                0x4a0bf8ac       0x20 arch/arm/cpu/armv7/spare_head.o
 .rel.data.cmd_env_sub
                0x4a0bf8cc      0x100 arch/arm/cpu/armv7/spare_head.o
 .rel.u_boot_list_2_cmd_2_printenv
                0x4a0bf9cc       0x28 arch/arm/cpu/armv7/spare_head.o
 .rel.u_boot_list_2_cmd_2_run
                0x4a0bf9f4       0x28 arch/arm/cpu/armv7/spare_head.o
 .rel.data.env_htab
                0x4a0bfa1c        0x8 arch/arm/cpu/armv7/spare_head.o
 .rel.u_boot_list_2_env_clbk_2_console
                0x4a0bfa24       0x10 arch/arm/cpu/armv7/spare_head.o
 .rel.data.av_  0x4a0bfa34      0x800 arch/arm/cpu/armv7/spare_head.o
 .rel.u_boot_list_2_env_clbk_2_loadaddr
                0x4a0c0234       0x10 arch/arm/cpu/armv7/spare_head.o
 .rel.data.stdio_names
                0x4a0c0244       0x18 arch/arm/cpu/armv7/spare_head.o
 .rel.u_boot_list_2_cmd_2_sunxi_aes
                0x4a0c025c       0x20 arch/arm/cpu/armv7/spare_head.o
 .rel.u_boot_list_2_cmd_2_sunxi_smc
                0x4a0c027c       0x20 arch/arm/cpu/armv7/spare_head.o
 .rel.u_boot_list_2_cmd_2_check_userdata
                0x4a0c029c       0x20 arch/arm/cpu/armv7/spare_head.o
 .rel.u_boot_list_2_cmd_2_erase_userdata
                0x4a0c02bc       0x20 arch/arm/cpu/armv7/spare_head.o
 .rel.u_boot_list_2_cmd_2_save_userdata
                0x4a0c02dc       0x20 arch/arm/cpu/armv7/spare_head.o
 .rel.data.IGNORE_ENV_VARIABLE
                0x4a0c02fc       0x58 arch/arm/cpu/armv7/spare_head.o
 .rel.text.get_dev_hwpart
                0x4a0c0354        0x8 arch/arm/cpu/armv7/spare_head.o
 .rel.text.dev_print
                0x4a0c035c      0x110 arch/arm/cpu/armv7/spare_head.o
 .rel.text.print_part
                0x4a0c046c       0xb0 arch/arm/cpu/armv7/spare_head.o
 .rel.text.get_device
                0x4a0c051c       0x18 arch/arm/cpu/armv7/spare_head.o
 .rel.text.get_device_and_partition
                0x4a0c0534       0x70 arch/arm/cpu/armv7/spare_head.o
 .rel.text.test_block_type
                0x4a0c05a4       0x10 arch/arm/cpu/armv7/spare_head.o
 .rel.text.print_partition_extended
                0x4a0c05b4       0x30 arch/arm/cpu/armv7/spare_head.o
 .rel.text.get_partition_info_extended.constprop.1
                0x4a0c05e4       0x80 arch/arm/cpu/armv7/spare_head.o
 .rel.text.print_part_dos
                0x4a0c0664        0x8 arch/arm/cpu/armv7/spare_head.o
 .rel.rodata.block_drvr
                0x4a0c066c       0x28 arch/arm/cpu/armv7/spare_head.o
 .rel.text.ir_sample_config
                0x4a0c0694       0x28 arch/arm/cpu/armv7/spare_head.o
 .rel.text.ir_recv_irq_service
                0x4a0c06bc       0x30 arch/arm/cpu/armv7/spare_head.o
 .rel.text.ir_setup
                0x4a0c06ec       0x28 arch/arm/cpu/armv7/spare_head.o
 .rel.text.ir_nec_decode
                0x4a0c0714       0x50 arch/arm/cpu/armv7/spare_head.o
 .rel.text.ir_boot_recovery_mode_detect
                0x4a0c0764       0x30 arch/arm/cpu/armv7/spare_head.o
 .rel.text.check_ir_boot_recovery
                0x4a0c0794       0x58 arch/arm/cpu/armv7/spare_head.o
 .rel.text.drv_lcd_close_callback
                0x00000000        0x0 arch/arm/cpu/armv7/spare_head.o
 .rel.text.drv_lcd_open_callback
                0x4a0c07ec       0x38 arch/arm/cpu/armv7/spare_head.o
 .rel.text.disp_blank
                0x4a0c0824        0x8 arch/arm/cpu/armv7/spare_head.o
 .rel.text.disp_getprop_regbase
                0x4a0c082c       0x28 arch/arm/cpu/armv7/spare_head.o
 .rel.text.disp_getprop_irq
                0x4a0c0854       0x28 arch/arm/cpu/armv7/spare_head.o
 .rel.text.drv_disp_init
                0x4a0c087c       0x98 arch/arm/cpu/armv7/spare_head.o
 .rel.text.drv_disp_exit
                0x4a0c0914       0x18 arch/arm/cpu/armv7/spare_head.o
 .rel.text.sunxi_disp_get_source_ops
                0x4a0c092c       0x70 arch/arm/cpu/armv7/spare_head.o
 .rel.text.disp_ioctl
                0x4a0c099c       0x58 arch/arm/cpu/armv7/spare_head.o
 .rel.text.drv_disp_standby
                0x00000000        0x0 arch/arm/cpu/armv7/spare_head.o
 .rel.text.tasklet_init
                0x4a0c09f4        0x8 arch/arm/cpu/armv7/spare_head.o
 .rel.text.tasklet_schedule
                0x4a0c09fc        0x8 arch/arm/cpu/armv7/spare_head.o
 .rel.text.disp_fdt_init
                0x4a0c0a04       0x10 arch/arm/cpu/armv7/spare_head.o
 .rel.text.disp_fdt_nodeoffset
                0x4a0c0a14        0x8 arch/arm/cpu/armv7/spare_head.o
 .rel.text.disp_sys_script_get_item
                0x4a0c0a1c        0x8 arch/arm/cpu/armv7/spare_head.o
 .rel.text.disp_sys_pin_set_state
                0x4a0c0a24       0x40 arch/arm/cpu/armv7/spare_head.o
 .rel.text.disp_sys_power_enable
                0x4a0c0a64        0x8 arch/arm/cpu/armv7/spare_head.o
 .rel.text.disp_sys_power_disable
                0x4a0c0a6c        0x8 arch/arm/cpu/armv7/spare_head.o
 .rel.text.disp_sys_pwm_request
                0x4a0c0a74        0x8 arch/arm/cpu/armv7/spare_head.o
 .rel.text.disp_tasklet
                0x4a0c0a7c        0x8 arch/arm/cpu/armv7/spare_head.o
 .rel.text.bsp_disp_shadow_protect
                0x4a0c0a84        0x8 arch/arm/cpu/armv7/spare_head.o
 .rel.text.disp_device_attached
                0x00000000        0x0 arch/arm/cpu/armv7/spare_head.o
 .rel.text.disp_device_attached_and_enable
                0x4a0c0a8c        0x8 arch/arm/cpu/armv7/spare_head.o
 .rel.text.disp_device_detach
                0x00000000        0x0 arch/arm/cpu/armv7/spare_head.o
 .rel.text.bsp_disp_init
                0x4a0c0a94       0x18 arch/arm/cpu/armv7/spare_head.o
 .rel.text.bsp_disp_sync_with_hw
                0x00000000        0x0 arch/arm/cpu/armv7/spare_head.o
 .rel.text.bsp_disp_vsync_event_enable
                0x4a0c0aac        0x8 arch/arm/cpu/armv7/spare_head.o
 .rel.text.sync_event_proc
                0x4a0c0ab4       0x10 arch/arm/cpu/armv7/spare_head.o
 .rel.text.bsp_disp_set_print_level
                0x00000000        0x0 arch/arm/cpu/armv7/spare_head.o
 .rel.text.bsp_disp_get_print_level
                0x00000000        0x0 arch/arm/cpu/armv7/spare_head.o
 .rel.text.bsp_disp_set_hdmi_func
                0x4a0c0ac4        0x8 arch/arm/cpu/armv7/spare_head.o
 .rel.text.bsp_disp_tv_set_hpd
                0x4a0c0acc        0x8 arch/arm/cpu/armv7/spare_head.o
 .rel.text.bsp_disp_tv_register
                0x4a0c0ad4        0x8 arch/arm/cpu/armv7/spare_head.o
 .rel.text.bsp_disp_lcd_set_panel_funs
                0x4a0c0adc        0x8 arch/arm/cpu/armv7/spare_head.o
 .rel.text.bsp_disp_get_lcd_registered
                0x00000000        0x0 arch/arm/cpu/armv7/spare_head.o
 .rel.text.bsp_disp_get_hdmi_registered
                0x00000000        0x0 arch/arm/cpu/armv7/spare_head.o
 .rel.text.bsp_disp_get_tv_registered
                0x00000000        0x0 arch/arm/cpu/armv7/spare_head.o
 .rel.text.bsp_disp_get_panel_info
                0x4a0c0ae4        0x8 arch/arm/cpu/armv7/spare_head.o
 .rel.text.disp_device_set_manager
                0x4a0c0aec        0x8 arch/arm/cpu/armv7/spare_head.o
 .rel.text.disp_device_unset_manager
                0x4a0c0af4        0x8 arch/arm/cpu/armv7/spare_head.o
 .rel.text.disp_device_get_resolution
                0x4a0c0afc        0x8 arch/arm/cpu/armv7/spare_head.o
 .rel.text.disp_device_get_timings
                0x4a0c0b04        0x8 arch/arm/cpu/armv7/spare_head.o
 .rel.text.disp_device_is_interlace
                0x4a0c0b0c        0x8 arch/arm/cpu/armv7/spare_head.o
 .rel.text.disp_device_get
                0x4a0c0b14        0x8 arch/arm/cpu/armv7/spare_head.o
 .rel.text.disp_device_find
                0x4a0c0b1c        0x8 arch/arm/cpu/armv7/spare_head.o
 .rel.text.disp_device_get_list_head
                0x00000000        0x0 arch/arm/cpu/armv7/spare_head.o
 .rel.text.disp_device_register
                0x4a0c0b24        0x8 arch/arm/cpu/armv7/spare_head.o
 .rel.text.disp_lcd_get_priv
                0x4a0c0b2c        0x8 arch/arm/cpu/armv7/spare_head.o
 .rel.text.disp_lcd_bright_curve_init
                0x4a0c0b34        0x8 arch/arm/cpu/armv7/spare_head.o
 .rel.text.disp_lcd_get_close_flow
                0x4a0c0b3c       0x20 arch/arm/cpu/armv7/spare_head.o
 .rel.text.disp_lcd_get_open_flow
                0x4a0c0b5c       0x20 arch/arm/cpu/armv7/spare_head.o
 .rel.text.disp_lcd_init
                0x4a0c0b7c      0x1f8 arch/arm/cpu/armv7/spare_head.o
 .rel.text.lcd_clk_disable
                0x4a0c0d74        0x8 arch/arm/cpu/armv7/spare_head.o
 .rel.text.lcd_clk_enable
                0x4a0c0d7c       0x40 arch/arm/cpu/armv7/spare_head.o
 .rel.text.disp_lcd_set_panel_funs
                0x4a0c0dbc       0x18 arch/arm/cpu/armv7/spare_head.o
 .rel.text.disp_lcd_pin_cfg
                0x4a0c0dd4       0x30 arch/arm/cpu/armv7/spare_head.o
 .rel.text.disp_lcd_backlight_disable
                0x4a0c0e04       0x18 arch/arm/cpu/armv7/spare_head.o
 .rel.text.disp_lcd_sw_enable
                0x4a0c0e1c       0x30 arch/arm/cpu/armv7/spare_head.o
 .rel.text.disp_lcd_get_dimensions
                0x4a0c0e4c        0x8 arch/arm/cpu/armv7/spare_head.o
 .rel.text.disp_lcd_set_close_func
                0x4a0c0e54        0x8 arch/arm/cpu/armv7/spare_head.o
 .rel.text.disp_lcd_set_open_func
                0x4a0c0e5c        0x8 arch/arm/cpu/armv7/spare_head.o
 .rel.text.disp_lcd_is_enabled
                0x4a0c0e64        0x8 arch/arm/cpu/armv7/spare_head.o
 .rel.text.disp_lcd_get_bright
                0x4a0c0e6c        0x8 arch/arm/cpu/armv7/spare_head.o
 .rel.text.disp_lcd_bright_get_adjust_value
                0x4a0c0e74        0x8 arch/arm/cpu/armv7/spare_head.o
 .rel.text.disp_lcd_set_bright
                0x4a0c0e7c       0x10 arch/arm/cpu/armv7/spare_head.o
 .rel.text.disp_lcd_backlight_enable
                0x4a0c0e8c       0x20 arch/arm/cpu/armv7/spare_head.o
 .rel.text.disp_lcd_exit
                0x4a0c0eac        0x8 arch/arm/cpu/armv7/spare_head.o
 .rel.text.disp_lcd_set_bright_dimming
                0x4a0c0eb4        0x8 arch/arm/cpu/armv7/spare_head.o
 .rel.text.disp_lcd_get_status
                0x4a0c0ebc        0x8 arch/arm/cpu/armv7/spare_head.o
 .rel.text.disp_lcd_power_disable
                0x4a0c0ec4        0x8 arch/arm/cpu/armv7/spare_head.o
 .rel.text.disp_lcd_power_enable
                0x4a0c0ecc        0x8 arch/arm/cpu/armv7/spare_head.o
 .rel.text.disp_lcd_tcon_disable
                0x4a0c0ed4        0x8 arch/arm/cpu/armv7/spare_head.o
 .rel.text.disp_lcd_tcon_enable
                0x4a0c0edc        0x8 arch/arm/cpu/armv7/spare_head.o
 .rel.text.disp_lcd_pwm_disable
                0x4a0c0ee4       0x10 arch/arm/cpu/armv7/spare_head.o
 .rel.text.disp_lcd_pwm_enable
                0x4a0c0ef4       0x10 arch/arm/cpu/armv7/spare_head.o
 .rel.text.disp_lcd_get_panel_info
                0x4a0c0f04        0x8 arch/arm/cpu/armv7/spare_head.o
 .rel.text.disp_lcd_gpio_set_value
                0x4a0c0f0c       0x10 arch/arm/cpu/armv7/spare_head.o
 .rel.text.disp_lcd_gpio_set_direction
                0x4a0c0f1c       0x10 arch/arm/cpu/armv7/spare_head.o
 .rel.text.disp_get_lcd
                0x4a0c0f2c        0x8 arch/arm/cpu/armv7/spare_head.o
 .rel.text.disp_lcd_pre_disable_ex
                0x4a0c0f34       0x10 arch/arm/cpu/armv7/spare_head.o
 .rel.text.disp_lcd_post_enable_ex
                0x4a0c0f44       0x10 arch/arm/cpu/armv7/spare_head.o
 .rel.text.disp_lcd_gpio_init
                0x4a0c0f54       0x18 arch/arm/cpu/armv7/spare_head.o
 .rel.text.disp_lcd_pre_enable_ex
                0x4a0c0f6c       0x28 arch/arm/cpu/armv7/spare_head.o
 .rel.text.__disp_lcd_enable
                0x4a0c0f94       0x30 arch/arm/cpu/armv7/spare_head.o
 .rel.text.disp_lcd_gpio_exit
                0x4a0c0fc4       0x18 arch/arm/cpu/armv7/spare_head.o
 .rel.text.disp_lcd_post_disable_ex
                0x4a0c0fdc       0x18 arch/arm/cpu/armv7/spare_head.o
 .rel.text.disp_lcd_disable
                0x4a0c0ff4       0x28 arch/arm/cpu/armv7/spare_head.o
 .rel.text.disp_lcd_gpio_get_value
                0x00000000        0x0 arch/arm/cpu/armv7/spare_head.o
 .rel.text.disp_init_lcd
                0x4a0c101c      0x128 arch/arm/cpu/armv7/spare_head.o
 .rel.text.disp_lyr_get_priv
                0x4a0c1144        0x8 arch/arm/cpu/armv7/spare_head.o
 .rel.text.disp_lyr_dump
                0x4a0c114c       0xb8 arch/arm/cpu/armv7/spare_head.o
 .rel.text.disp_lyr_save_and_dirty_check
                0x4a0c1204       0x10 arch/arm/cpu/armv7/spare_head.o
 .rel.text.disp_lyr_dirty_clear
                0x4a0c1214        0x8 arch/arm/cpu/armv7/spare_head.o
 .rel.text.disp_lyr_is_dirty
                0x4a0c121c        0x8 arch/arm/cpu/armv7/spare_head.o
 .rel.text.disp_lyr_check
                0x4a0c1224        0x8 arch/arm/cpu/armv7/spare_head.o
 .rel.text.disp_lyr_apply
                0x4a0c122c        0x8 arch/arm/cpu/armv7/spare_head.o
 .rel.text.disp_lyr_force_apply
                0x4a0c1234       0x10 arch/arm/cpu/armv7/spare_head.o
 .rel.text.disp_lyr_unset_manager
                0x4a0c1244       0x10 arch/arm/cpu/armv7/spare_head.o
 .rel.text.disp_lyr_set_manager
                0x4a0c1254       0x10 arch/arm/cpu/armv7/spare_head.o
 .rel.text.disp_mgr_get_priv
                0x4a0c1264       0x10 arch/arm/cpu/armv7/spare_head.o
 .rel.text.disp_mgr_tasklet
                0x4a0c1274       0x10 arch/arm/cpu/armv7/spare_head.o
 .rel.text.disp_mgr_update_color_space
                0x4a0c1284       0x10 arch/arm/cpu/armv7/spare_head.o
 .rel.text.disp_mgr_sync
                0x4a0c1294       0x18 arch/arm/cpu/armv7/spare_head.o
 .rel.text.disp_mgr_shadow_protect
                0x4a0c12ac        0x8 arch/arm/cpu/armv7/spare_head.o
 .rel.text.disp_mgr_apply
                0x4a0c12b4       0x18 arch/arm/cpu/armv7/spare_head.o
 .rel.text.disp_mgr_dump
                0x4a0c12cc        0x8 arch/arm/cpu/armv7/spare_head.o
 .rel.text.disp_mgr_get_output_color_range
                0x4a0c12d4        0x8 arch/arm/cpu/armv7/spare_head.o
 .rel.text.disp_mgr_set_output_color_range
                0x4a0c12dc       0x10 arch/arm/cpu/armv7/spare_head.o
 .rel.text.disp_mgr_is_enabled
                0x4a0c12ec        0x8 arch/arm/cpu/armv7/spare_head.o
 .rel.text.disp_lyr_get_config
                0x4a0c12f4       0x10 arch/arm/cpu/armv7/spare_head.o
 .rel.text.disp_mgr_get_back_color
                0x4a0c1304       0x10 arch/arm/cpu/armv7/spare_head.o
 .rel.text.disp_mgr_set_back_color
                0x4a0c1314       0x10 arch/arm/cpu/armv7/spare_head.o
 .rel.text.disp_mgr_get_color_key
                0x4a0c1324       0x10 arch/arm/cpu/armv7/spare_head.o
 .rel.text.disp_mgr_set_color_key
                0x4a0c1334       0x10 arch/arm/cpu/armv7/spare_head.o
 .rel.text.disp_mgr_update_regs
                0x4a0c1344       0x10 arch/arm/cpu/armv7/spare_head.o
 .rel.text.disp_mgr_force_apply
                0x4a0c1354       0x10 arch/arm/cpu/armv7/spare_head.o
 .rel.text.disp_mgr_sw_enable
                0x4a0c1364       0x10 arch/arm/cpu/armv7/spare_head.o
 .rel.text.disp_mgr_disable
                0x4a0c1374       0x10 arch/arm/cpu/armv7/spare_head.o
 .rel.text.disp_mgr_enable
                0x4a0c1384       0x18 arch/arm/cpu/armv7/spare_head.o
 .rel.text.disp_mgr_exit
                0x4a0c139c        0x8 arch/arm/cpu/armv7/spare_head.o
 .rel.text.disp_mgr_init
                0x4a0c13a4        0x8 arch/arm/cpu/armv7/spare_head.o
 .rel.text.disp_mgr_blank
                0x4a0c13ac       0x10 arch/arm/cpu/armv7/spare_head.o
 .rel.text.disp_get_layer
                0x4a0c13bc       0x20 arch/arm/cpu/armv7/spare_head.o
 .rel.text.disp_mgr_get_layer_config
                0x4a0c13dc       0x10 arch/arm/cpu/armv7/spare_head.o
 .rel.text.disp_mgr_set_layer_config
                0x4a0c13ec       0x10 arch/arm/cpu/armv7/spare_head.o
 .rel.text.disp_get_layer_1
                0x4a0c13fc       0x20 arch/arm/cpu/armv7/spare_head.o
 .rel.text.disp_get_layer_manager
                0x4a0c141c       0x10 arch/arm/cpu/armv7/spare_head.o
 .rel.text.disp_init_mgr
                0x4a0c142c      0x168 arch/arm/cpu/armv7/spare_head.o
 .rel.text.dump_layer_config
                0x00000000        0x0 arch/arm/cpu/armv7/spare_head.o
 .rel.text.disp_smbl_get_priv
                0x4a0c1594        0x8 arch/arm/cpu/armv7/spare_head.o
 .rel.text.disp_smbl_dump
                0x4a0c159c       0x18 arch/arm/cpu/armv7/spare_head.o
 .rel.text.disp_smbl_update_regs
                0x4a0c15b4        0x8 arch/arm/cpu/armv7/spare_head.o
 .rel.text.disp_get_smbl
                0x4a0c15bc       0x10 arch/arm/cpu/armv7/spare_head.o
 .rel.text.disp_smbl_apply
                0x4a0c15cc        0x8 arch/arm/cpu/armv7/spare_head.o
 .rel.text.disp_init_smbl
                0x4a0c15d4       0xb8 arch/arm/cpu/armv7/spare_head.o
 .rel.text.disp_enhance_get_priv
                0x4a0c168c        0x8 arch/arm/cpu/armv7/spare_head.o
 .rel.text.disp_enhance_set_manager
                0x4a0c1694        0x8 arch/arm/cpu/armv7/spare_head.o
 .rel.text.disp_enhance_unset_manager
                0x4a0c169c        0x8 arch/arm/cpu/armv7/spare_head.o
 .rel.text.disp_enhance_dump
                0x4a0c16a4       0x28 arch/arm/cpu/armv7/spare_head.o
 .rel.text.disp_enhance_update_regs
                0x4a0c16cc        0x8 arch/arm/cpu/armv7/spare_head.o
 .rel.text.disp_enhance_apply
                0x4a0c16d4        0x8 arch/arm/cpu/armv7/spare_head.o
 .rel.text.disp_enhance_set_mode
                0x4a0c16dc        0x8 arch/arm/cpu/armv7/spare_head.o
 .rel.text.disp_enhance_demo_disable
                0x4a0c16e4        0x8 arch/arm/cpu/armv7/spare_head.o
 .rel.text.disp_enhance_demo_enable
                0x4a0c16ec        0x8 arch/arm/cpu/armv7/spare_head.o
 .rel.text.disp_enhance_disable
                0x4a0c16f4        0x8 arch/arm/cpu/armv7/spare_head.o
 .rel.text.disp_enhance_enable
                0x4a0c16fc        0x8 arch/arm/cpu/armv7/spare_head.o
 .rel.text.disp_enhance_set_para
                0x4a0c1704        0x8 arch/arm/cpu/armv7/spare_head.o
 .rel.text.disp_enhance_force_apply
                0x4a0c170c        0x8 arch/arm/cpu/armv7/spare_head.o
 .rel.text.disp_get_enhance
                0x4a0c1714       0x10 arch/arm/cpu/armv7/spare_head.o
 .rel.text.disp_init_enhance
                0x4a0c1724       0xc8 arch/arm/cpu/armv7/spare_head.o
 .rel.text.disp_hdmi_get_priv
                0x4a0c17ec        0x8 arch/arm/cpu/armv7/spare_head.o
 .rel.text.disp_hdmi_set_detect
                0x4a0c17f4       0x18 arch/arm/cpu/armv7/spare_head.o
 .rel.text.disp_hdmi_disable
                0x4a0c180c       0x38 arch/arm/cpu/armv7/spare_head.o
 .rel.text.disp_hdmi_sw_enable
                0x4a0c1844       0x38 arch/arm/cpu/armv7/spare_head.o
 .rel.text.disp_hdmi_enable
                0x4a0c187c       0x58 arch/arm/cpu/armv7/spare_head.o
 .rel.text.disp_hdmi_get_edid
                0x4a0c18d4        0x8 arch/arm/cpu/armv7/spare_head.o
 .rel.text.disp_hdmi_detect
                0x4a0c18dc        0x8 arch/arm/cpu/armv7/spare_head.o
 .rel.text.disp_hdmi_get_input_csc
                0x4a0c18e4        0x8 arch/arm/cpu/armv7/spare_head.o
 .rel.text.disp_hdmi_get_input_color_range
                0x4a0c18ec        0x8 arch/arm/cpu/armv7/spare_head.o
 .rel.text.disp_hdmi_check_support_mode
                0x4a0c18f4        0x8 arch/arm/cpu/armv7/spare_head.o
 .rel.text.disp_hdmi_get_mode
                0x4a0c18fc        0x8 arch/arm/cpu/armv7/spare_head.o
 .rel.text.disp_hdmi_is_enabled
                0x4a0c1904        0x8 arch/arm/cpu/armv7/spare_head.o
 .rel.text.disp_hdmi_exit
                0x4a0c190c       0x10 arch/arm/cpu/armv7/spare_head.o
 .rel.text.disp_hdmi_init
                0x4a0c191c       0x10 arch/arm/cpu/armv7/spare_head.o
 .rel.text.disp_hdmi_set_mode
                0x4a0c192c       0x10 arch/arm/cpu/armv7/spare_head.o
 .rel.text.disp_hdmi_get_status
                0x4a0c193c        0x8 arch/arm/cpu/armv7/spare_head.o
 .rel.text.disp_hdmi_resume
                0x4a0c1944       0x10 arch/arm/cpu/armv7/spare_head.o
 .rel.text.disp_hdmi_suspend
                0x4a0c1954       0x10 arch/arm/cpu/armv7/spare_head.o
 .rel.text.disp_hdmi_set_func
                0x4a0c1964        0x8 arch/arm/cpu/armv7/spare_head.o
 .rel.text.disp_get_hdmi
                0x00000000        0x0 arch/arm/cpu/armv7/spare_head.o
 .rel.text.disp_init_hdmi
                0x4a0c196c       0xf0 arch/arm/cpu/armv7/spare_head.o
 .rel.text.disp_tv_get_priv
                0x4a0c1a5c        0x8 arch/arm/cpu/armv7/spare_head.o
 .rel.text.disp_tv_set_func
                0x4a0c1a64       0x10 arch/arm/cpu/armv7/spare_head.o
 .rel.text.disp_tv_sw_enable
                0x4a0c1a74       0x48 arch/arm/cpu/armv7/spare_head.o
 .rel.text.disp_tv_enable
                0x4a0c1abc       0x58 arch/arm/cpu/armv7/spare_head.o
 .rel.text.disp_tv_init
                0x4a0c1b14        0x8 arch/arm/cpu/armv7/spare_head.o
 .rel.text.disp_set_enhance_mode
                0x4a0c1b1c       0x10 arch/arm/cpu/armv7/spare_head.o
 .rel.text.disp_tv_check_support_mode
                0x4a0c1b2c        0x8 arch/arm/cpu/armv7/spare_head.o
 .rel.text.disp_tv_detect
                0x4a0c1b34        0x8 arch/arm/cpu/armv7/spare_head.o
 .rel.text.disp_tv_get_input_csc
                0x4a0c1b3c        0x8 arch/arm/cpu/armv7/spare_head.o
 .rel.text.disp_tv_get_mode
                0x4a0c1b44       0x10 arch/arm/cpu/armv7/spare_head.o
 .rel.text.disp_tv_set_mode
                0x4a0c1b54       0x10 arch/arm/cpu/armv7/spare_head.o
 .rel.text.disp_tv_resume
                0x4a0c1b64        0x8 arch/arm/cpu/armv7/spare_head.o
 .rel.text.disp_tv_suspend
                0x4a0c1b6c        0x8 arch/arm/cpu/armv7/spare_head.o
 .rel.text.disp_tv_is_enabled
                0x4a0c1b74        0x8 arch/arm/cpu/armv7/spare_head.o
 .rel.text.disp_tv_event_proc
                0x4a0c1b7c        0x8 arch/arm/cpu/armv7/spare_head.o
 .rel.text.disp_init_tv_para
                0x4a0c1b84       0x10 arch/arm/cpu/armv7/spare_head.o
 .rel.text.disp_tv_set_hpd
                0x4a0c1b94        0x8 arch/arm/cpu/armv7/spare_head.o
 .rel.text.disp_tv_disable
                0x4a0c1b9c       0x38 arch/arm/cpu/armv7/spare_head.o
 .rel.text.disp_tv_exit
                0x4a0c1bd4        0x8 arch/arm/cpu/armv7/spare_head.o
 .rel.text.disp_init_tv
                0x4a0c1bdc       0xf8 arch/arm/cpu/armv7/spare_head.o
 .rel.text.disp_vdevice_get_priv
                0x00000000        0x0 arch/arm/cpu/armv7/spare_head.o
 .rel.text.disp_vdevice_tcon_simple_enable
                0x00000000        0x0 arch/arm/cpu/armv7/spare_head.o
 .rel.text.disp_vdevice_tcon_disable
                0x00000000        0x0 arch/arm/cpu/armv7/spare_head.o
 .rel.text.disp_vdevice_tcon_enable
                0x00000000        0x0 arch/arm/cpu/armv7/spare_head.o
 .rel.text.disp_vdevice_sw_enable
                0x00000000        0x0 arch/arm/cpu/armv7/spare_head.o
 .rel.text.disp_vdevice_detect
                0x00000000        0x0 arch/arm/cpu/armv7/spare_head.o
 .rel.text.disp_vdevice_get_input_color_range
                0x00000000        0x0 arch/arm/cpu/armv7/spare_head.o
 .rel.text.disp_vdevice_get_input_csc
                0x00000000        0x0 arch/arm/cpu/armv7/spare_head.o
 .rel.text.disp_vdevice_check_support_mode
                0x00000000        0x0 arch/arm/cpu/armv7/spare_head.o
 .rel.text.disp_vdevice_get_mode
                0x00000000        0x0 arch/arm/cpu/armv7/spare_head.o
 .rel.text.disp_vdevice_set_mode
                0x00000000        0x0 arch/arm/cpu/armv7/spare_head.o
 .rel.text.disp_vdevice_is_enabled
                0x00000000        0x0 arch/arm/cpu/armv7/spare_head.o
 .rel.text.disp_vdevice_tcon_simple_disable
                0x00000000        0x0 arch/arm/cpu/armv7/spare_head.o
 .rel.text.disp_vdevice_resume
                0x00000000        0x0 arch/arm/cpu/armv7/spare_head.o
 .rel.text.disp_vdevice_suspend
                0x00000000        0x0 arch/arm/cpu/armv7/spare_head.o
 .rel.text.disp_vdevice_disable
                0x00000000        0x0 arch/arm/cpu/armv7/spare_head.o
 .rel.text.disp_vdevice_enable
                0x00000000        0x0 arch/arm/cpu/armv7/spare_head.o
 .rel.text.disp_vdevice_exit
                0x00000000        0x0 arch/arm/cpu/armv7/spare_head.o
 .rel.text.disp_vdevice_init
                0x00000000        0x0 arch/arm/cpu/armv7/spare_head.o
 .rel.text.disp_vdevice_register
                0x00000000        0x0 arch/arm/cpu/armv7/spare_head.o
 .rel.text.disp_vdevice_unregister
                0x00000000        0x0 arch/arm/cpu/armv7/spare_head.o
 .rel.text.disp_vdevice_get_source_ops
                0x00000000        0x0 arch/arm/cpu/armv7/spare_head.o
 .rel.text.lcd_init
                0x4a0c1cd4       0x10 arch/arm/cpu/armv7/spare_head.o
 .rel.text.sunxi_lcd_delay_ms
                0x4a0c1ce4        0x8 arch/arm/cpu/armv7/spare_head.o
 .rel.text.sunxi_lcd_delay_us
                0x4a0c1cec        0x8 arch/arm/cpu/armv7/spare_head.o
 .rel.text.sunxi_lcd_tcon_enable
                0x4a0c1cf4        0x8 arch/arm/cpu/armv7/spare_head.o
 .rel.text.sunxi_lcd_tcon_disable
                0x4a0c1cfc        0x8 arch/arm/cpu/armv7/spare_head.o
 .rel.text.sunxi_lcd_backlight_enable
                0x4a0c1d04        0x8 arch/arm/cpu/armv7/spare_head.o
 .rel.text.sunxi_lcd_backlight_disable
                0x4a0c1d0c        0x8 arch/arm/cpu/armv7/spare_head.o
 .rel.text.sunxi_lcd_power_enable
                0x4a0c1d14        0x8 arch/arm/cpu/armv7/spare_head.o
 .rel.text.sunxi_lcd_power_disable
                0x4a0c1d1c        0x8 arch/arm/cpu/armv7/spare_head.o
 .rel.text.sunxi_lcd_pwm_enable
                0x4a0c1d24        0x8 arch/arm/cpu/armv7/spare_head.o
 .rel.text.sunxi_lcd_pwm_disable
                0x4a0c1d2c        0x8 arch/arm/cpu/armv7/spare_head.o
 .rel.text.sunxi_lcd_cpu_write
                0x00000000        0x0 arch/arm/cpu/armv7/spare_head.o
 .rel.text.sunxi_lcd_cpu_write_index
                0x00000000        0x0 arch/arm/cpu/armv7/spare_head.o
 .rel.text.sunxi_lcd_cpu_write_data
                0x00000000        0x0 arch/arm/cpu/armv7/spare_head.o
 .rel.text.sunxi_lcd_dsi_dcs_write
                0x4a0c1d34        0x8 arch/arm/cpu/armv7/spare_head.o
 .rel.text.sunxi_lcd_dsi_gen_write
                0x4a0c1d3c        0x8 arch/arm/cpu/armv7/spare_head.o
 .rel.text.sunxi_lcd_dsi_clk_enable
                0x4a0c1d44        0x8 arch/arm/cpu/armv7/spare_head.o
 .rel.text.sunxi_lcd_dsi_clk_disable
                0x4a0c1d4c        0x8 arch/arm/cpu/armv7/spare_head.o
 .rel.text.sunxi_lcd_set_panel_funs
                0x4a0c1d54        0x8 arch/arm/cpu/armv7/spare_head.o
 .rel.text.sunxi_lcd_pin_cfg
                0x4a0c1d5c        0x8 arch/arm/cpu/armv7/spare_head.o
 .rel.text.sunxi_lcd_gpio_set_value
                0x4a0c1d64        0x8 arch/arm/cpu/armv7/spare_head.o
 .rel.text.sunxi_lcd_gpio_set_direction
                0x00000000        0x0 arch/arm/cpu/armv7/spare_head.o
 .rel.text.LCD_panel_init
                0x4a0c1d6c       0x20 arch/arm/cpu/armv7/spare_head.o
 .rel.text.LCD_close_flow
                0x4a0c1d8c      0x100 arch/arm/cpu/armv7/spare_head.o
 .rel.text.LCD_open_flow
                0x4a0c1e8c      0x100 arch/arm/cpu/armv7/spare_head.o
 .rel.text.LCD_cfg_panel_info
                0x4a0c1f8c       0x80 arch/arm/cpu/armv7/spare_head.o
 .rel.text.lcd_close_flow
                0x4a0c200c       0x20 arch/arm/cpu/armv7/spare_head.o
 .rel.text.lcd_open_flow
                0x4a0c202c       0x20 arch/arm/cpu/armv7/spare_head.o
 .rel.text.lcd_panel_init
                0x4a0c204c        0x8 arch/arm/cpu/armv7/spare_head.o
 .rel.text.lcd_cfg_panel_info
                0x4a0c2054       0x10 arch/arm/cpu/armv7/spare_head.o
 .rel.text.de_gsu_init
                0x4a0c2064       0x30 arch/arm/cpu/armv7/spare_head.o
 .rel.text.de_gsu_update_regs
                0x4a0c2094       0x20 arch/arm/cpu/armv7/spare_head.o
 .rel.text.de_gsu_set_reg_base
                0x00000000        0x0 arch/arm/cpu/armv7/spare_head.o
 .rel.text.de_gsu_enable
                0x00000000        0x0 arch/arm/cpu/armv7/spare_head.o
 .rel.text.de_gsu_set_para
                0x4a0c20b4       0x38 arch/arm/cpu/armv7/spare_head.o
 .rel.text.de_update_device_fps
                0x4a0c20ec        0x8 arch/arm/cpu/armv7/spare_head.o
 .rel.text.de_update_clk_rate
                0x4a0c20f4        0x8 arch/arm/cpu/armv7/spare_head.o
 .rel.text.de_get_clk_rate
                0x4a0c20fc        0x8 arch/arm/cpu/armv7/spare_head.o
 .rel.text.de_al_lyr_apply
                0x4a0c2104       0x40 arch/arm/cpu/armv7/spare_head.o
 .rel.text.de_al_mgr_apply
                0x4a0c2144        0x8 arch/arm/cpu/armv7/spare_head.o
 .rel.text.disp_al_manager_apply
                0x4a0c214c        0x8 arch/arm/cpu/armv7/spare_head.o
 .rel.text.disp_al_lcd_get_clk_info
                0x4a0c2154       0x20 arch/arm/cpu/armv7/spare_head.o
 .rel.text.disp_al_lcd_cfg
                0x4a0c2174       0x10 arch/arm/cpu/armv7/spare_head.o
 .rel.text.disp_al_lcd_disable
                0x4a0c2184        0x8 arch/arm/cpu/armv7/spare_head.o
 .rel.text.disp_al_lcd_query_irq
                0x4a0c218c        0x8 arch/arm/cpu/armv7/spare_head.o
 .rel.text.disp_al_lcd_enable_irq
                0x4a0c2194        0x8 arch/arm/cpu/armv7/spare_head.o
 .rel.text.disp_al_lcd_disable_irq
                0x4a0c219c        0x8 arch/arm/cpu/armv7/spare_head.o
 .rel.text.disp_al_lcd_get_cur_line
                0x4a0c21a4        0x8 arch/arm/cpu/armv7/spare_head.o
 .rel.text.disp_al_lcd_get_start_delay
                0x4a0c21ac        0x8 arch/arm/cpu/armv7/spare_head.o
 .rel.text.disp_al_hdmi_disable
                0x4a0c21b4        0x8 arch/arm/cpu/armv7/spare_head.o
 .rel.text.disp_al_hdmi_cfg
                0x4a0c21bc        0x8 arch/arm/cpu/armv7/spare_head.o
 .rel.text.disp_al_tv_disable
                0x4a0c21c4        0x8 arch/arm/cpu/armv7/spare_head.o
 .rel.text.disp_al_tv_cfg
                0x4a0c21cc        0x8 arch/arm/cpu/armv7/spare_head.o
 .rel.text.disp_al_vdevice_cfg
                0x00000000        0x0 arch/arm/cpu/armv7/spare_head.o
 .rel.text.disp_al_vdevice_disable
                0x00000000        0x0 arch/arm/cpu/armv7/spare_head.o
 .rel.text.disp_al_device_get_cur_line
                0x4a0c21d4        0x8 arch/arm/cpu/armv7/spare_head.o
 .rel.text.disp_al_device_get_start_delay
                0x4a0c21dc        0x8 arch/arm/cpu/armv7/spare_head.o
 .rel.text.disp_al_device_query_irq
                0x4a0c21e4        0x8 arch/arm/cpu/armv7/spare_head.o
 .rel.text.disp_al_device_enable_irq
                0x00000000        0x0 arch/arm/cpu/armv7/spare_head.o
 .rel.text.disp_al_device_disable_irq
                0x00000000        0x0 arch/arm/cpu/armv7/spare_head.o
 .rel.text.disp_al_device_get_status
                0x4a0c21ec        0x8 arch/arm/cpu/armv7/spare_head.o
 .rel.text.disp_init_al
                0x4a0c21f4        0x8 arch/arm/cpu/armv7/spare_head.o
 .rel.text.disp_al_get_display_size
                0x00000000        0x0 arch/arm/cpu/armv7/spare_head.o
 .rel.text.de_rtmx_update_regs
                0x4a0c21fc       0x60 arch/arm/cpu/armv7/spare_head.o
 .rel.text.de_rtmx_set_gld_reg_base
                0x00000000        0x0 arch/arm/cpu/armv7/spare_head.o
 .rel.text.de_rtmx_set_bld_reg_base
                0x00000000        0x0 arch/arm/cpu/armv7/spare_head.o
 .rel.text.de_rtmx_set_overlay_reg_base
                0x4a0c225c        0x8 arch/arm/cpu/armv7/spare_head.o
 .rel.text.de_rtmx_init
                0x4a0c2264       0x98 arch/arm/cpu/armv7/spare_head.o
 .rel.text.de_rtmx_set_display_size
                0x4a0c22fc       0x10 arch/arm/cpu/armv7/spare_head.o
 .rel.text.de_rtmx_set_dbuff_rdy
                0x4a0c230c       0x10 arch/arm/cpu/armv7/spare_head.o
 .rel.text.de_rtmx_set_enable
                0x4a0c231c       0x68 arch/arm/cpu/armv7/spare_head.o
 .rel.text.de_rtmx_query_irq
                0x00000000        0x0 arch/arm/cpu/armv7/spare_head.o
 .rel.text.de_rtmx_enable_irq
                0x00000000        0x0 arch/arm/cpu/armv7/spare_head.o
 .rel.text.de_rtmx_set_lay_cfg
                0x4a0c2384       0x18 arch/arm/cpu/armv7/spare_head.o
 .rel.text.de_rtmx_set_lay_haddr
                0x4a0c239c       0x20 arch/arm/cpu/armv7/spare_head.o
 .rel.text.de_rtmx_set_lay_laddr
                0x4a0c23bc       0x18 arch/arm/cpu/armv7/spare_head.o
 .rel.text.de_rtmx_get_3d_out
                0x4a0c23d4       0x50 arch/arm/cpu/armv7/spare_head.o
 .rel.text.de_rtmx_set_lay_fcolor
                0x4a0c2424       0x18 arch/arm/cpu/armv7/spare_head.o
 .rel.text.de_rtmx_set_overlay_size
                0x4a0c243c       0x18 arch/arm/cpu/armv7/spare_head.o
 .rel.text.de_rtmx_set_coarse_fac
                0x4a0c2454       0x18 arch/arm/cpu/armv7/spare_head.o
 .rel.text.de_rtmx_set_pf_en
                0x4a0c246c       0x10 arch/arm/cpu/armv7/spare_head.o
 .rel.text.de_rtmx_set_pipe_cfg
                0x4a0c247c       0x10 arch/arm/cpu/armv7/spare_head.o
 .rel.text.de_rtmx_set_route
                0x4a0c248c       0x10 arch/arm/cpu/armv7/spare_head.o
 .rel.text.de_rtmx_set_premul
                0x4a0c249c       0x10 arch/arm/cpu/armv7/spare_head.o
 .rel.text.de_rtmx_set_background_color
                0x4a0c24ac       0x10 arch/arm/cpu/armv7/spare_head.o
 .rel.text.de_rtmx_set_blend_size
                0x4a0c24bc       0x10 arch/arm/cpu/armv7/spare_head.o
 .rel.text.de_rtmx_set_blend_mode
                0x4a0c24cc       0x10 arch/arm/cpu/armv7/spare_head.o
 .rel.text.de_rtmx_set_blend_color
                0x00000000        0x0 arch/arm/cpu/armv7/spare_head.o
 .rel.text.de_rtmx_set_outitl
                0x4a0c24dc       0x10 arch/arm/cpu/armv7/spare_head.o
 .rel.text.de_rtmx_set_colorkey
                0x00000000        0x0 arch/arm/cpu/armv7/spare_head.o
 .rel.text.de_rtmx_mux
                0x4a0c24ec        0x8 arch/arm/cpu/armv7/spare_head.o
 .rel.text.de_rtmx_get_mux
                0x4a0c24f4        0x8 arch/arm/cpu/armv7/spare_head.o
 .rel.text.de_rtmx_sync_hw
                0x4a0c24fc       0x60 arch/arm/cpu/armv7/spare_head.o
 .rel.text.de_rtmx_get_lay_enabled
                0x00000000        0x0 arch/arm/cpu/armv7/spare_head.o
 .rel.text.de_rtmx_get_lay_address
                0x00000000        0x0 arch/arm/cpu/armv7/spare_head.o
 .rel.text.de_rtmx_get_lay_size
                0x00000000        0x0 arch/arm/cpu/armv7/spare_head.o
 .rel.text.de_rtmx_get_lay_win
                0x00000000        0x0 arch/arm/cpu/armv7/spare_head.o
 .rel.text.de_rtmx_get_display_size
                0x4a0c255c        0x8 arch/arm/cpu/armv7/spare_head.o
 .rel.text.de_rtmx_get_lay_format
                0x00000000        0x0 arch/arm/cpu/armv7/spare_head.o
 .rel.text.de_vsu_update_regs
                0x4a0c2564       0x50 arch/arm/cpu/armv7/spare_head.o
 .rel.text.de_vsu_init
                0x4a0c25b4       0x60 arch/arm/cpu/armv7/spare_head.o
 .rel.text.de_vsu_set_reg_base
                0x00000000        0x0 arch/arm/cpu/armv7/spare_head.o
 .rel.text.de_vsu_enable
                0x00000000        0x0 arch/arm/cpu/armv7/spare_head.o
 .rel.text.de_vsu_set_para
                0x4a0c2614       0x68 arch/arm/cpu/armv7/spare_head.o
 .rel.text.de_vsu_calc_scaler_para
                0x4a0c267c        0x8 arch/arm/cpu/armv7/spare_head.o
 .rel.text.de_feat_get_num_screens
                0x4a0c2684        0x8 arch/arm/cpu/armv7/spare_head.o
 .rel.text.de_feat_get_num_devices
                0x4a0c268c        0x8 arch/arm/cpu/armv7/spare_head.o
 .rel.text.de_feat_get_num_chns
                0x4a0c2694        0x8 arch/arm/cpu/armv7/spare_head.o
 .rel.text.de_feat_get_num_vi_chns
                0x4a0c269c        0x8 arch/arm/cpu/armv7/spare_head.o
 .rel.text.de_feat_get_num_ui_chns
                0x4a0c26a4        0x8 arch/arm/cpu/armv7/spare_head.o
 .rel.text.de_feat_get_num_layers
                0x4a0c26ac        0x8 arch/arm/cpu/armv7/spare_head.o
 .rel.text.de_feat_get_num_layers_by_chn
                0x4a0c26b4        0x8 arch/arm/cpu/armv7/spare_head.o
 .rel.text.de_feat_is_support_vep
                0x00000000        0x0 arch/arm/cpu/armv7/spare_head.o
 .rel.text.de_feat_is_support_vep_by_chn
                0x4a0c26bc        0x8 arch/arm/cpu/armv7/spare_head.o
 .rel.text.de_feat_is_support_smbl
                0x4a0c26c4        0x8 arch/arm/cpu/armv7/spare_head.o
 .rel.text.de_feat_is_supported_output_types
                0x4a0c26cc        0x8 arch/arm/cpu/armv7/spare_head.o
 .rel.text.de_feat_is_support_wb
                0x00000000        0x0 arch/arm/cpu/armv7/spare_head.o
 .rel.text.de_feat_is_support_scale
                0x4a0c26d4        0x8 arch/arm/cpu/armv7/spare_head.o
 .rel.text.de_feat_is_support_scale_by_chn
                0x00000000        0x0 arch/arm/cpu/armv7/spare_head.o
 .rel.text.de_feat_get_scale_linebuf
                0x4a0c26dc        0x8 arch/arm/cpu/armv7/spare_head.o
 .rel.text.de_feat_init
                0x4a0c26e4       0x10 arch/arm/cpu/armv7/spare_head.o
 .rel.text.tcon0_cfg_mode_auto
                0x4a0c26f4        0x8 arch/arm/cpu/armv7/spare_head.o
 .rel.text.tcon0_cfg_mode_tri
                0x4a0c26fc        0x8 arch/arm/cpu/armv7/spare_head.o
 .rel.text.tcon_ceu_calc.constprop.1
                0x00000000        0x0 arch/arm/cpu/armv7/spare_head.o
 .rel.text.lvds_open
                0x4a0c2704        0x8 arch/arm/cpu/armv7/spare_head.o
 .rel.text.lvds_close
                0x4a0c270c        0x8 arch/arm/cpu/armv7/spare_head.o
 .rel.text.tcon_get_cur_field
                0x00000000        0x0 arch/arm/cpu/armv7/spare_head.o
 .rel.text.tcon_get_timing
                0x00000000        0x0 arch/arm/cpu/armv7/spare_head.o
 .rel.text.tcon_set_reg_base
                0x4a0c2714        0x8 arch/arm/cpu/armv7/spare_head.o
 .rel.text.tcon_get_reg_base
                0x00000000        0x0 arch/arm/cpu/armv7/spare_head.o
 .rel.text.tcon_init
                0x4a0c271c        0x8 arch/arm/cpu/armv7/spare_head.o
 .rel.text.tcon_exit
                0x4a0c2724        0x8 arch/arm/cpu/armv7/spare_head.o
 .rel.text.tcon_irq_enable
                0x4a0c272c        0x8 arch/arm/cpu/armv7/spare_head.o
 .rel.text.tcon_irq_disable
                0x4a0c2734        0x8 arch/arm/cpu/armv7/spare_head.o
 .rel.text.tcon_irq_query
                0x4a0c273c        0x8 arch/arm/cpu/armv7/spare_head.o
 .rel.text.tcon_get_start_delay
                0x4a0c2744        0x8 arch/arm/cpu/armv7/spare_head.o
 .rel.text.tcon_get_cur_line
                0x4a0c274c        0x8 arch/arm/cpu/armv7/spare_head.o
 .rel.text.tcon_get_status
                0x4a0c2754        0x8 arch/arm/cpu/armv7/spare_head.o
 .rel.text.tcon0_src_select
                0x4a0c275c        0x8 arch/arm/cpu/armv7/spare_head.o
 .rel.text.tcon0_src_get
                0x00000000        0x0 arch/arm/cpu/armv7/spare_head.o
 .rel.text.tcon0_open
                0x4a0c2764        0x8 arch/arm/cpu/armv7/spare_head.o
 .rel.text.tcon0_close
                0x4a0c276c        0x8 arch/arm/cpu/armv7/spare_head.o
 .rel.text.tcon0_tri_busy
                0x00000000        0x0 arch/arm/cpu/armv7/spare_head.o
 .rel.text.tcon0_cpu_set_auto_mode
                0x00000000        0x0 arch/arm/cpu/armv7/spare_head.o
 .rel.text.tcon0_tri_start
                0x00000000        0x0 arch/arm/cpu/armv7/spare_head.o
 .rel.text.tcon0_frm
                0x4a0c2774        0x8 arch/arm/cpu/armv7/spare_head.o
 .rel.text.tcon0_cfg
                0x4a0c277c       0x28 arch/arm/cpu/armv7/spare_head.o
 .rel.text.tcon0_cpu_busy
                0x00000000        0x0 arch/arm/cpu/armv7/spare_head.o
 .rel.text.tcon0_cpu_wr_24b_index
                0x00000000        0x0 arch/arm/cpu/armv7/spare_head.o
 .rel.text.tcon0_cpu_wr_24b_data
                0x00000000        0x0 arch/arm/cpu/armv7/spare_head.o
 .rel.text.tcon0_cpu_rd_24b_data
                0x00000000        0x0 arch/arm/cpu/armv7/spare_head.o
 .rel.text.tcon0_set_dclk_div
                0x4a0c27a4        0x8 arch/arm/cpu/armv7/spare_head.o
 .rel.text.tcon0_get_dclk_div
                0x00000000        0x0 arch/arm/cpu/armv7/spare_head.o
 .rel.text.tcon1_open
                0x4a0c27ac        0x8 arch/arm/cpu/armv7/spare_head.o
 .rel.text.tcon1_close
                0x4a0c27b4        0x8 arch/arm/cpu/armv7/spare_head.o
 .rel.text.tcon1_cfg
                0x4a0c27bc        0x8 arch/arm/cpu/armv7/spare_head.o
 .rel.text.tcon1_hdmi_color_remap
                0x4a0c27c4        0x8 arch/arm/cpu/armv7/spare_head.o
 .rel.text.tcon1_yuv_range
                0x4a0c27cc        0x8 arch/arm/cpu/armv7/spare_head.o
 .rel.text.tcon1_set_timming
                0x4a0c27d4        0x8 arch/arm/cpu/armv7/spare_head.o
 .rel.text.tcon1_src_select
                0x4a0c27dc        0x8 arch/arm/cpu/armv7/spare_head.o
 .rel.text.tcon1_src_get
                0x00000000        0x0 arch/arm/cpu/armv7/spare_head.o
 .rel.text.tcon_ceu
                0x00000000        0x0 arch/arm/cpu/armv7/spare_head.o
 .rel.text.tcon_gamma
                0x4a0c27e4        0x8 arch/arm/cpu/armv7/spare_head.o
 .rel.text.tcon_cmap
                0x4a0c27ec        0x8 arch/arm/cpu/armv7/spare_head.o
 .rel.text.de_ccsc_update_regs
                0x4a0c27f4       0x20 arch/arm/cpu/armv7/spare_head.o
 .rel.text.de_ccsc_init
                0x4a0c2814       0x40 arch/arm/cpu/armv7/spare_head.o
 .rel.text.de_csc_coeff_calc
                0x4a0c2854       0x70 arch/arm/cpu/armv7/spare_head.o
 .rel.text.de_ccsc_apply
                0x4a0c28c4       0x28 arch/arm/cpu/armv7/spare_head.o
 .rel.text.de_dcsc_apply
                0x4a0c28ec       0x38 arch/arm/cpu/armv7/spare_head.o
 .rel.text.de_dcsc_get_config
                0x4a0c2924        0x8 arch/arm/cpu/armv7/spare_head.o
 .rel.text.de_dcsc_update_regs
                0x4a0c292c       0x18 arch/arm/cpu/armv7/spare_head.o
 .rel.text.de_dcsc_init
                0x4a0c2944       0x38 arch/arm/cpu/armv7/spare_head.o
 .rel.text.de_clk_enable
                0x4a0c297c       0x18 arch/arm/cpu/armv7/spare_head.o
 .rel.text.de_clk_disable
                0x4a0c2994       0x10 arch/arm/cpu/armv7/spare_head.o
 .rel.text.de_clk_set_reg_base
                0x4a0c29a4        0x8 arch/arm/cpu/armv7/spare_head.o
 .rel.text.hdmi_clk_disable
                0x4a0c29ac       0x10 arch/arm/cpu/armv7/spare_head.o
 .rel.text.hdmi_get_video_timming_info
                0x4a0c29bc       0x10 arch/arm/cpu/armv7/spare_head.o
 .rel.text.hdmi_mode_support
                0x4a0c29cc        0x8 arch/arm/cpu/armv7/spare_head.o
 .rel.text.hdmi_disable
                0x4a0c29d4       0x10 arch/arm/cpu/armv7/spare_head.o
 .rel.text.hdmi_enable
                0x4a0c29e4       0x20 arch/arm/cpu/armv7/spare_head.o
 .rel.text.hdmi_set_display_mode
                0x4a0c2a04       0x18 arch/arm/cpu/armv7/spare_head.o
 .rel.text.hdmi_get_vic
                0x00000000        0x0 arch/arm/cpu/armv7/spare_head.o
 .rel.text.hdmi_init
                0x4a0c2a1c      0x140 arch/arm/cpu/armv7/spare_head.o
 .rel.text.hdmi_exit
                0x00000000        0x0 arch/arm/cpu/armv7/spare_head.o
 .rel.text.hdmi_core_initial
                0x4a0c2b5c       0x58 arch/arm/cpu/armv7/spare_head.o
 .rel.text.hdmi_core_exit
                0x00000000        0x0 arch/arm/cpu/armv7/spare_head.o
 .rel.text.hdmi_core_hpd_check
                0x4a0c2bb4        0x8 arch/arm/cpu/armv7/spare_head.o
 .rel.text.hdmi_core_get_video_info
                0x4a0c2bbc       0x10 arch/arm/cpu/armv7/spare_head.o
 .rel.text.hdmi_core_get_audio_info
                0x00000000        0x0 arch/arm/cpu/armv7/spare_head.o
 .rel.text.hdmi_core_set_hdcp_enable
                0x4a0c2bcc        0x8 arch/arm/cpu/armv7/spare_head.o
 .rel.text.hdmi_core_get_hdcp_enable
                0x00000000        0x0 arch/arm/cpu/armv7/spare_head.o
 .rel.text.hdmi_core_set_cts_enable
                0x4a0c2bd4        0x8 arch/arm/cpu/armv7/spare_head.o
 .rel.text.hdmi_core_get_cts_enable
                0x00000000        0x0 arch/arm/cpu/armv7/spare_head.o
 .rel.text.hdmi_core_get_csc_type
                0x4a0c2bdc       0x18 arch/arm/cpu/armv7/spare_head.o
 .rel.text.hdmi_core_get_video_mode
                0x00000000        0x0 arch/arm/cpu/armv7/spare_head.o
 .rel.text.hdmi_core_set_video_mode
                0x4a0c2bf4       0x18 arch/arm/cpu/armv7/spare_head.o
 .rel.text.hdmi_core_set_video_enable
                0x4a0c2c0c       0x50 arch/arm/cpu/armv7/spare_head.o
 .rel.text.hdmi_core_loop
                0x4a0c2c5c       0x98 arch/arm/cpu/armv7/spare_head.o
 .rel.text.hdmi_core_get_video_enable
                0x00000000        0x0 arch/arm/cpu/armv7/spare_head.o
 .rel.text.hdmi_core_enter_lp
                0x00000000        0x0 arch/arm/cpu/armv7/spare_head.o
 .rel.text.hdmi_core_mode_support
                0x4a0c2cf4        0x8 arch/arm/cpu/armv7/spare_head.o
 .rel.text.hdmi_core_dvi_support
                0x00000000        0x0 arch/arm/cpu/armv7/spare_head.o
 .rel.text.hdmi_core_cec_enable
                0x4a0c2cfc        0x8 arch/arm/cpu/armv7/spare_head.o
 .rel.text.hdmi_core_update_detect_time
                0x4a0c2d04        0x8 arch/arm/cpu/armv7/spare_head.o
 .rel.text.hdmi_core_cec_get_simple_msg
                0x00000000        0x0 arch/arm/cpu/armv7/spare_head.o
 .rel.text.edid_parse_dtd_block
                0x4a0c2d0c        0x8 arch/arm/cpu/armv7/spare_head.o
 .rel.text.edid_check_special.constprop.1
                0x4a0c2d14        0x8 arch/arm/cpu/armv7/spare_head.o
 .rel.text.edid_read_data.constprop.2
                0x4a0c2d1c        0x8 arch/arm/cpu/armv7/spare_head.o
 .rel.text.hdmi_edid_parse
                0x4a0c2d24       0x48 arch/arm/cpu/armv7/spare_head.o
 .rel.text.hdmi_edid_is_hdmi
                0x4a0c2d6c        0x8 arch/arm/cpu/armv7/spare_head.o
 .rel.text.hdmi_edid_is_yuv
                0x4a0c2d74        0x8 arch/arm/cpu/armv7/spare_head.o
 .rel.text.hdmi_edid_get_data
                0x4a0c2d7c        0x8 arch/arm/cpu/armv7/spare_head.o
 .rel.text.hdmi_write
                0x4a0c2d84        0x8 arch/arm/cpu/armv7/spare_head.o
 .rel.text.hdmi_writel
                0x4a0c2d8c        0x8 arch/arm/cpu/armv7/spare_head.o
 .rel.text.hdmi_udelay
                0x4a0c2d94        0x8 arch/arm/cpu/armv7/spare_head.o
 .rel.text.bsp_hdmi_inner_init
                0x4a0c2d9c        0x8 arch/arm/cpu/armv7/spare_head.o
 .rel.text.hdmi_mdelay
                0x4a0c2da4        0x8 arch/arm/cpu/armv7/spare_head.o
 .rel.text.hdmi_phy_init.isra.2
                0x4a0c2dac       0x28 arch/arm/cpu/armv7/spare_head.o
 .rel.text.bsp_hdmi_set_func
                0x4a0c2dd4        0x8 arch/arm/cpu/armv7/spare_head.o
 .rel.text.bsp_hdmi_set_bias_source
                0x4a0c2ddc        0x8 arch/arm/cpu/armv7/spare_head.o
 .rel.text.bsp_hdmi_set_version
                0x4a0c2de4        0x8 arch/arm/cpu/armv7/spare_head.o
 .rel.text.bsp_hdmi_set_addr
                0x4a0c2dec       0x10 arch/arm/cpu/armv7/spare_head.o
 .rel.text.bsp_hdmi_set_video_en
                0x4a0c2dfc        0x8 arch/arm/cpu/armv7/spare_head.o
 .rel.text.bsp_hdmi_video
                0x4a0c2e04       0x88 arch/arm/cpu/armv7/spare_head.o
 .rel.text.bsp_hdmi_audio
                0x00000000        0x0 arch/arm/cpu/armv7/spare_head.o
 .rel.text.bsp_hdmi_ddc_read
                0x4a0c2e8c        0x8 arch/arm/cpu/armv7/spare_head.o
 .rel.text.bsp_hdmi_get_hpd
                0x4a0c2e94        0x8 arch/arm/cpu/armv7/spare_head.o
 .rel.text.bsp_hdmi_hdcp_err_check
                0x00000000        0x0 arch/arm/cpu/armv7/spare_head.o
 .rel.text.bsp_hdmi_cec_get_simple_msg
                0x00000000        0x0 arch/arm/cpu/armv7/spare_head.o
 .rel.text.bsp_hdmi_cec_send
                0x4a0c2e9c        0x8 arch/arm/cpu/armv7/spare_head.o
 .rel.text.bsp_hdmi_cec_free_time_set
                0x4a0c2ea4        0x8 arch/arm/cpu/armv7/spare_head.o
 .rel.text.bsp_hdmi_cec_sta_check
                0x00000000        0x0 arch/arm/cpu/armv7/spare_head.o
 .rel.text.tv_get_input_csc
                0x4a0c2eac        0x8 arch/arm/cpu/armv7/spare_head.o
 .rel.text.tve_clk_enable
                0x4a0c2eb4       0x10 arch/arm/cpu/armv7/spare_head.o
 .rel.text.__pin_config
                0x4a0c2ec4       0x20 arch/arm/cpu/armv7/spare_head.o
 .rel.text.tve_clk_config
                0x4a0c2ee4       0x40 arch/arm/cpu/armv7/spare_head.o
 .rel.text.tv_set_mode
                0x4a0c2f24       0x18 arch/arm/cpu/armv7/spare_head.o
 .rel.text.tv_get_mode
                0x4a0c2f3c       0x18 arch/arm/cpu/armv7/spare_head.o
 .rel.text.tv_disable
                0x4a0c2f54       0x20 arch/arm/cpu/armv7/spare_head.o
 .rel.text.tv_mode_support
                0x4a0c2f74       0x18 arch/arm/cpu/armv7/spare_head.o
 .rel.text.tv_enable
                0x4a0c2f8c       0x20 arch/arm/cpu/armv7/spare_head.o
 .rel.text.tv_get_video_timing_info
                0x4a0c2fac       0x28 arch/arm/cpu/armv7/spare_head.o
 .rel.text.tv_report_hpd_work
                0x00000000        0x0 arch/arm/cpu/armv7/spare_head.o
 .rel.text.tv_detect_thread
                0x00000000        0x0 arch/arm/cpu/armv7/spare_head.o
 .rel.text.tv_detect_enable
                0x4a0c2fd4        0x8 arch/arm/cpu/armv7/spare_head.o
 .rel.text.tv_resume
                0x4a0c2fdc       0x38 arch/arm/cpu/armv7/spare_head.o
 .rel.text.tv_detect_disable
                0x4a0c3014        0x8 arch/arm/cpu/armv7/spare_head.o
 .rel.text.tv_suspend
                0x4a0c301c       0x20 arch/arm/cpu/armv7/spare_head.o
 .rel.text.tv_get_video_info
                0x00000000        0x0 arch/arm/cpu/armv7/spare_head.o
 .rel.text.tv_init
                0x4a0c303c       0xf0 arch/arm/cpu/armv7/spare_head.o
 .rel.text.tv_exit
                0x00000000        0x0 arch/arm/cpu/armv7/spare_head.o
 .rel.text.tve_low_set_reg_base
                0x4a0c312c        0x8 arch/arm/cpu/armv7/spare_head.o
 .rel.text.tve_low_set_sid_base
                0x00000000        0x0 arch/arm/cpu/armv7/spare_head.o
 .rel.text.tve_low_init
                0x4a0c3134        0x8 arch/arm/cpu/armv7/spare_head.o
 .rel.text.tve_low_dac_enable
                0x4a0c313c        0x8 arch/arm/cpu/armv7/spare_head.o
 .rel.text.tve_low_dac_disable
                0x00000000        0x0 arch/arm/cpu/armv7/spare_head.o
 .rel.text.tve_low_open
                0x4a0c3144        0x8 arch/arm/cpu/armv7/spare_head.o
 .rel.text.tve_low_close
                0x4a0c314c        0x8 arch/arm/cpu/armv7/spare_head.o
 .rel.text.tve_low_set_tv_mode
                0x4a0c3154        0x8 arch/arm/cpu/armv7/spare_head.o
 .rel.text.tve_low_get_dac_status
                0x4a0c315c        0x8 arch/arm/cpu/armv7/spare_head.o
 .rel.text.tve_low_dac_autocheck_enable
                0x4a0c3164        0x8 arch/arm/cpu/armv7/spare_head.o
 .rel.text.tve_low_dac_autocheck_disable
                0x4a0c316c        0x8 arch/arm/cpu/armv7/spare_head.o
 .rel.text.tve_low_enhance
                0x4a0c3174        0x8 arch/arm/cpu/armv7/spare_head.o
 .rel.text.tve_low_get_sid
                0x4a0c317c        0x8 arch/arm/cpu/armv7/spare_head.o
 .rel.text.arisc_dvfs_cfg_vf_table
                0x00000000        0x0 arch/arm/cpu/armv7/spare_head.o
 .rel.text.sunxi_arisc_probe
                0x4a0c3184       0xb0 arch/arm/cpu/armv7/spare_head.o
 .rel.rodata.sun50iw2_de_features
                0x4a0c3234       0x48 arch/arm/cpu/armv7/spare_head.o
 .rel.data.device_list
                0x4a0c327c       0x10 arch/arm/cpu/armv7/spare_head.o
 .rel.data.vdev_source_ops
                0x00000000        0x0 arch/arm/cpu/armv7/spare_head.o
 .rel.data.panel_array
                0x4a0c328c       0x48 arch/arm/cpu/armv7/spare_head.o
 .rel.data.default_panel
                0x4a0c32d4       0x20 arch/arm/cpu/armv7/spare_head.o
 .rel.data.lt070me05000_panel
                0x4a0c32f4       0x28 arch/arm/cpu/armv7/spare_head.o
 .rel.data.wtq05027d01_panel
                0x4a0c331c       0x20 arch/arm/cpu/armv7/spare_head.o
 .rel.data.t27p06_panel
                0x4a0c333c       0x20 arch/arm/cpu/armv7/spare_head.o
 .rel.data.dx0960be40a1_panel
                0x4a0c335c       0x20 arch/arm/cpu/armv7/spare_head.o
 .rel.data.tft720x1280_panel
                0x4a0c337c       0x20 arch/arm/cpu/armv7/spare_head.o
 .rel.data.S6D7AA0X01_panel
                0x4a0c339c       0x20 arch/arm/cpu/armv7/spare_head.o
 .rel.data.inet_dsi_panel
                0x4a0c33bc       0x20 arch/arm/cpu/armv7/spare_head.o
 .rel.data.tg078uw004a0_panel
                0x4a0c33dc       0x28 arch/arm/cpu/armv7/spare_head.o
 .rel.text.sunxi_clk_is_lock
                0x4a0c3404       0x10 arch/arm/cpu/armv7/spare_head.o
 .rel.text.sunxi_clk_disable_plllock
                0x4a0c3414        0x8 arch/arm/cpu/armv7/spare_head.o
 .rel.text.sunxi_clk_fators_disable
                0x4a0c341c        0x8 arch/arm/cpu/armv7/spare_head.o
 .rel.text.sunxi_clk_factors_set_rate
                0x4a0c3424       0x10 arch/arm/cpu/armv7/spare_head.o
 .rel.text.sunxi_clk_fators_enable
                0x4a0c3434        0x8 arch/arm/cpu/armv7/spare_head.o
 .rel.text.sunxi_clk_get_factors_ops
                0x00000000        0x0 arch/arm/cpu/armv7/spare_head.o
 .rel.text.sunxi_clk_register_factors
                0x4a0c343c       0x18 arch/arm/cpu/armv7/spare_head.o
 .rel.text.sunxi_clk_get_periph_ops
                0x00000000        0x0 arch/arm/cpu/armv7/spare_head.o
 .rel.text.sunxi_clk_register_periph
                0x4a0c3454        0x8 arch/arm/cpu/armv7/spare_head.o
 .rel.text.__clk_enable
                0x4a0c345c       0x10 arch/arm/cpu/armv7/spare_head.o
 .rel.text.__clk_lookup
                0x4a0c346c        0x8 arch/arm/cpu/armv7/spare_head.o
 .rel.text.__clk_init
                0x4a0c3474       0x48 arch/arm/cpu/armv7/spare_head.o
 .rel.text.clk_set_parent
                0x4a0c34bc       0x20 arch/arm/cpu/armv7/spare_head.o
 .rel.text.clk_set_rate
                0x4a0c34dc       0x10 arch/arm/cpu/armv7/spare_head.o
 .rel.text.clk_register
                0x4a0c34ec       0x10 arch/arm/cpu/armv7/spare_head.o
 .rel.text.of_pll_clk_config_setup
                0x4a0c34fc       0x60 arch/arm/cpu/armv7/spare_head.o
 .rel.text.of_periph_clk_config_setup
                0x4a0c355c       0x68 arch/arm/cpu/armv7/spare_head.o
 .rel.text.of_clk_get
                0x4a0c35c4       0x48 arch/arm/cpu/armv7/spare_head.o
 .rel.text.clk_register_fixed_rate
                0x4a0c360c       0x18 arch/arm/cpu/armv7/spare_head.o
 .rel.text.get_factors_pll_de
                0x4a0c3624       0x18 arch/arm/cpu/armv7/spare_head.o
 .rel.text.get_factors_pll_gpu
                0x4a0c363c       0x18 arch/arm/cpu/armv7/spare_head.o
 .rel.text.get_factors_pll_periph1
                0x4a0c3654       0x18 arch/arm/cpu/armv7/spare_head.o
 .rel.text.get_factors_pll_periph0
                0x4a0c366c       0x18 arch/arm/cpu/armv7/spare_head.o
 .rel.text.get_factors_pll_ddr
                0x4a0c3684       0x18 arch/arm/cpu/armv7/spare_head.o
 .rel.text.get_factors_pll_ve
                0x4a0c369c       0x18 arch/arm/cpu/armv7/spare_head.o
 .rel.text.get_factors_pll_video
                0x4a0c36b4       0x18 arch/arm/cpu/armv7/spare_head.o
 .rel.text.get_factors_pll_cpu
                0x4a0c36cc       0x18 arch/arm/cpu/armv7/spare_head.o
 .rel.text.sunxi_clk_factor_initlimits
                0x4a0c36e4       0x80 arch/arm/cpu/armv7/spare_head.o
 .rel.text.init_clocks
                0x4a0c3764       0x30 arch/arm/cpu/armv7/spare_head.o
 .rel.rodata.sunxi_clk_factors_ops
                0x4a0c3794       0x30 arch/arm/cpu/armv7/spare_head.o
 .rel.rodata.sunxi_clk_periph_ops
                0x4a0c37c4       0x40 arch/arm/cpu/armv7/spare_head.o
 .rel.data.clk_fixed_rate_ops
                0x4a0c3804        0x8 arch/arm/cpu/armv7/spare_head.o
 .rel.data.sunxi_clk_periph_ve
                0x4a0c380c        0x8 arch/arm/cpu/armv7/spare_head.o
 .rel.data.sunxi_clk_periph_pll_periphahb0
                0x4a0c3814        0x8 arch/arm/cpu/armv7/spare_head.o
 .rel.data.sunxi_clk_periph_tcon1
                0x4a0c381c        0x8 arch/arm/cpu/armv7/spare_head.o
 .rel.data.sunxi_clk_periph_pio
                0x4a0c3824        0x8 arch/arm/cpu/armv7/spare_head.o
 .rel.data.sunxi_clk_periph_cpurahbs
                0x00000000        0x0 arch/arm/cpu/armv7/spare_head.o
 .rel.data.sunxi_clk_periph_spdif
                0x4a0c382c        0x8 arch/arm/cpu/armv7/spare_head.o
 .rel.data.ve_parents
                0x4a0c3834        0x8 arch/arm/cpu/armv7/spare_head.o
 .rel.data.apb2mod_parents
                0x4a0c383c        0x8 arch/arm/cpu/armv7/spare_head.o
 .rel.data.sunxi_clk_periph_hdmi
                0x4a0c3844        0x8 arch/arm/cpu/armv7/spare_head.o
 .rel.data.hosc_parents
                0x4a0c384c        0x8 arch/arm/cpu/armv7/spare_head.o
 .rel.data.periphx2_parents
                0x4a0c3854       0x20 arch/arm/cpu/armv7/spare_head.o
 .rel.data.cpurcpus_parents
                0x00000000        0x0 arch/arm/cpu/armv7/spare_head.o
 .rel.data.sunxi_clk_periph_hdmi_slow
                0x4a0c3874        0x8 arch/arm/cpu/armv7/spare_head.o
 .rel.data.sunxi_clk_periph_cpurapbs
                0x00000000        0x0 arch/arm/cpu/armv7/spare_head.o
 .rel.data.sunxi_clk_periph_sdmmc1_rst
                0x4a0c387c        0x8 arch/arm/cpu/armv7/spare_head.o
 .rel.data.sunxi_clk_periph_cpurpio
                0x00000000        0x0 arch/arm/cpu/armv7/spare_head.o
 .rel.data.sunxi_clk_periph_tcon0
                0x4a0c3884        0x8 arch/arm/cpu/armv7/spare_head.o
 .rel.data.i2s_parents
                0x4a0c388c       0x20 arch/arm/cpu/armv7/spare_head.o
 .rel.data.sunxi_clk_periph_sdmmc0_bus
                0x4a0c38ac        0x8 arch/arm/cpu/armv7/spare_head.o
 .rel.data.sunxi_periphs_cpus_init
                0x00000000        0x0 arch/arm/cpu/armv7/spare_head.o
 .rel.data.sdram_parents
                0x4a0c38b4       0x20 arch/arm/cpu/armv7/spare_head.o
 .rel.data.cpurahbs_parents
                0x00000000        0x0 arch/arm/cpu/armv7/spare_head.o
 .rel.data.sunxi_clk_periph_cpurcir
                0x00000000        0x0 arch/arm/cpu/armv7/spare_head.o
 .rel.data.ahb2mod_parents
                0x4a0c38d4        0x8 arch/arm/cpu/armv7/spare_head.o
 .rel.data.sunxi_clk_periph_scr0
                0x4a0c38dc        0x8 arch/arm/cpu/armv7/spare_head.o
 .rel.data.sunxi_clk_periph_scr1
                0x4a0c38e4        0x8 arch/arm/cpu/armv7/spare_head.o
 .rel.data.sunxi_clk_periph_hwspinlock_rst
                0x4a0c38ec        0x8 arch/arm/cpu/armv7/spare_head.o
 .rel.data.cpu_parents
                0x4a0c38f4       0x20 arch/arm/cpu/armv7/spare_head.o
 .rel.data.periphx_parents
                0x4a0c3914       0x40 arch/arm/cpu/armv7/spare_head.o
 .rel.data.pll_periphahb0_parents
                0x4a0c3954        0x8 arch/arm/cpu/armv7/spare_head.o
 .rel.data.sunxi_clk_periph_de
                0x4a0c395c        0x8 arch/arm/cpu/armv7/spare_head.o
 .rel.data.sunxi_periphs_init
                0x4a0c3964      0x6c0 arch/arm/cpu/armv7/spare_head.o
 .rel.data.sunxi_clk_periph_csi_s
                0x4a0c4024       0x10 arch/arm/cpu/armv7/spare_head.o
 .rel.data.sunxi_clk_periph_sdmmc0_mod
                0x4a0c4034        0x8 arch/arm/cpu/armv7/spare_head.o
 .rel.data.tcon0_parents
                0x4a0c403c       0x40 arch/arm/cpu/armv7/spare_head.o
 .rel.data.sunxi_clk_periph_uart1
                0x4a0c407c        0x8 arch/arm/cpu/armv7/spare_head.o
 .rel.data.sunxi_clk_periph_uart2
                0x4a0c4084        0x8 arch/arm/cpu/armv7/spare_head.o
 .rel.data.sunxi_clk_periph_uart0
                0x4a0c408c        0x8 arch/arm/cpu/armv7/spare_head.o
 .rel.data.cpurpll_peri0_parents
                0x00000000        0x0 arch/arm/cpu/armv7/spare_head.o
 .rel.data.sunxi_clk_periph_nand
                0x4a0c4094        0x8 arch/arm/cpu/armv7/spare_head.o
 .rel.data.sunxi_clk_periph_ths
                0x4a0c409c        0x8 arch/arm/cpu/armv7/spare_head.o
 .rel.data.ths_parents
                0x4a0c40a4       0x20 arch/arm/cpu/armv7/spare_head.o
 .rel.data.sunxi_clk_periph_spi0
                0x4a0c40c4        0x8 arch/arm/cpu/armv7/spare_head.o
 .rel.data.sunxi_clk_periph_spi1
                0x4a0c40cc        0x8 arch/arm/cpu/armv7/spare_head.o
 .rel.data.sunxi_factos
                0x4a0c40d4      0x168 arch/arm/cpu/armv7/spare_head.o
 .rel.data.sunxi_clk_periph_uart3
                0x4a0c423c        0x8 arch/arm/cpu/armv7/spare_head.o
 .rel.data.sunxi_clk_periph_losc_out
                0x00000000        0x0 arch/arm/cpu/armv7/spare_head.o
 .rel.data.periph_parents
                0x4a0c4244       0x20 arch/arm/cpu/armv7/spare_head.o
 .rel.data.sunxi_clk_periph_msgbox
                0x4a0c4264        0x8 arch/arm/cpu/armv7/spare_head.o
 .rel.data.sunxi_clk_periph_hwspinlock_bus
                0x4a0c426c        0x8 arch/arm/cpu/armv7/spare_head.o
 .rel.data.com_gates
                0x4a0c4274        0x8 arch/arm/cpu/armv7/spare_head.o
 .rel.data.adda_parents
                0x4a0c427c        0x8 arch/arm/cpu/armv7/spare_head.o
 .rel.data.sunxi_clk_periph_cpu
                0x4a0c4284        0x8 arch/arm/cpu/armv7/spare_head.o
 .rel.data.sunxi_clk_periph_dma
                0x4a0c428c        0x8 arch/arm/cpu/armv7/spare_head.o
 .rel.data.sunxi_clk_periph_cpurpll_peri0
                0x00000000        0x0 arch/arm/cpu/armv7/spare_head.o
 .rel.data.cpurapbs_parents
                0x00000000        0x0 arch/arm/cpu/armv7/spare_head.o
 .rel.data.sunxi_clk_periph_usbohci0
                0x4a0c4294        0x8 arch/arm/cpu/armv7/spare_head.o
 .rel.data.sunxi_clk_periph_usbohci1
                0x4a0c429c        0x8 arch/arm/cpu/armv7/spare_head.o
 .rel.data.sunxi_clk_periph_usbohci2
                0x4a0c42a4        0x8 arch/arm/cpu/armv7/spare_head.o
 .rel.data.sunxi_clk_periph_usbohci3
                0x4a0c42ac        0x8 arch/arm/cpu/armv7/spare_head.o
 .rel.data.hdmi_parents
                0x4a0c42b4       0x20 arch/arm/cpu/armv7/spare_head.o
 .rel.data.sunxi_clk_periph_hstimer
                0x4a0c42d4        0x8 arch/arm/cpu/armv7/spare_head.o
 .rel.data.sunxi_clk_periph_cpuapb
                0x4a0c42dc        0x8 arch/arm/cpu/armv7/spare_head.o
 .rel.data.sunxi_clk_periph_sdmmc2_rst
                0x4a0c42e4        0x8 arch/arm/cpu/armv7/spare_head.o
 .rel.data.sunxi_clk_periph_sdram
                0x4a0c42ec        0x8 arch/arm/cpu/armv7/spare_head.o
 .rel.data.apb1mod_parents
                0x4a0c42f4        0x8 arch/arm/cpu/armv7/spare_head.o
 .rel.data.sunxi_clk_periph_sdmmc1_bus
                0x4a0c42fc        0x8 arch/arm/cpu/armv7/spare_head.o
 .rel.data.sunxi_clk_periph_i2s0
                0x4a0c4304        0x8 arch/arm/cpu/armv7/spare_head.o
 .rel.data.sunxi_clk_periph_i2s1
                0x4a0c430c        0x8 arch/arm/cpu/armv7/spare_head.o
 .rel.data.sunxi_clk_periph_i2s2
                0x4a0c4314        0x8 arch/arm/cpu/armv7/spare_head.o
 .rel.data.sunxi_clk_periph_ts
                0x4a0c431c        0x8 arch/arm/cpu/armv7/spare_head.o
 .rel.data.sunxi_clk_periph_csi_misc
                0x4a0c4324       0x10 arch/arm/cpu/armv7/spare_head.o
 .rel.data.sunxi_clk_periph_sdmmc1_mod
                0x4a0c4334        0x8 arch/arm/cpu/armv7/spare_head.o
 .rel.data.sunxi_clk_periph_usbehci0
                0x4a0c433c        0x8 arch/arm/cpu/armv7/spare_head.o
 .rel.data.sunxi_clk_periph_gmac
                0x4a0c4344        0x8 arch/arm/cpu/armv7/spare_head.o
 .rel.data.sunxi_clk_periph_usbehci2
                0x4a0c434c        0x8 arch/arm/cpu/armv7/spare_head.o
 .rel.data.sunxi_clk_periph_deinterlace
                0x4a0c4354        0x8 arch/arm/cpu/armv7/spare_head.o
 .rel.data.apb1_parents
                0x4a0c435c        0x8 arch/arm/cpu/armv7/spare_head.o
 .rel.data.sunxi_clk_periph_usbotg
                0x4a0c4364        0x8 arch/arm/cpu/armv7/spare_head.o
 .rel.data.sunxi_clk_periph_usbphy1
                0x4a0c436c        0x8 arch/arm/cpu/armv7/spare_head.o
 .rel.data.ahb1mod_parents
                0x4a0c4374        0x8 arch/arm/cpu/armv7/spare_head.o
 .rel.data.apb2_parents
                0x4a0c437c       0x20 arch/arm/cpu/armv7/spare_head.o
 .rel.data.sunxi_clk_periph_usbphy0
                0x4a0c439c        0x8 arch/arm/cpu/armv7/spare_head.o
 .rel.data.axi_parents
                0x4a0c43a4        0x8 arch/arm/cpu/armv7/spare_head.o
 .rel.data.sunxi_clk_periph_usbphy2
                0x4a0c43ac        0x8 arch/arm/cpu/armv7/spare_head.o
 .rel.data.sunxi_clk_periph_usbphy3
                0x4a0c43b4        0x8 arch/arm/cpu/armv7/spare_head.o
 .rel.data.sunxi_clk_periph_axi
                0x4a0c43bc        0x8 arch/arm/cpu/armv7/spare_head.o
 .rel.data.sunxi_clk_periph_cpurcpus
                0x00000000        0x0 arch/arm/cpu/armv7/spare_head.o
 .rel.data.tve_parents
                0x4a0c43c4       0x40 arch/arm/cpu/armv7/spare_head.o
 .rel.data.sunxi_clk_periph_avs
                0x4a0c4404        0x8 arch/arm/cpu/armv7/spare_head.o
 .rel.data.losc_parents
                0x00000000        0x0 arch/arm/cpu/armv7/spare_head.o
 .rel.data.sunxi_clk_periph_sdmmc0_rst
                0x4a0c440c        0x8 arch/arm/cpu/armv7/spare_head.o
 .rel.data.sunxi_clk_periph_twi1
                0x4a0c4414        0x8 arch/arm/cpu/armv7/spare_head.o
 .rel.data.sunxi_clk_periph_twi2
                0x4a0c441c        0x8 arch/arm/cpu/armv7/spare_head.o
 .rel.data.sunxi_clk_periph_ahb1
                0x4a0c4424        0x8 arch/arm/cpu/armv7/spare_head.o
 .rel.data.ts_parents
                0x4a0c442c       0x80 arch/arm/cpu/armv7/spare_head.o
 .rel.data.sunxi_clk_periph_ahb2
                0x4a0c44ac        0x8 arch/arm/cpu/armv7/spare_head.o
 .rel.data.sunxi_clk_periph_apb1
                0x4a0c44b4        0x8 arch/arm/cpu/armv7/spare_head.o
 .rel.data.sunxi_clk_periph_apb2
                0x4a0c44bc        0x8 arch/arm/cpu/armv7/spare_head.o
 .rel.data.cpuapb_parents
                0x4a0c44c4        0x8 arch/arm/cpu/armv7/spare_head.o
 .rel.data.sunxi_clk_periph_mbus
                0x4a0c44cc        0x8 arch/arm/cpu/armv7/spare_head.o
 .rel.data.gpu_parents
                0x4a0c44d4        0x8 arch/arm/cpu/armv7/spare_head.o
 .rel.data.sunxi_clk_periph_sdmmc2_bus
                0x4a0c44dc        0x8 arch/arm/cpu/armv7/spare_head.o
 .rel.data.sunxi_clk_periph_adda
                0x4a0c44e4        0x8 arch/arm/cpu/armv7/spare_head.o
 .rel.data.de_parents
                0x4a0c44ec       0x40 arch/arm/cpu/armv7/spare_head.o
 .rel.data.mbus_parents
                0x4a0c452c       0x20 arch/arm/cpu/armv7/spare_head.o
 .rel.data.sunxi_clk_periph_twi0
                0x4a0c454c        0x8 arch/arm/cpu/armv7/spare_head.o
 .rel.data.cpurdev_parents
                0x00000000        0x0 arch/arm/cpu/armv7/spare_head.o
 .rel.data.ahb1_parents
                0x4a0c4554       0x20 arch/arm/cpu/armv7/spare_head.o
 .rel.data.sunxi_clk_periph_gpu
                0x4a0c4574        0x8 arch/arm/cpu/armv7/spare_head.o
 .rel.data.sunxi_clk_periph_usbehci1
                0x4a0c457c        0x8 arch/arm/cpu/armv7/spare_head.o
 .rel.data.sunxi_clk_periph_sdmmc2_mod
                0x4a0c4584        0x8 arch/arm/cpu/armv7/spare_head.o
 .rel.data.sunxi_clk_periph_usbehci3
                0x4a0c458c        0x8 arch/arm/cpu/armv7/spare_head.o
 .rel.data.ahb2_parents
                0x4a0c4594       0x20 arch/arm/cpu/armv7/spare_head.o
 .rel.data.audio_parents
                0x4a0c45b4        0x8 arch/arm/cpu/armv7/spare_head.o
 .rel.data.sunxi_clk_periph_ce
                0x4a0c45bc        0x8 arch/arm/cpu/armv7/spare_head.o
 .rel.data.sunxi_clk_periph_tve
                0x4a0c45c4        0x8 arch/arm/cpu/armv7/spare_head.o
 .rel.data.cpurpio_parents
                0x00000000        0x0 arch/arm/cpu/armv7/spare_head.o
 .rel.data.sunxi_clk_periph_csi_m
                0x4a0c45cc       0x10 arch/arm/cpu/armv7/spare_head.o
 .rel.data.csi_m_parents
                0x4a0c45dc       0x40 arch/arm/cpu/armv7/spare_head.o
 .rel.text.sunxi_dma_int_func
                0x4a0c461c        0x8 arch/arm/cpu/armv7/spare_head.o
 .rel.text.sunxi_dma_init
                0x4a0c4624       0x18 arch/arm/cpu/armv7/spare_head.o
 .rel.text.sunxi_dma_request
                0x4a0c463c        0x8 arch/arm/cpu/armv7/spare_head.o
 .rel.text.sunxi_dma_install_int
                0x00000000        0x0 arch/arm/cpu/armv7/spare_head.o
 .rel.text.sunxi_dma_enable_int
                0x00000000        0x0 arch/arm/cpu/armv7/spare_head.o
 .rel.text.sunxi_dma_disable_int
                0x4a0c4644        0x8 arch/arm/cpu/armv7/spare_head.o
 .rel.text.sunxi_dma_exit
                0x4a0c464c        0x8 arch/arm/cpu/armv7/spare_head.o
 .rel.text.i2c_read
                0x4a0c4654        0x8 arch/arm/cpu/armv7/spare_head.o
 .rel.text.i2c_write
                0x4a0c465c        0x8 arch/arm/cpu/armv7/spare_head.o
 .rel.text.i2c_init
                0x4a0c4664       0x30 arch/arm/cpu/armv7/spare_head.o
 .rel.data.sunxi_i2c_write_pt
                0x4a0c4694        0x8 arch/arm/cpu/armv7/spare_head.o
 .rel.data.sunxi_i2c_read_pt
                0x4a0c469c        0x8 arch/arm/cpu/armv7/spare_head.o
 .rel.text.input_send_keycodes
                0x00000000        0x0 arch/arm/cpu/armv7/spare_head.o
 .rel.text.input_init
                0x00000000        0x0 arch/arm/cpu/armv7/spare_head.o
 .rel.text.input_stdio_register
                0x00000000        0x0 arch/arm/cpu/armv7/spare_head.o
 .rel.text.key_matrix_decode_fdt
                0x00000000        0x0 arch/arm/cpu/armv7/spare_head.o
 .rel.rodata.kbd_to_ansi364
                0x00000000        0x0 arch/arm/cpu/armv7/spare_head.o
 .rel.text.mmc_set_ios
                0x4a0c46a4       0x18 arch/arm/cpu/armv7/spare_head.o
 .rel.text._mmc_life_time_est
                0x4a0c46bc       0x68 arch/arm/cpu/armv7/spare_head.o
 .rel.text.mmc_mmc_parse_health_report
                0x4a0c4724       0x68 arch/arm/cpu/armv7/spare_head.o
 .rel.text.mmc_send_cmd
                0x4a0c478c       0x70 arch/arm/cpu/armv7/spare_head.o
 .rel.text.mmc_go_idle
                0x4a0c47fc        0x8 arch/arm/cpu/armv7/spare_head.o
 .rel.text.mmc_send_if_cond
                0x4a0c4804        0x8 arch/arm/cpu/armv7/spare_head.o
 .rel.text.sd_send_op_cond
                0x4a0c480c       0x18 arch/arm/cpu/armv7/spare_head.o
 .rel.text.mmc_send_op_cond_iter
                0x4a0c4824        0x8 arch/arm/cpu/armv7/spare_head.o
 .rel.text.mmc_send_status
                0x4a0c482c       0x20 arch/arm/cpu/armv7/spare_head.o
 .rel.text.mmc_send_manual_stop
                0x4a0c484c        0x8 arch/arm/cpu/armv7/spare_head.o
 .rel.text.find_mmc_device
                0x4a0c4854       0x10 arch/arm/cpu/armv7/spare_head.o
 .rel.text.mmc_bread
                0x4a0c4864       0x48 arch/arm/cpu/armv7/spare_head.o
 .rel.text.mmc_send_op_cond
                0x4a0c48ac        0x8 arch/arm/cpu/armv7/spare_head.o
 .rel.text.mmc_complete_op_cond
                0x4a0c48b4       0x10 arch/arm/cpu/armv7/spare_head.o
 .rel.text.mmc_send_ext_csd
                0x4a0c48c4        0x8 arch/arm/cpu/armv7/spare_head.o
 .rel.text.mmc_decode_ext_csd
                0x4a0c48cc        0x8 arch/arm/cpu/armv7/spare_head.o
 .rel.text.mmc_do_switch
                0x4a0c48d4       0x18 arch/arm/cpu/armv7/spare_head.o
 .rel.text.mmc_mmc_switch_to_ds
                0x4a0c48ec       0x28 arch/arm/cpu/armv7/spare_head.o
 .rel.text.mmc_mmc_switch_to_hs
                0x4a0c4914       0x28 arch/arm/cpu/armv7/spare_head.o
 .rel.text.mmc_mmc_switch_to_hs200
                0x4a0c493c       0x28 arch/arm/cpu/armv7/spare_head.o
 .rel.text.mmc_mmc_switch_to_hs400
                0x4a0c4964       0x28 arch/arm/cpu/armv7/spare_head.o
 .rel.text.mmc_mmc_switch_speed_mode
                0x4a0c498c        0x8 arch/arm/cpu/armv7/spare_head.o
 .rel.text.mmc_mmc_switch_bus_width
                0x4a0c4994       0x18 arch/arm/cpu/armv7/spare_head.o
 .rel.text.mmc_mmc_switch_bus_mode
                0x4a0c49ac       0x10 arch/arm/cpu/armv7/spare_head.o
 .rel.text.mmc_startup
                0x4a0c49bc      0x290 arch/arm/cpu/armv7/spare_head.o
 .rel.text.mmc_switch_boot_bus_cond
                0x4a0c4c4c       0x20 arch/arm/cpu/armv7/spare_head.o
 .rel.text.mmc_switch_boot_part
                0x4a0c4c6c       0x20 arch/arm/cpu/armv7/spare_head.o
 .rel.text.mmc_switch_part
                0x4a0c4c8c       0x20 arch/arm/cpu/armv7/spare_head.o
 .rel.text.mmc_select_hwpart
                0x4a0c4cac        0x8 arch/arm/cpu/armv7/spare_head.o
 .rel.text.mmc_register
                0x00000000        0x0 arch/arm/cpu/armv7/spare_head.o
 .rel.text.mmc_create
                0x4a0c4cb4       0x28 arch/arm/cpu/armv7/spare_head.o
 .rel.text.mmc_start_init
                0x4a0c4cdc       0x68 arch/arm/cpu/armv7/spare_head.o
 .rel.text.mmc_init_boot
                0x4a0c4d44      0x1a0 arch/arm/cpu/armv7/spare_head.o
 .rel.text.mmc_init_product
                0x4a0c4ee4       0x58 arch/arm/cpu/armv7/spare_head.o
 .rel.text.mmc_init
                0x4a0c4f3c       0x18 arch/arm/cpu/armv7/spare_head.o
 .rel.text.print_mmc_devices
                0x4a0c4f54       0x20 arch/arm/cpu/armv7/spare_head.o
 .rel.text.get_mmc_num
                0x4a0c4f74        0x8 arch/arm/cpu/armv7/spare_head.o
 .rel.text.mmc_initialize
                0x4a0c4f7c       0x10 arch/arm/cpu/armv7/spare_head.o
 .rel.text.mmc_exit
                0x4a0c4f8c       0x40 arch/arm/cpu/armv7/spare_head.o
 .rel.text.sunxi_mmc_init
                0x4a0c4fcc      0x398 arch/arm/cpu/armv7/spare_head.o
 .rel.text.sunxi_mmc_exit
                0x00000000        0x0 arch/arm/cpu/armv7/spare_head.o
 .rel.text.mmc_set_erase_start_addr
                0x4a0c5364       0x10 arch/arm/cpu/armv7/spare_head.o
 .rel.text.mmc_set_erase_end_addr
                0x4a0c5374       0x10 arch/arm/cpu/armv7/spare_head.o
 .rel.text.mmc_mmc_def_erase_timeout
                0x4a0c5384       0x10 arch/arm/cpu/armv7/spare_head.o
 .rel.text.mmc_mmc_update_timeout
                0x4a0c5394       0x10 arch/arm/cpu/armv7/spare_head.o
 .rel.text.mmc_mmc_erase_timeout
                0x4a0c53a4       0x28 arch/arm/cpu/armv7/spare_head.o
 .rel.text.mmc_do_erase
                0x4a0c53cc       0x20 arch/arm/cpu/armv7/spare_head.o
 .rel.text.mmc_align_erase_group
                0x4a0c53ec       0x10 arch/arm/cpu/armv7/spare_head.o
 .rel.text.mmc_erase
                0x4a0c53fc       0x38 arch/arm/cpu/armv7/spare_head.o
 .rel.text.mmc_do_sanitize
                0x4a0c5434       0x18 arch/arm/cpu/armv7/spare_head.o
 .rel.text.mmc_insecure_secure_erase
                0x4a0c544c       0x10 arch/arm/cpu/armv7/spare_head.o
 .rel.text.mmc_do_secure_wipe
                0x4a0c545c       0x60 arch/arm/cpu/armv7/spare_head.o
 .rel.text.mmc_secure_wipe
                0x4a0c54bc       0x40 arch/arm/cpu/armv7/spare_head.o
 .rel.text.mmc_mmc_erase
                0x4a0c54fc       0x50 arch/arm/cpu/armv7/spare_head.o
 .rel.text.mmc_mmc_sanitize
                0x4a0c554c       0x20 arch/arm/cpu/armv7/spare_head.o
 .rel.text.mmc_mmc_trim
                0x4a0c556c       0x38 arch/arm/cpu/armv7/spare_head.o
 .rel.text.mmc_mmc_discard
                0x4a0c55a4       0x38 arch/arm/cpu/armv7/spare_head.o
 .rel.text.mmc_mmc_secure_erase
                0x4a0c55dc       0x38 arch/arm/cpu/armv7/spare_head.o
 .rel.text.mmc_mmc_secure_trim
                0x4a0c5614       0x38 arch/arm/cpu/armv7/spare_head.o
 .rel.text.mmc_bwrite
                0x4a0c564c       0x30 arch/arm/cpu/armv7/spare_head.o
 .rel.text.mmc_berase
                0x4a0c567c       0x20 arch/arm/cpu/armv7/spare_head.o
 .rel.text.sdmmc_secure_storage_write
                0x4a0c569c       0x28 arch/arm/cpu/armv7/spare_head.o
 .rel.text.sdmmc_secure_storage_read
                0x4a0c56c4       0x40 arch/arm/cpu/armv7/spare_head.o
 .rel.text.mmc_do_burn_boot
                0x4a0c5704       0x20 arch/arm/cpu/armv7/spare_head.o
 .rel.text.mmc_mmc_secure_trim_secure
                0x4a0c5724       0x10 arch/arm/cpu/armv7/spare_head.o
 .rel.text.mmc_mmc_secure_erase_secure
                0x4a0c5734       0x10 arch/arm/cpu/armv7/spare_head.o
 .rel.text.mmc_mmc_discard_secure
                0x4a0c5744       0x10 arch/arm/cpu/armv7/spare_head.o
 .rel.text.mmc_mmc_trim_secure
                0x4a0c5754       0x10 arch/arm/cpu/armv7/spare_head.o
 .rel.text.mmc_mmc_erase_secure
                0x4a0c5764       0x10 arch/arm/cpu/armv7/spare_head.o
 .rel.text.mmc_secure_wipe_secure
                0x4a0c5774       0x10 arch/arm/cpu/armv7/spare_head.o
 .rel.text.mmc_bwrite_secure
                0x4a0c5784       0x10 arch/arm/cpu/armv7/spare_head.o
 .rel.text.sdmmc_secure_storage_read_backup
                0x4a0c5794       0x28 arch/arm/cpu/armv7/spare_head.o
 .rel.text.mmc_bread_secure
                0x4a0c57bc       0x10 arch/arm/cpu/armv7/spare_head.o
 .rel.text.mmc_bwrite_mass_pro_secure
                0x4a0c57cc       0x48 arch/arm/cpu/armv7/spare_head.o
 .rel.text.mmc_bread_mass_pro_secure
                0x4a0c5814       0x38 arch/arm/cpu/armv7/spare_head.o
 .rel.text.mmc_berase_secure
                0x4a0c584c       0x10 arch/arm/cpu/armv7/spare_head.o
 .rel.text.mmc_init_blk_ops
                0x4a0c585c       0x80 arch/arm/cpu/armv7/spare_head.o
 .rel.text._skip_curr_freq
                0x4a0c58dc       0x28 arch/arm/cpu/armv7/spare_head.o
 .rel.text._get_best_sdly
                0x4a0c5904       0x18 arch/arm/cpu/armv7/spare_head.o
 .rel.text.gen_pat_bus4_1bit
                0x4a0c591c        0x8 arch/arm/cpu/armv7/spare_head.o
 .rel.text.gen_pat_bus8_1bit
                0x4a0c5924        0x8 arch/arm/cpu/armv7/spare_head.o
 .rel.text.gen_tuning_blk_bus8
                0x4a0c592c       0x28 arch/arm/cpu/armv7/spare_head.o
 .rel.text.gen_tuning_blk_bus4
                0x4a0c5954       0x28 arch/arm/cpu/armv7/spare_head.o
 .rel.text.sunxi_mmc_tuning_init
                0x4a0c597c       0x20 arch/arm/cpu/armv7/spare_head.o
 .rel.text.sunxi_mmc_tuning_exit
                0x4a0c599c        0x8 arch/arm/cpu/armv7/spare_head.o
 .rel.text.sunxi_select_freq
                0x4a0c59a4       0x40 arch/arm/cpu/armv7/spare_head.o
 .rel.text.sunxi_need_rty
                0x4a0c59e4        0x8 arch/arm/cpu/armv7/spare_head.o
 .rel.text.write_tuning_try_freq
                0x4a0c59ec       0x70 arch/arm/cpu/armv7/spare_head.o
 .rel.text.sunxi_write_tuning
                0x4a0c5a5c        0x8 arch/arm/cpu/armv7/spare_head.o
 .rel.text.sunxi_execute_tuning
                0x4a0c5a64       0xe0 arch/arm/cpu/armv7/spare_head.o
 .rel.text.sunxi_pack_tuning_result
                0x4a0c5b44       0x10 arch/arm/cpu/armv7/spare_head.o
 .rel.text.sunxi_bus_tuning
                0x4a0c5b54       0x50 arch/arm/cpu/armv7/spare_head.o
 .rel.text.sunxi_switch_to_best_bus
                0x4a0c5ba4       0x50 arch/arm/cpu/armv7/spare_head.o
 .rel.text.mmc_write_info
                0x4a0c5bf4       0x20 arch/arm/cpu/armv7/spare_head.o
 .rel.text.sunxi_decide_rty
                0x4a0c5c14       0x18 arch/arm/cpu/armv7/spare_head.o
 .rel.text.mmc_update_clk
                0x4a0c5c2c       0x10 arch/arm/cpu/armv7/spare_head.o
 .rel.text.mmc_get_mclk
                0x4a0c5c3c       0x10 arch/arm/cpu/armv7/spare_head.o
 .rel.text.mmc_config_clock_modex
                0x4a0c5c4c       0x10 arch/arm/cpu/armv7/spare_head.o
 .rel.text.mmc_core_init
                0x4a0c5c5c       0x40 arch/arm/cpu/armv7/spare_head.o
 .rel.text.mmc_dump_errinfo
                0x4a0c5c9c       0x68 arch/arm/cpu/armv7/spare_head.o
 .rel.text.mmc_clk_io_onoff
                0x4a0c5d04        0x8 arch/arm/cpu/armv7/spare_head.o
 .rel.rodata.sunxi_mmc_ops
                0x4a0c5d0c       0x30 arch/arm/cpu/armv7/spare_head.o
 .rel.data.mmc_devices
                0x4a0c5d3c       0x10 arch/arm/cpu/armv7/spare_head.o
 .rel.data.spd_name
                0x4a0c5d4c       0x28 arch/arm/cpu/armv7/spare_head.o
 .rel.text.axp_probe
                0x4a0c5d74       0x18 arch/arm/cpu/armv7/spare_head.o
 .rel.text.axp_reinit
                0x4a0c5d8c       0x18 arch/arm/cpu/armv7/spare_head.o
 .rel.text.axp_probe_startup_cause
                0x4a0c5da4        0x8 arch/arm/cpu/armv7/spare_head.o
 .rel.text.axp_set_hardware_poweron_vol
                0x4a0c5dac       0x18 arch/arm/cpu/armv7/spare_head.o
 .rel.text.axp_set_hardware_poweroff_vol
                0x4a0c5dc4       0x18 arch/arm/cpu/armv7/spare_head.o
 .rel.text.axp_set_power_off
                0x4a0c5ddc        0x8 arch/arm/cpu/armv7/spare_head.o
 .rel.text.axp_probe_factory_mode
                0x4a0c5de4       0x28 arch/arm/cpu/armv7/spare_head.o
 .rel.text.axp_set_next_poweron_status
                0x4a0c5e0c        0x8 arch/arm/cpu/armv7/spare_head.o
 .rel.text.axp_probe_pre_sys_mode
                0x4a0c5e14        0x8 arch/arm/cpu/armv7/spare_head.o
 .rel.text.axp_power_get_dcin_battery_exist
                0x00000000        0x0 arch/arm/cpu/armv7/spare_head.o
 .rel.text.axp_probe_battery_exist
                0x4a0c5e1c        0x8 arch/arm/cpu/armv7/spare_head.o
 .rel.text.axp_probe_power_source
                0x4a0c5e24        0x8 arch/arm/cpu/armv7/spare_head.o
 .rel.text.axp_probe_battery_vol
                0x4a0c5e2c        0x8 arch/arm/cpu/armv7/spare_head.o
 .rel.text.axp_probe_rest_battery_capacity
                0x4a0c5e34        0x8 arch/arm/cpu/armv7/spare_head.o
 .rel.text.axp_probe_key
                0x4a0c5e3c        0x8 arch/arm/cpu/armv7/spare_head.o
 .rel.text.axp_probe_charge_current
                0x00000000        0x0 arch/arm/cpu/armv7/spare_head.o
 .rel.text.axp_set_charge_current
                0x4a0c5e44        0x8 arch/arm/cpu/armv7/spare_head.o
 .rel.text.axp_set_charge_control
                0x00000000        0x0 arch/arm/cpu/armv7/spare_head.o
 .rel.text.axp_set_vbus_limit_dc
                0x4a0c5e4c        0x8 arch/arm/cpu/armv7/spare_head.o
 .rel.text.axp_set_vbus_limit_pc
                0x4a0c5e54        0x8 arch/arm/cpu/armv7/spare_head.o
 .rel.text.axp_set_all_limit
                0x4a0c5e5c       0x28 arch/arm/cpu/armv7/spare_head.o
 .rel.text.axp_set_suspend_chgcur
                0x4a0c5e84        0x8 arch/arm/cpu/armv7/spare_head.o
 .rel.text.axp_set_runtime_chgcur
                0x00000000        0x0 arch/arm/cpu/armv7/spare_head.o
 .rel.text.axp_set_charge_vol_limit
                0x4a0c5e8c       0x18 arch/arm/cpu/armv7/spare_head.o
 .rel.text.axp_set_power_supply_output
                0x4a0c5ea4       0x28 arch/arm/cpu/armv7/spare_head.o
 .rel.text.axp_slave_set_power_supply_output
                0x00000000        0x0 arch/arm/cpu/armv7/spare_head.o
 .rel.text.axp_probe_power_supply_condition
                0x4a0c5ecc       0x10 arch/arm/cpu/armv7/spare_head.o
 .rel.text.axp_int_query
                0x00000000        0x0 arch/arm/cpu/armv7/spare_head.o
 .rel.text.axp_set_supply_status
                0x4a0c5edc        0x8 arch/arm/cpu/armv7/spare_head.o
 .rel.text.axp_set_supply_status_byname
                0x4a0c5ee4       0x10 arch/arm/cpu/armv7/spare_head.o
 .rel.text.axp_probe_supply_status
                0x00000000        0x0 arch/arm/cpu/armv7/spare_head.o
 .rel.text.axp_probe_supply_status_byname
                0x00000000        0x0 arch/arm/cpu/armv7/spare_head.o
 .rel.text.axp_set_supply_status_byregulator
                0x4a0c5ef4       0x40 arch/arm/cpu/armv7/spare_head.o
 .rel.text.axp_probe_supply_pmu_name
                0x00000000        0x0 arch/arm/cpu/armv7/spare_head.o
 .rel.text.axp_probe_vbus_cur_limit
                0x00000000        0x0 arch/arm/cpu/armv7/spare_head.o
 .rel.text.axp_set_coulombmeter_onoff
                0x4a0c5f34        0x8 arch/arm/cpu/armv7/spare_head.o
 .rel.text.axp806_probe
                0x4a0c5f3c       0x10 arch/arm/cpu/armv7/spare_head.o
 .rel.text.axp806_set_dcdc_output
                0x4a0c5f4c       0x78 arch/arm/cpu/armv7/spare_head.o
 .rel.text.axp806_set_aldo_output
                0x4a0c5fc4       0x30 arch/arm/cpu/armv7/spare_head.o
 .rel.text.axp806_set_bldo_output
                0x4a0c5ff4       0x60 arch/arm/cpu/armv7/spare_head.o
 .rel.text.axp806_set_cldo_output
                0x4a0c6054       0x30 arch/arm/cpu/armv7/spare_head.o
 .rel.text.axp806_set_supply_status_byname
                0x4a0c6084       0x20 arch/arm/cpu/armv7/spare_head.o
 .rel.text.axp806_probe_supply_status_byname
                0x4a0c60a4       0x68 arch/arm/cpu/armv7/spare_head.o
 .rel.data.sunxi_axp_null
                0x4a0c610c       0xc8 arch/arm/cpu/armv7/spare_head.o
 .rel.data.sunxi_axp_806
                0x4a0c61d4       0xc8 arch/arm/cpu/armv7/spare_head.o
 .rel.text.sunxi_pwm_config
                0x4a0c629c        0x8 arch/arm/cpu/armv7/spare_head.o
 .rel.text.sunxi_pwm_pin_set_state
                0x4a0c62a4       0x38 arch/arm/cpu/armv7/spare_head.o
 .rel.text.sunxi_pwm_disable
                0x4a0c62dc       0x28 arch/arm/cpu/armv7/spare_head.o
 .rel.text.sunxi_pwm_enable
                0x4a0c6304       0x28 arch/arm/cpu/armv7/spare_head.o
 .rel.text.pwm_config
                0x4a0c632c        0x8 arch/arm/cpu/armv7/spare_head.o
 .rel.text.pwm_enable
                0x4a0c6334        0x8 arch/arm/cpu/armv7/spare_head.o
 .rel.text.pwm_disable
                0x4a0c633c        0x8 arch/arm/cpu/armv7/spare_head.o
 .rel.text.pwm_set_polarity
                0x4a0c6344        0x8 arch/arm/cpu/armv7/spare_head.o
 .rel.text.pwm_request
                0x4a0c634c      0x1a8 arch/arm/cpu/armv7/spare_head.o
 .rel.data.pwm_list
                0x4a0c64f4       0x10 arch/arm/cpu/armv7/spare_head.o
 .rel.data.sunxi_pwm_ops
                0x4a0c6504       0x20 arch/arm/cpu/armv7/spare_head.o
 .rel.text.get_current
                0x4a0c6524       0x10 arch/arm/cpu/armv7/spare_head.o
 .rel.text.serial_register
                0x4a0c6534        0x8 arch/arm/cpu/armv7/spare_head.o
 .rel.text.serial_stdio_init
                0x4a0c653c        0x8 arch/arm/cpu/armv7/spare_head.o
 .rel.text.serial_assign
                0x4a0c6544       0x10 arch/arm/cpu/armv7/spare_head.o
 .rel.text.serial_reinit_all
                0x00000000        0x0 arch/arm/cpu/armv7/spare_head.o
 .rel.text.on_baudrate
                0x4a0c6554       0x20 arch/arm/cpu/armv7/spare_head.o
 .rel.text._serial_putc
                0x4a0c6574        0x8 arch/arm/cpu/armv7/spare_head.o
 .rel.text._serial_putc_raw
                0x00000000        0x0 arch/arm/cpu/armv7/spare_head.o
 .rel.text._serial_getc
                0x4a0c657c        0x8 arch/arm/cpu/armv7/spare_head.o
 .rel.text._serial_tstc
                0x4a0c6584        0x8 arch/arm/cpu/armv7/spare_head.o
 .rel.text._serial_setbrg
                0x4a0c658c        0x8 arch/arm/cpu/armv7/spare_head.o
 .rel.text.default_serial_console
                0x4a0c6594        0x8 arch/arm/cpu/armv7/spare_head.o
 .rel.text.ns16550_serial_initialize
                0x4a0c659c       0x20 arch/arm/cpu/armv7/spare_head.o
 .rel.u_boot_list_2_env_clbk_2_baudrate
                0x4a0c65bc       0x10 arch/arm/cpu/armv7/spare_head.o
 .rel.data.eserial1_device
                0x4a0c65cc       0x30 arch/arm/cpu/armv7/spare_head.o
 .rel.data.eserial2_device
                0x4a0c65fc       0x30 arch/arm/cpu/armv7/spare_head.o
 .rel.data.eserial3_device
                0x4a0c662c       0x30 arch/arm/cpu/armv7/spare_head.o
 .rel.data.eserial4_device
                0x4a0c665c       0x30 arch/arm/cpu/armv7/spare_head.o
 .rel.text.sunxi_smc_call
                0x4a0c668c        0x8 arch/arm/cpu/armv7/spare_head.o
 .rel.text.smc_readl
                0x4a0c6694        0x8 arch/arm/cpu/armv7/spare_head.o
 .rel.text.smc_writel
                0x4a0c669c        0x8 arch/arm/cpu/armv7/spare_head.o
 .rel.text.smc_efuse_readl
                0x00000000        0x0 arch/arm/cpu/armv7/spare_head.o
 .rel.text.smc_efuse_writel
                0x00000000        0x0 arch/arm/cpu/armv7/spare_head.o
 .rel.text.smc_init
                0x4a0c66a4       0x28 arch/arm/cpu/armv7/spare_head.o
 .rel.text.smc_tee_ssk_encrypt
                0x4a0c66cc       0x10 arch/arm/cpu/armv7/spare_head.o
 .rel.text.smc_tee_ssk_decrypt
                0x4a0c66dc       0x10 arch/arm/cpu/armv7/spare_head.o
 .rel.text.smc_tee_rssk_encrypt
                0x4a0c66ec       0x10 arch/arm/cpu/armv7/spare_head.o
 .rel.text.smc_aes_rssk_decrypt_to_keysram
                0x4a0c66fc       0x10 arch/arm/cpu/armv7/spare_head.o
 .rel.text.smc_aes_algorithm
                0x4a0c670c       0x10 arch/arm/cpu/armv7/spare_head.o
 .rel.text.smc_tee_keybox_store
                0x4a0c671c       0x38 arch/arm/cpu/armv7/spare_head.o
 .rel.data.smc_writel_pt
                0x4a0c6754        0x8 arch/arm/cpu/armv7/spare_head.o
 .rel.data.smc_readl_pt
                0x4a0c675c        0x8 arch/arm/cpu/armv7/spare_head.o
 .rel.text.spi_set_wordlen
                0x00000000        0x0 arch/arm/cpu/armv7/spare_head.o
 .rel.text.nand_init_for_boot
                0x4a0c6764       0x70 arch/arm/cpu/armv7/spare_head.o
 .rel.text.sdmmc_init_for_boot
                0x4a0c67d4       0xb8 arch/arm/cpu/armv7/spare_head.o
 .rel.text.nand_init_for_sprite
                0x4a0c688c       0x98 arch/arm/cpu/armv7/spare_head.o
 .rel.text.sdmmc_init_for_sprite
                0x4a0c6924       0xc0 arch/arm/cpu/armv7/spare_head.o
 .rel.text.sdmmc_init_card0_for_sprite
                0x4a0c69e4       0x90 arch/arm/cpu/armv7/spare_head.o
 .rel.text.sunxi_flash_read
                0x4a0c6a74        0x8 arch/arm/cpu/armv7/spare_head.o
 .rel.text.sunxi_flash_part_read
                0x4a0c6a7c        0x8 arch/arm/cpu/armv7/spare_head.o
 .rel.text.sunxi_flash_write
                0x4a0c6a84        0x8 arch/arm/cpu/armv7/spare_head.o
 .rel.text.sunxi_flash_part_write
                0x4a0c6a8c        0x8 arch/arm/cpu/armv7/spare_head.o
 .rel.text.sunxi_flash_size
                0x00000000        0x0 arch/arm/cpu/armv7/spare_head.o
 .rel.text.sunxi_flash_exit
                0x4a0c6a94        0x8 arch/arm/cpu/armv7/spare_head.o
 .rel.text.sunxi_flash_flush
                0x4a0c6a9c        0x8 arch/arm/cpu/armv7/spare_head.o
 .rel.text.sunxi_flash_phyread
                0x4a0c6aa4        0x8 arch/arm/cpu/armv7/spare_head.o
 .rel.text.sunxi_flash_phywrite
                0x4a0c6aac        0x8 arch/arm/cpu/armv7/spare_head.o
 .rel.text.sunxi_sprite_init
                0x4a0c6ab4        0x8 arch/arm/cpu/armv7/spare_head.o
 .rel.text.sunxi_sprite_read
                0x4a0c6abc        0x8 arch/arm/cpu/armv7/spare_head.o
 .rel.text.sunxi_sprite_write
                0x4a0c6ac4        0x8 arch/arm/cpu/armv7/spare_head.o
 .rel.text.sunxi_sprite_erase
                0x4a0c6acc        0x8 arch/arm/cpu/armv7/spare_head.o
 .rel.text.sunxi_sprite_size
                0x4a0c6ad4        0x8 arch/arm/cpu/armv7/spare_head.o
 .rel.text.sunxi_sprite_exit
                0x4a0c6adc        0x8 arch/arm/cpu/armv7/spare_head.o
 .rel.text.sunxi_sprite_flush
                0x00000000        0x0 arch/arm/cpu/armv7/spare_head.o
 .rel.text.sunxi_sprite_phyread
                0x4a0c6ae4        0x8 arch/arm/cpu/armv7/spare_head.o
 .rel.text.sunxi_sprite_phywrite
                0x4a0c6aec        0x8 arch/arm/cpu/armv7/spare_head.o
 .rel.text.sunxi_sprite_force_erase
                0x4a0c6af4        0x8 arch/arm/cpu/armv7/spare_head.o
 .rel.text.sunxi_flash_boot_handle
                0x4a0c6afc       0x38 arch/arm/cpu/armv7/spare_head.o
 .rel.text.sunxi_flash_sprite_handle
                0x4a0c6b34       0x18 arch/arm/cpu/armv7/spare_head.o
 .rel.text.sunxi_flash_get_dev
                0x4a0c6b4c        0x8 arch/arm/cpu/armv7/spare_head.o
 .rel.text.sunxi_flash_init_uboot
                0x4a0c6b54       0x18 arch/arm/cpu/armv7/spare_head.o
 .rel.text.sunxi_flash_handle_init
                0x4a0c6b6c       0x10 arch/arm/cpu/armv7/spare_head.o
 .rel.text.read_boot_package
                0x4a0c6b7c       0x20 arch/arm/cpu/armv7/spare_head.o
 .rel.text.sunxi_flash_update_fdt
                0x4a0c6b9c       0x38 arch/arm/cpu/armv7/spare_head.o
 .rel.text.sunxi_flash_upload_boot0
                0x4a0c6bd4       0x10 arch/arm/cpu/armv7/spare_head.o
 .rel.text.sunxi_flash_get_boot0_size
                0x4a0c6be4       0x10 arch/arm/cpu/armv7/spare_head.o
 .rel.text.sunxi_flash_update_boot0
                0x4a0c6bf4       0x38 arch/arm/cpu/armv7/spare_head.o
 .rel.text.sunxi_flash_mmc_read
                0x4a0c6c2c        0x8 arch/arm/cpu/armv7/spare_head.o
 .rel.text.sunxi_flash_mmc_write
                0x4a0c6c34        0x8 arch/arm/cpu/armv7/spare_head.o
 .rel.text.sunxi_flash_mmc_size
                0x4a0c6c3c        0x8 arch/arm/cpu/armv7/spare_head.o
 .rel.text.sunxi_flash_mmc_phyread
                0x4a0c6c44        0x8 arch/arm/cpu/armv7/spare_head.o
 .rel.text.sunxi_flash_mmc_phywrite
                0x4a0c6c4c        0x8 arch/arm/cpu/armv7/spare_head.o
 .rel.text.sunxi_sprite_mmc_read
                0x4a0c6c54        0x8 arch/arm/cpu/armv7/spare_head.o
 .rel.text.sunxi_sprite_mmc_write
                0x4a0c6c5c        0x8 arch/arm/cpu/armv7/spare_head.o
 .rel.text.sunxi_sprite_mmc_size
                0x4a0c6c64        0x8 arch/arm/cpu/armv7/spare_head.o
 .rel.text.sunxi_sprite_mmc_phyread
                0x4a0c6c6c        0x8 arch/arm/cpu/armv7/spare_head.o
 .rel.text.sunxi_sprite_mmc_phywrite
                0x4a0c6c74        0x8 arch/arm/cpu/armv7/spare_head.o
 .rel.text.sunxi_sprite_mmc_phyerase
                0x4a0c6c7c       0x18 arch/arm/cpu/armv7/spare_head.o
 .rel.text.sunxi_sprite_mmc_phywipe
                0x00000000        0x0 arch/arm/cpu/armv7/spare_head.o
 .rel.text.sunxi_flash_mmc_secread
                0x4a0c6c94       0x10 arch/arm/cpu/armv7/spare_head.o
 .rel.text.sunxi_flash_mmc_secread_backup
                0x4a0c6ca4       0x10 arch/arm/cpu/armv7/spare_head.o
 .rel.text.sunxi_flash_mmc_secwrite
                0x4a0c6cb4       0x10 arch/arm/cpu/armv7/spare_head.o
 .rel.text.sunxi_sprite_mmc_secwrite
                0x4a0c6cc4       0x10 arch/arm/cpu/armv7/spare_head.o
 .rel.text.sunxi_sprite_mmc_secread
                0x4a0c6cd4       0x10 arch/arm/cpu/armv7/spare_head.o
 .rel.text.sunxi_sprite_mmc_secread_backup
                0x4a0c6ce4       0x10 arch/arm/cpu/armv7/spare_head.o
 .rel.text.card_read_boot0
                0x4a0c6cf4       0x10 arch/arm/cpu/armv7/spare_head.o
 .rel.data.sunxi_sprite_erase_pt
                0x4a0c6d04        0x8 arch/arm/cpu/armv7/spare_head.o
 .rel.data.sunxi_flash_phywrite_pt
                0x4a0c6d0c        0x8 arch/arm/cpu/armv7/spare_head.o
 .rel.data.sunxi_sprite_force_erase_pt
                0x4a0c6d14        0x8 arch/arm/cpu/armv7/spare_head.o
 .rel.data.sunxi_flash_phyread_pt
                0x4a0c6d1c        0x8 arch/arm/cpu/armv7/spare_head.o
 .rel.data.sunxi_flash_flush_pt
                0x4a0c6d24        0x8 arch/arm/cpu/armv7/spare_head.o
 .rel.data.sunxi_flash_exit_pt
                0x4a0c6d2c        0x8 arch/arm/cpu/armv7/spare_head.o
 .rel.data.sunxi_flash_write_pt
                0x4a0c6d34        0x8 arch/arm/cpu/armv7/spare_head.o
 .rel.data.sunxi_sprite_init_pt
                0x4a0c6d3c        0x8 arch/arm/cpu/armv7/spare_head.o
 .rel.data.sunxi_sprite_read_pt
                0x4a0c6d44        0x8 arch/arm/cpu/armv7/spare_head.o
 .rel.data.sunxi_sprite_phywrite_pt
                0x4a0c6d4c        0x8 arch/arm/cpu/armv7/spare_head.o
 .rel.data.sunxi_flash_size_pt
                0x4a0c6d54        0x8 arch/arm/cpu/armv7/spare_head.o
 .rel.data.sunxi_sprite_phyread_pt
                0x4a0c6d5c        0x8 arch/arm/cpu/armv7/spare_head.o
 .rel.data.sunxi_flash_init_pt
                0x4a0c6d64        0x8 arch/arm/cpu/armv7/spare_head.o
 .rel.data.sunxi_flash_read_pt
                0x4a0c6d6c        0x8 arch/arm/cpu/armv7/spare_head.o
 .rel.data.sunxi_sprite_flush_pt
                0x4a0c6d74        0x8 arch/arm/cpu/armv7/spare_head.o
 .rel.data.sunxi_sprite_size_pt
                0x4a0c6d7c        0x8 arch/arm/cpu/armv7/spare_head.o
 .rel.data.sunxi_sprite_write_pt
                0x4a0c6d84        0x8 arch/arm/cpu/armv7/spare_head.o
 .rel.data.sunxi_sprite_exit_pt
                0x4a0c6d8c        0x8 arch/arm/cpu/armv7/spare_head.o
 .rel.text.fs_probe_unsupported
                0x4a0c6d94        0x8 arch/arm/cpu/armv7/spare_head.o
 .rel.text.fs_get_info
                0x4a0c6d9c        0x8 arch/arm/cpu/armv7/spare_head.o
 .rel.text.fs_close
                0x4a0c6da4        0x8 arch/arm/cpu/armv7/spare_head.o
 .rel.text.fs_set_blk_dev
                0x4a0c6dac       0x20 arch/arm/cpu/armv7/spare_head.o
 .rel.text.fs_ls
                0x4a0c6dcc        0x8 arch/arm/cpu/armv7/spare_head.o
 .rel.text.fs_exists
                0x4a0c6dd4        0x8 arch/arm/cpu/armv7/spare_head.o
 .rel.text.fs_read
                0x4a0c6ddc       0x10 arch/arm/cpu/armv7/spare_head.o
 .rel.text.fs_write
                0x00000000        0x0 arch/arm/cpu/armv7/spare_head.o
 .rel.text.do_load
                0x4a0c6dec       0x48 arch/arm/cpu/armv7/spare_head.o
 .rel.text.do_aw_load
                0x4a0c6e34       0x48 arch/arm/cpu/armv7/spare_head.o
 .rel.text.do_ls
                0x4a0c6e7c        0x8 arch/arm/cpu/armv7/spare_head.o
 .rel.text.do_save
                0x00000000        0x0 arch/arm/cpu/armv7/spare_head.o
 .rel.text.downcase
                0x4a0c6e84        0x8 arch/arm/cpu/armv7/spare_head.o
 .rel.text.disk_read
                0x4a0c6e8c       0x10 arch/arm/cpu/armv7/spare_head.o
 .rel.text.read_bootsectandvi
                0x4a0c6e9c       0x20 arch/arm/cpu/armv7/spare_head.o
 .rel.text.get_cluster
                0x4a0c6ebc        0x8 arch/arm/cpu/armv7/spare_head.o
 .rel.text.get_vfatname
                0x4a0c6ec4       0x10 arch/arm/cpu/armv7/spare_head.o
 .rel.text.fat_set_blk_dev
                0x4a0c6ed4       0x28 arch/arm/cpu/armv7/spare_head.o
 .rel.text.fat_register_device
                0x00000000        0x0 arch/arm/cpu/armv7/spare_head.o
 .rel.text.do_fat_read_at
                0x4a0c6efc       0x58 arch/arm/cpu/armv7/spare_head.o
 .rel.text.file_fat_detectfs
                0x4a0c6f54       0xb0 arch/arm/cpu/armv7/spare_head.o
 .rel.text.file_fat_read_at
                0x4a0c7004        0x8 arch/arm/cpu/armv7/spare_head.o
 .rel.text.fat_read_file
                0x4a0c700c        0x8 arch/arm/cpu/armv7/spare_head.o
 .rel.text.file_getfsname
                0x00000000        0x0 arch/arm/cpu/armv7/spare_head.o
 .rel.text.file_cd
                0x00000000        0x0 arch/arm/cpu/armv7/spare_head.o
 .rel.text.file_detectfs
                0x00000000        0x0 arch/arm/cpu/armv7/spare_head.o
 .rel.text.file_ls
                0x00000000        0x0 arch/arm/cpu/armv7/spare_head.o
 .rel.text.file_read
                0x00000000        0x0 arch/arm/cpu/armv7/spare_head.o
 .rel.rodata.filesystems
                0x00000000        0x0 arch/arm/cpu/armv7/spare_head.o
 .rel.data.fstypes
                0x4a0c7014       0x60 arch/arm/cpu/armv7/spare_head.o
 .rel.text.inflate_fast
                0x4a0c7074       0x18 arch/arm/cpu/armv7/spare_head.o
 .rel.text.inflate_table
                0x4a0c708c       0x20 arch/arm/cpu/armv7/spare_head.o
 .rel.text.inflateInit2_
                0x4a0c70ac       0x10 arch/arm/cpu/armv7/spare_head.o
 .rel.text.inflate
                0x4a0c70bc      0x188 arch/arm/cpu/armv7/spare_head.o
 .rel.text.crc7
                0x00000000        0x0 arch/arm/cpu/armv7/spare_head.o
 .rel.text.cyg_crc16
                0x00000000        0x0 arch/arm/cpu/armv7/spare_head.o
 .rel.text.fdtdec_get_compatible
                0x00000000        0x0 arch/arm/cpu/armv7/spare_head.o
 .rel.text.fdtdec_get_is_enabled
                0x4a0c7244       0x10 arch/arm/cpu/armv7/spare_head.o
 .rel.text.fdtdec_lookup
                0x00000000        0x0 arch/arm/cpu/armv7/spare_head.o
 .rel.text.fdtdec_next_compatible
                0x00000000        0x0 arch/arm/cpu/armv7/spare_head.o
 .rel.text.fdtdec_next_compatible_subnode
                0x00000000        0x0 arch/arm/cpu/armv7/spare_head.o
 .rel.text.fdtdec_next_alias
                0x00000000        0x0 arch/arm/cpu/armv7/spare_head.o
 .rel.text.fdtdec_add_aliases_for_id
                0x00000000        0x0 arch/arm/cpu/armv7/spare_head.o
 .rel.text.fdtdec_prepare_fdt
                0x4a0c7254        0x8 arch/arm/cpu/armv7/spare_head.o
 .rel.text.fdtdec_get_config_int
                0x4a0c725c        0x8 arch/arm/cpu/armv7/spare_head.o
 .rel.text.fdtdec_get_config_bool
                0x00000000        0x0 arch/arm/cpu/armv7/spare_head.o
 .rel.text.fdtdec_get_config_string
                0x4a0c7264        0x8 arch/arm/cpu/armv7/spare_head.o
 .rel.text.fdtdec_read_fmap_entry
                0x00000000        0x0 arch/arm/cpu/armv7/spare_head.o
 .rel.text.zunzip
                0x4a0c726c       0x28 arch/arm/cpu/armv7/spare_head.o
 .rel.text.gunzip
                0x4a0c7294       0x10 arch/arm/cpu/armv7/spare_head.o
 .rel.text.initcall_run_list
                0x4a0c72a4        0x8 arch/arm/cpu/armv7/spare_head.o
 .rel.text.lmb_alloc_base
                0x4a0c72ac        0x8 arch/arm/cpu/armv7/spare_head.o
 .rel.text.strmhz
                0x00000000        0x0 arch/arm/cpu/armv7/spare_head.o
 .rel.text.match_string.isra.3
                0x4a0c72b4        0x8 arch/arm/cpu/armv7/spare_head.o
 .rel.text.hcreate_r
                0x4a0c72bc        0x8 arch/arm/cpu/armv7/spare_head.o
 .rel.text.hdestroy_r
                0x4a0c72c4        0x8 arch/arm/cpu/armv7/spare_head.o
 .rel.text.hmatch_r
                0x4a0c72cc        0x8 arch/arm/cpu/armv7/spare_head.o
 .rel.text.hsearch_r
                0x4a0c72d4        0x8 arch/arm/cpu/armv7/spare_head.o
 .rel.text.hdelete_r
                0x4a0c72dc        0x8 arch/arm/cpu/armv7/spare_head.o
 .rel.text.hexport_r
                0x4a0c72e4       0x18 arch/arm/cpu/armv7/spare_head.o
 .rel.text.himport_r
                0x4a0c72fc       0x20 arch/arm/cpu/armv7/spare_head.o
 .rel.text.display_options
                0x4a0c731c       0x10 arch/arm/cpu/armv7/spare_head.o
 .rel.text.print_size
                0x4a0c732c       0x28 arch/arm/cpu/armv7/spare_head.o
 .rel.text.print_buffer
                0x4a0c7354       0x28 arch/arm/cpu/armv7/spare_head.o
 .rel.text.crc32_no_comp
                0x4a0c737c        0x8 arch/arm/cpu/armv7/spare_head.o
 .rel.text.hang
                0x4a0c7384        0x8 arch/arm/cpu/armv7/spare_head.o
 .rel.text.skip_spaces
                0x4a0c738c        0x8 arch/arm/cpu/armv7/spare_head.o
 .rel.text.strim
                0x4a0c7394        0x8 arch/arm/cpu/armv7/spare_head.o
 .rel.text.strncasecmp
                0x00000000        0x0 arch/arm/cpu/armv7/spare_head.o
 .rel.text.strtok
                0x00000000        0x0 arch/arm/cpu/armv7/spare_head.o
 .rel.text.number.isra.1
                0x4a0c739c        0x8 arch/arm/cpu/armv7/spare_head.o
 .rel.text.vsnprintf_internal.isra.3
                0x4a0c73a4       0x10 arch/arm/cpu/armv7/spare_head.o
 .rel.text.simple_strtoul
                0x4a0c73b4        0x8 arch/arm/cpu/armv7/spare_head.o
 .rel.text.simple_strtoull
                0x4a0c73bc        0x8 arch/arm/cpu/armv7/spare_head.o
 .rel.text.__assert_fail
                0x00000000        0x0 arch/arm/cpu/armv7/spare_head.o
 .rel.text.simple_itoa
                0x4a0c73c4        0x8 arch/arm/cpu/armv7/spare_head.o
 .rel.text.print_grouped_ull
                0x00000000        0x0 arch/arm/cpu/armv7/spare_head.o
 .rel.rodata.z_errmsg
                0x00000000        0x0 arch/arm/cpu/armv7/spare_head.o
 .rel.rodata.compat_names
                0x00000000        0x0 arch/arm/cpu/armv7/spare_head.o
 .rel.text.fdt_next_tag
                0x4a0c73cc       0x48 arch/arm/cpu/armv7/spare_head.o
 .rel.text.fdt_get_phandle
                0x4a0c7414       0x10 arch/arm/cpu/armv7/spare_head.o
 .rel.text.fdt_get_alias_namelen
                0x4a0c7424        0x8 arch/arm/cpu/armv7/spare_head.o
 .rel.text.fdt_node_check_compatible
                0x00000000        0x0 arch/arm/cpu/armv7/spare_head.o
 .rel.text.fdt_strerror
                0x4a0c742c       0x20 arch/arm/cpu/armv7/spare_head.o
 .rel.text.fdt_find_regions
                0x00000000        0x0 arch/arm/cpu/armv7/spare_head.o
 .rel.text.fdt_create_empty_tree
                0x00000000        0x0 arch/arm/cpu/armv7/spare_head.o
 .rel.rodata.fdt_errtable
                0x4a0c744c       0x58 arch/arm/cpu/armv7/spare_head.o
 .rel.text.OPENSSL_cleanse
                0x4a0c74a4        0x8 arch/arm/cpu/armv7/spare_head.o
 .rel.text.reset_CRYPTO_reset
                0x4a0c74ac        0x8 arch/arm/cpu/armv7/spare_head.o
 .rel.text.reset_OBJ_nid2ln_reset
                0x4a0c74b4        0x8 arch/arm/cpu/armv7/spare_head.o
 .rel.text.OBJ_nid2ln
                0x00000000        0x0 arch/arm/cpu/armv7/spare_head.o
 .rel.text.OBJ_obj2nid
                0x4a0c74bc       0x18 arch/arm/cpu/armv7/spare_head.o
 .rel.text.OBJ_nid2obj
                0x4a0c74d4       0x10 arch/arm/cpu/armv7/spare_head.o
 .rel.text.OBJ_nid2sn
                0x00000000        0x0 arch/arm/cpu/armv7/spare_head.o
 .rel.text.OBJ_obj2name
                0x00000000        0x0 arch/arm/cpu/armv7/spare_head.o
 .rel.text.c2i_ASN1_INTEGER
                0x4a0c74e4        0x8 arch/arm/cpu/armv7/spare_head.o
 .rel.text.c2i_ASN1_BIT_STRING
                0x4a0c74ec        0x8 arch/arm/cpu/armv7/spare_head.o
 .rel.text.ASN1_OBJECT_new
                0x4a0c74f4        0x8 arch/arm/cpu/armv7/spare_head.o
 .rel.text.c2i_ASN1_OBJECT
                0x4a0c74fc        0x8 arch/arm/cpu/armv7/spare_head.o
 .rel.text.asn1_enc_save
                0x4a0c7504        0x8 arch/arm/cpu/armv7/spare_head.o
 .rel.text.asn1_do_adb
                0x4a0c750c        0x8 arch/arm/cpu/armv7/spare_head.o
 .rel.text.ASN1_primitive_new
                0x4a0c7514       0x60 arch/arm/cpu/armv7/spare_head.o
 .rel.text.asn1_item_clear
                0x4a0c7574       0x38 arch/arm/cpu/armv7/spare_head.o
 .rel.text.ASN1_template_new
                0x4a0c75ac        0x8 arch/arm/cpu/armv7/spare_head.o
 .rel.text.asn1_item_ex_combine_new
                0x4a0c75b4       0x40 arch/arm/cpu/armv7/spare_head.o
 .rel.text.ASN1_primitive_free
                0x4a0c75f4       0x58 arch/arm/cpu/armv7/spare_head.o
 .rel.text.asn1_item_combine_free
                0x4a0c764c       0x38 arch/arm/cpu/armv7/spare_head.o
 .rel.text.ASN1_get_object
                0x4a0c7684        0x8 arch/arm/cpu/armv7/spare_head.o
 .rel.text.ASN1_STRING_type_new
                0x4a0c768c        0x8 arch/arm/cpu/armv7/spare_head.o
 .rel.text.ASN1_STRING_set
                0x4a0c7694        0x8 arch/arm/cpu/armv7/spare_head.o
 .rel.text.d2i_PublicKey
                0x4a0c769c        0x8 arch/arm/cpu/armv7/spare_head.o
 .rel.text.asn1_check_tlen
                0x4a0c76a4        0x8 arch/arm/cpu/armv7/spare_head.o
 .rel.text.ASN1_INTEGER_it
                0x4a0c76ac        0x8 arch/arm/cpu/armv7/spare_head.o
 .rel.text.ASN1_OBJECT_it
                0x4a0c76b4        0x8 arch/arm/cpu/armv7/spare_head.o
 .rel.text.ASN1_OCTET_STRING_it
                0x4a0c76bc        0x8 arch/arm/cpu/armv7/spare_head.o
 .rel.text.ASN1_ANY_it
                0x4a0c76c4        0x8 arch/arm/cpu/armv7/spare_head.o
 .rel.text.ASN1_BIT_STRING_it
                0x4a0c76cc        0x8 arch/arm/cpu/armv7/spare_head.o
 .rel.text.ASN1_IA5STRING_it
                0x00000000        0x0 arch/arm/cpu/armv7/spare_head.o
 .rel.text.ASN1_BOOLEAN_it
                0x4a0c76d4        0x8 arch/arm/cpu/armv7/spare_head.o
 .rel.text.i2d_ASN1_TYPE
                0x00000000        0x0 arch/arm/cpu/armv7/spare_head.o
 .rel.text.ASN1_TYPE_new
                0x4a0c76dc        0x8 arch/arm/cpu/armv7/spare_head.o
 .rel.text.ASN1_TYPE_free
                0x4a0c76e4        0x8 arch/arm/cpu/armv7/spare_head.o
 .rel.text.asn1_ex_c2i
                0x4a0c76ec        0x8 arch/arm/cpu/armv7/spare_head.o
 .rel.text.ASN1_item_ex_d2i
                0x4a0c76f4       0x18 arch/arm/cpu/armv7/spare_head.o
 .rel.text.asn1_template_noexp_d2i
                0x4a0c770c        0x8 arch/arm/cpu/armv7/spare_head.o
 .rel.text.asn1_template_ex_d2i
                0x4a0c7714        0x8 arch/arm/cpu/armv7/spare_head.o
 .rel.text.d2i_ASN1_TYPE
                0x00000000        0x0 arch/arm/cpu/armv7/spare_head.o
 .rel.text.reset_D2I_reset
                0x4a0c771c        0x8 arch/arm/cpu/armv7/spare_head.o
 .rel.text.EVP_PKEY_new
                0x4a0c7724        0x8 arch/arm/cpu/armv7/spare_head.o
 .rel.text.i2a_ASN1_INTEGER
                0x00000000        0x0 arch/arm/cpu/armv7/spare_head.o
 .rel.text.i2d_PublicKey
                0x4a0c772c        0x8 arch/arm/cpu/armv7/spare_head.o
 .rel.text.X509_PUBKEY_it
                0x4a0c7734        0x8 arch/arm/cpu/armv7/spare_head.o
 .rel.text.d2i_X509_PUBKEY
                0x00000000        0x0 arch/arm/cpu/armv7/spare_head.o
 .rel.text.i2d_X509_PUBKEY
                0x00000000        0x0 arch/arm/cpu/armv7/spare_head.o
 .rel.text.X509_PUBKEY_new
                0x00000000        0x0 arch/arm/cpu/armv7/spare_head.o
 .rel.text.X509_PUBKEY_free
                0x00000000        0x0 arch/arm/cpu/armv7/spare_head.o
 .rel.text.BIGNUM_it
                0x4a0c773c        0x8 arch/arm/cpu/armv7/spare_head.o
 .rel.text.X509_CINF_it
                0x4a0c7744        0x8 arch/arm/cpu/armv7/spare_head.o
 .rel.text.X509_it
                0x00000000        0x0 arch/arm/cpu/armv7/spare_head.o
 .rel.text.d2i_X509
                0x4a0c774c        0x8 arch/arm/cpu/armv7/spare_head.o
 .rel.text.i2d_X509
                0x00000000        0x0 arch/arm/cpu/armv7/spare_head.o
 .rel.text.X509_new
                0x00000000        0x0 arch/arm/cpu/armv7/spare_head.o
 .rel.text.X509_free
                0x4a0c7754        0x8 arch/arm/cpu/armv7/spare_head.o
 .rel.text.RSAPublicKey_it
                0x00000000        0x0 arch/arm/cpu/armv7/spare_head.o
 .rel.text.d2i_RSAPublicKey
                0x4a0c775c        0x8 arch/arm/cpu/armv7/spare_head.o
 .rel.text.i2d_RSAPublicKey
                0x4a0c7764        0x8 arch/arm/cpu/armv7/spare_head.o
 .rel.text.ASN1_item_ex_i2d
                0x4a0c776c       0x38 arch/arm/cpu/armv7/spare_head.o
 .rel.text.sk_new
                0x4a0c77a4        0x8 arch/arm/cpu/armv7/spare_head.o
 .rel.text.sk_insert
                0x4a0c77ac        0x8 arch/arm/cpu/armv7/spare_head.o
 .rel.text.X509_EXTENSION_it
                0x4a0c77b4        0x8 arch/arm/cpu/armv7/spare_head.o
 .rel.text.X509_ALGOR_it
                0x4a0c77bc        0x8 arch/arm/cpu/armv7/spare_head.o
 .rel.text.BN_new
                0x4a0c77c4        0x8 arch/arm/cpu/armv7/spare_head.o
 .rel.text.bn_expand2
                0x4a0c77cc        0x8 arch/arm/cpu/armv7/spare_head.o
 .rel.text.BN_num_bits_word
                0x4a0c77d4        0x8 arch/arm/cpu/armv7/spare_head.o
 .rel.text.BN_bn2dec
                0x00000000        0x0 arch/arm/cpu/armv7/spare_head.o
 .rel.text.def_get_class
                0x4a0c77dc       0x20 arch/arm/cpu/armv7/spare_head.o
 .rel.text.int_free_ex_data
                0x4a0c77fc        0x8 arch/arm/cpu/armv7/spare_head.o
 .rel.text.int_new_ex_data
                0x4a0c7804        0x8 arch/arm/cpu/armv7/spare_head.o
 .rel.text.CRYPTO_new_ex_data
                0x4a0c780c       0x10 arch/arm/cpu/armv7/spare_head.o
 .rel.text.CRYPTO_free_ex_data
                0x4a0c781c       0x10 arch/arm/cpu/armv7/spare_head.o
 .rel.text.BIO_new
                0x00000000        0x0 arch/arm/cpu/armv7/spare_head.o
 .rel.text.reset_BIO_reset
                0x4a0c782c       0x10 arch/arm/cpu/armv7/spare_head.o
 .rel.text.doapr_outch
                0x00000000        0x0 arch/arm/cpu/armv7/spare_head.o
 .rel.text.fmtint
                0x00000000        0x0 arch/arm/cpu/armv7/spare_head.o
 .rel.text._dopr
                0x00000000        0x0 arch/arm/cpu/armv7/spare_head.o
 .rel.text.BIO_s_mem
                0x00000000        0x0 arch/arm/cpu/armv7/spare_head.o
 .rel.text.BUF_MEM_new
                0x00000000        0x0 arch/arm/cpu/armv7/spare_head.o
 .rel.text.BUF_MEM_grow_clean
                0x4a0c783c        0x8 arch/arm/cpu/armv7/spare_head.o
 .rel.text.mem_write
                0x00000000        0x0 arch/arm/cpu/armv7/spare_head.o
 .rel.text.BIO_read
                0x00000000        0x0 arch/arm/cpu/armv7/spare_head.o
 .rel.text.lh_insert
                0x4a0c7844        0x8 arch/arm/cpu/armv7/spare_head.o
 .rel.text.lh_new
                0x4a0c784c       0x10 arch/arm/cpu/armv7/spare_head.o
 .rel.text.RSA_new_method
                0x4a0c785c       0x10 arch/arm/cpu/armv7/spare_head.o
 .rel.text.__asn1_probe_data_head
                0x4a0c786c        0x8 arch/arm/cpu/armv7/spare_head.o
 .rel.text.__sample_atoi
                0x00000000        0x0 arch/arm/cpu/armv7/spare_head.o
 .rel.text.sunxi_certif_create
                0x4a0c7874        0x8 arch/arm/cpu/armv7/spare_head.o
 .rel.text.sunxi_certif_probe_serial_num
                0x00000000        0x0 arch/arm/cpu/armv7/spare_head.o
 .rel.text.sunxi_certif_probe_version
                0x00000000        0x0 arch/arm/cpu/armv7/spare_head.o
 .rel.text.sunxi_certif_probe_pubkey
                0x4a0c787c       0x38 arch/arm/cpu/armv7/spare_head.o
 .rel.text.sunxi_bytes_merge
                0x00000000        0x0 arch/arm/cpu/armv7/spare_head.o
 .rel.text.sunxi_certif_probe_extension
                0x00000000        0x0 arch/arm/cpu/armv7/spare_head.o
 .rel.text.sunxi_certif_probe_ext
                0x00000000        0x0 arch/arm/cpu/armv7/spare_head.o
 .rel.text.sunxi_certif_verify_itself
                0x00000000        0x0 arch/arm/cpu/armv7/spare_head.o
 .rel.rodata.local_it.10851
                0x4a0c78b4        0x8 arch/arm/cpu/armv7/spare_head.o
 .rel.rodata.local_it.10847
                0x4a0c78bc        0x8 arch/arm/cpu/armv7/spare_head.o
 .rel.rodata.local_it.10855
                0x4a0c78c4        0x8 arch/arm/cpu/armv7/spare_head.o
 .rel.rodata.local_it.10863
                0x4a0c78cc        0x8 arch/arm/cpu/armv7/spare_head.o
 .rel.rodata.local_it.10859
                0x4a0c78d4        0x8 arch/arm/cpu/armv7/spare_head.o
 .rel.rodata.local_it.10871
                0x4a0c78dc        0x8 arch/arm/cpu/armv7/spare_head.o
 .rel.rodata.local_it.10867
                0x00000000        0x0 arch/arm/cpu/armv7/spare_head.o
 .rel.rodata.X509_PUBKEY_seq_tt
                0x4a0c78e4       0x20 arch/arm/cpu/armv7/spare_head.o
 .rel.rodata.X509_PUBKEY_aux
                0x4a0c7904        0x8 arch/arm/cpu/armv7/spare_head.o
 .rel.rodata.local_it.11693
                0x4a0c790c       0x18 arch/arm/cpu/armv7/spare_head.o
 .rel.rodata.local_it.6698
                0x4a0c7924       0x10 arch/arm/cpu/armv7/spare_head.o
 .rel.rodata.local_it.11687
                0x4a0c7934       0x18 arch/arm/cpu/armv7/spare_head.o
 .rel.rodata.X509_seq_tt
                0x4a0c794c       0x30 arch/arm/cpu/armv7/spare_head.o
 .rel.rodata.local_it.11702
                0x4a0c797c       0x18 arch/arm/cpu/armv7/spare_head.o
 .rel.rodata.X509_CINF_seq_tt
                0x4a0c7994       0x40 arch/arm/cpu/armv7/spare_head.o
 .rel.rodata.X509_aux
                0x4a0c79d4        0x8 arch/arm/cpu/armv7/spare_head.o
 .rel.rodata.local_it.11692
                0x4a0c79dc       0x18 arch/arm/cpu/armv7/spare_head.o
 .rel.rodata.RSAPublicKey_seq_tt
                0x4a0c79f4       0x20 arch/arm/cpu/armv7/spare_head.o
 .rel.rodata.RSAPublicKey_aux
                0x4a0c7a14        0x8 arch/arm/cpu/armv7/spare_head.o
 .rel.rodata.local_it.11686
                0x4a0c7a1c       0x10 arch/arm/cpu/armv7/spare_head.o
 .rel.rodata.X509_EXTENSION_seq_tt
                0x4a0c7a2c       0x30 arch/arm/cpu/armv7/spare_head.o
 .rel.rodata.X509_ALGOR_seq_tt
                0x4a0c7a5c       0x20 arch/arm/cpu/armv7/spare_head.o
 .rel.rodata.local_it.11691
                0x4a0c7a7c       0x10 arch/arm/cpu/armv7/spare_head.o
 .rel.rodata.mem_method
                0x00000000        0x0 arch/arm/cpu/armv7/spare_head.o
 .rel.rodata.rsa_pkcs1_eay_meth
                0x4a0c7a8c        0x8 arch/arm/cpu/armv7/spare_head.o
 .rel.data.obj_objs
                0x4a0c7a94       0xb8 arch/arm/cpu/armv7/spare_head.o
 .rel.data.nid_objs
                0x4a0c7b4c      0x228 arch/arm/cpu/armv7/spare_head.o
 .rel.data.bignum_pf
                0x4a0c7d74       0x20 arch/arm/cpu/armv7/spare_head.o
 .rel.data.impl_default
                0x4a0c7d94       0x10 arch/arm/cpu/armv7/spare_head.o
 .rel.text.compare_regions
                0x4a0c7da4       0x18 arch/arm/cpu/armv7/spare_head.o
 .rel.text.test_stuck_address
                0x4a0c7dbc       0x48 arch/arm/cpu/armv7/spare_head.o
 .rel.text.test_random_value
                0x4a0c7e04       0x28 arch/arm/cpu/armv7/spare_head.o
 .rel.text.test_solidbits_comparison
                0x4a0c7e2c       0x28 arch/arm/cpu/armv7/spare_head.o
 .rel.text.test_checkerboard_comparison
                0x4a0c7e54       0x28 arch/arm/cpu/armv7/spare_head.o
 .rel.text.test_blockseq_comparison
                0x4a0c7e7c       0x28 arch/arm/cpu/armv7/spare_head.o
 .rel.text.test_walkbits0_comparison
                0x4a0c7ea4       0x28 arch/arm/cpu/armv7/spare_head.o
 .rel.text.test_walkbits1_comparison
                0x4a0c7ecc       0x28 arch/arm/cpu/armv7/spare_head.o
 .rel.text.test_bitspread_comparison
                0x4a0c7ef4       0x28 arch/arm/cpu/armv7/spare_head.o
 .rel.text.test_bitflip_comparison
                0x4a0c7f1c       0x28 arch/arm/cpu/armv7/spare_head.o
 .rel.text.NAND_set_boot_mode
                0x4a0c7f44        0x8 arch/arm/cpu/armv7/spare_head.o
 .rel.text.NAND_Print
                0x4a0c7f4c       0x10 arch/arm/cpu/armv7/spare_head.o
 .rel.text.NAND_Print_DBG
                0x4a0c7f5c       0x10 arch/arm/cpu/armv7/spare_head.o
 .rel.text._get_ndfc_clk_v1
                0x4a0c7f6c        0x8 arch/arm/cpu/armv7/spare_head.o
 .rel.text._change_ndfc_clk_v1
                0x4a0c7f74        0x8 arch/arm/cpu/armv7/spare_head.o
 .rel.text._close_ndfc_clk_v1
                0x4a0c7f7c        0x8 arch/arm/cpu/armv7/spare_head.o
 .rel.text._open_ndfc_ahb_gate_and_reset_v1
                0x4a0c7f84        0x8 arch/arm/cpu/armv7/spare_head.o
 .rel.text._close_ndfc_ahb_gate_and_reset_v1
                0x4a0c7f8c        0x8 arch/arm/cpu/armv7/spare_head.o
 .rel.text._cfg_ndfc_gpio_v1
                0x00000000        0x0 arch/arm/cpu/armv7/spare_head.o
 .rel.text.NAND_ClkRequest
                0x4a0c7f94       0x10 arch/arm/cpu/armv7/spare_head.o
 .rel.text.NAND_ClkRelease
                0x4a0c7fa4        0x8 arch/arm/cpu/armv7/spare_head.o
 .rel.text.NAND_SetClk
                0x4a0c7fac       0x10 arch/arm/cpu/armv7/spare_head.o
 .rel.text.NAND_GetClk
                0x4a0c7fbc        0x8 arch/arm/cpu/armv7/spare_head.o
 .rel.text.NAND_PIORequest
                0x4a0c7fc4       0x30 arch/arm/cpu/armv7/spare_head.o
 .rel.text.NAND_PIOFuncChange_DQSc
                0x00000000        0x0 arch/arm/cpu/armv7/spare_head.o
 .rel.text.NAND_PIOFuncChange_REc
                0x00000000        0x0 arch/arm/cpu/armv7/spare_head.o
 .rel.text.NAND_Malloc
                0x4a0c7ff4       0x10 arch/arm/cpu/armv7/spare_head.o
 .rel.text.NAND_AllocMemoryForDMADescs
                0x00000000        0x0 arch/arm/cpu/armv7/spare_head.o
 .rel.text.nand_request_dma
                0x4a0c8004       0x18 arch/arm/cpu/armv7/spare_head.o
 .rel.text.NAND_ReleaseDMA
                0x4a0c801c       0x10 arch/arm/cpu/armv7/spare_head.o
 .rel.text.nand_dma_config_start
                0x4a0c802c       0x18 arch/arm/cpu/armv7/spare_head.o
 .rel.text.NAND_GetNandExtPara
                0x4a0c8044       0x18 arch/arm/cpu/armv7/spare_head.o
 .rel.text.NAND_GetNandIDNumCtrl
                0x4a0c805c       0x20 arch/arm/cpu/armv7/spare_head.o
 .rel.text.NAND_GetNandCapacityLevel
                0x4a0c807c       0x20 arch/arm/cpu/armv7/spare_head.o
 .rel.text.NAND_Print_Version
                0x4a0c809c        0x8 arch/arm/cpu/armv7/spare_head.o
 .rel.text.__NAND_UpdatePhyArch
                0x00000000        0x0 arch/arm/cpu/armv7/spare_head.o
 .rel.text.NAND_PhyInit
                0x4a0c80a4       0x18 arch/arm/cpu/armv7/spare_head.o
 .rel.text.NAND_PhyExit
                0x4a0c80bc        0x8 arch/arm/cpu/armv7/spare_head.o
 .rel.text.NAND_LogicInit
                0x4a0c80c4       0x70 arch/arm/cpu/armv7/spare_head.o
 .rel.text.NAND_LogicExit
                0x4a0c8134       0x10 arch/arm/cpu/armv7/spare_head.o
 .rel.text.NAND_build_all_partition
                0x00000000        0x0 arch/arm/cpu/armv7/spare_head.o
 .rel.text.NAND_VersionCheck
                0x4a0c8144       0x50 arch/arm/cpu/armv7/spare_head.o
 .rel.text.NAND_EraseBootBlocks
                0x4a0c8194        0x8 arch/arm/cpu/armv7/spare_head.o
 .rel.text.NAND_UbootInit
                0x4a0c819c       0x20 arch/arm/cpu/armv7/spare_head.o
 .rel.text.NAND_Uboot_Erase
                0x4a0c81bc       0x18 arch/arm/cpu/armv7/spare_head.o
 .rel.text.NAND_Uboot_Force_Erase
                0x4a0c81d4       0x10 arch/arm/cpu/armv7/spare_head.o
 .rel.text.NAND_GetParam_store
                0x4a0c81e4       0x28 arch/arm/cpu/armv7/spare_head.o
 .rel.text.nand_get_mbr
                0x4a0c820c       0x18 arch/arm/cpu/armv7/spare_head.o
 .rel.text.nand_uboot_init
                0x4a0c8224       0x18 arch/arm/cpu/armv7/spare_head.o
 .rel.text.nand_uboot_exit
                0x4a0c823c       0x20 arch/arm/cpu/armv7/spare_head.o
 .rel.text.nand_write_boot0
                0x4a0c825c       0x18 arch/arm/cpu/armv7/spare_head.o
 .rel.text.nand_force_download_uboot
                0x4a0c8274       0x10 arch/arm/cpu/armv7/spare_head.o
 .rel.text.nand_get_dev
                0x00000000        0x0 arch/arm/cpu/armv7/spare_head.o
 .rel.text.nand_init_uboot
                0x00000000        0x0 arch/arm/cpu/armv7/spare_head.o
 .rel.text.initqueue
                0x00000000        0x0 arch/arm/cpu/armv7/spare_head.o
 .rel.text.destroyqueue
                0x00000000        0x0 arch/arm/cpu/armv7/spare_head.o
 .rel.text.sunxi_queue_init
                0x00000000        0x0 arch/arm/cpu/armv7/spare_head.o
 .rel.text.sunxi_queue_destroy
                0x00000000        0x0 arch/arm/cpu/armv7/spare_head.o
 .rel.text.sunxi_queue_reset
                0x00000000        0x0 arch/arm/cpu/armv7/spare_head.o
 .rel.text.sunxi_queue_isempty
                0x00000000        0x0 arch/arm/cpu/armv7/spare_head.o
 .rel.text.sunxi_queue_isfull
                0x00000000        0x0 arch/arm/cpu/armv7/spare_head.o
 .rel.text.sunxi_inqueue_query
                0x00000000        0x0 arch/arm/cpu/armv7/spare_head.o
 .rel.text.sunxi_queue_in
                0x00000000        0x0 arch/arm/cpu/armv7/spare_head.o
 .rel.text.sunxi_outqueue_query
                0x00000000        0x0 arch/arm/cpu/armv7/spare_head.o
 .rel.text.sunxi_queue_out
                0x00000000        0x0 arch/arm/cpu/armv7/spare_head.o
 .rel.text.__download_normal_part
                0x4a0c8284       0xb8 arch/arm/cpu/armv7/spare_head.o
 .rel.text.sprite_card_firmware_probe
                0x4a0c833c        0x8 arch/arm/cpu/armv7/spare_head.o
 .rel.text.sprite_card_fetch_download_map
                0x4a0c8344       0x28 arch/arm/cpu/armv7/spare_head.o
 .rel.text.sprite_card_fetch_mbr
                0x4a0c836c       0x28 arch/arm/cpu/armv7/spare_head.o
 .rel.text.sunxi_sprite_deal_part
                0x4a0c8394       0xe8 arch/arm/cpu/armv7/spare_head.o
 .rel.text.sunxi_sprite_deal_uboot
                0x4a0c847c       0x58 arch/arm/cpu/armv7/spare_head.o
 .rel.text.sunxi_sprite_deal_boot0
                0x4a0c84d4       0x58 arch/arm/cpu/armv7/spare_head.o
 .rel.text.sunxi_sprite_deal_recorvery_boot
                0x4a0c852c       0xa8 arch/arm/cpu/armv7/spare_head.o
 .rel.text.card_download_boot0
                0x4a0c85d4       0x20 arch/arm/cpu/armv7/spare_head.o
 .rel.text.card_download_standard_mbr
                0x4a0c85f4       0x10 arch/arm/cpu/armv7/spare_head.o
 .rel.text.card_erase
                0x4a0c8604       0x48 arch/arm/cpu/armv7/spare_head.o
 .rel.text.sunxi_card_fill_boot0_magic
                0x00000000        0x0 arch/arm/cpu/armv7/spare_head.o
 .rel.text.sunxi_sprite_deal_part_from_sysrevoery
                0x4a0c864c       0x68 arch/arm/cpu/armv7/spare_head.o
 .rel.text.__imagehd
                0x4a0c86b4        0x8 arch/arm/cpu/armv7/spare_head.o
 .rel.text.TFInitial
                0x00000000        0x0 arch/arm/cpu/armv7/spare_head.o
 .rel.text.qp   0x00000000        0x0 arch/arm/cpu/armv7/spare_head.o
 .rel.text.gen_mtab
                0x00000000        0x0 arch/arm/cpu/armv7/spare_head.o
 .rel.text.unsparse_probe
                0x4a0c86bc       0x48 arch/arm/cpu/armv7/spare_head.o
 .rel.text.unsparse_direct_write
                0x4a0c8704       0xb0 arch/arm/cpu/armv7/spare_head.o
 .rel.text.unsparse_checksum
                0x4a0c87b4        0x8 arch/arm/cpu/armv7/spare_head.o
 .rel.text.dump_dram_para
                0x4a0c87bc        0x8 arch/arm/cpu/armv7/spare_head.o
 .rel.text.sunxi_sprite_download_mbr
                0x4a0c87c4       0x30 arch/arm/cpu/armv7/spare_head.o
 .rel.text.sunxi_sprite_download_uboot
                0x4a0c87f4       0x58 arch/arm/cpu/armv7/spare_head.o
 .rel.text.sunxi_sprite_download_boot0
                0x4a0c884c       0x68 arch/arm/cpu/armv7/spare_head.o
 .rel.text.sunxi_download_boot0_atfter_ota
                0x4a0c88b4       0x40 arch/arm/cpu/armv7/spare_head.o
 .rel.text.sunxi_sprite_part_rawdata_verify
                0x4a0c88f4       0x10 arch/arm/cpu/armv7/spare_head.o
 .rel.text.sunxi_sprite_verify_mbr
                0x4a0c8904       0x60 arch/arm/cpu/armv7/spare_head.o
 .rel.text.sunxi_sprite_verify_dlmap
                0x4a0c8964        0x8 arch/arm/cpu/armv7/spare_head.o
 .rel.text.Img_Open
                0x4a0c896c       0x40 arch/arm/cpu/armv7/spare_head.o
 .rel.text.Img_Fat_Open
                0x00000000        0x0 arch/arm/cpu/armv7/spare_head.o
 .rel.text.Img_GetSize
                0x4a0c89ac        0x8 arch/arm/cpu/armv7/spare_head.o
 .rel.text.Img_OpenItem
                0x4a0c89b4       0x10 arch/arm/cpu/armv7/spare_head.o
 .rel.text.Img_GetItemSize
                0x4a0c89c4        0x8 arch/arm/cpu/armv7/spare_head.o
 .rel.text.Img_GetItemStart
                0x4a0c89cc       0x10 arch/arm/cpu/armv7/spare_head.o
 .rel.text.Img_GetItemOffset
                0x00000000        0x0 arch/arm/cpu/armv7/spare_head.o
 .rel.text.Img_ReadItem
                0x4a0c89dc       0x28 arch/arm/cpu/armv7/spare_head.o
 .rel.text.Img_Fat_ReadItem
                0x00000000        0x0 arch/arm/cpu/armv7/spare_head.o
 .rel.text.Img_CloseItem
                0x4a0c8a04        0x8 arch/arm/cpu/armv7/spare_head.o
 .rel.text.Img_Close
                0x4a0c8a0c        0x8 arch/arm/cpu/armv7/spare_head.o
 .rel.text.sunxi_sprite_store_part_data
                0x4a0c8a14       0x50 arch/arm/cpu/armv7/spare_head.o
 .rel.text.sunxi_sprite_restore_part_data
                0x4a0c8a64       0x38 arch/arm/cpu/armv7/spare_head.o
 .rel.text.sunxi_sprite_probe_prvt
                0x4a0c8a9c       0x10 arch/arm/cpu/armv7/spare_head.o
 .rel.text.sunxi_sprite_erase_private_key
                0x4a0c8aac       0x30 arch/arm/cpu/armv7/spare_head.o
 .rel.text.sprite_card_finish_tip
                0x4a0c8adc       0x18 arch/arm/cpu/armv7/spare_head.o
 .rel.text.__dump_dlmap
                0x4a0c8af4       0x50 arch/arm/cpu/armv7/spare_head.o
 .rel.text.__dump_mbr
                0x4a0c8b44       0x50 arch/arm/cpu/armv7/spare_head.o
 .rel.text.sunxi_card_sprite_main
                0x4a0c8b94       0xe8 arch/arm/cpu/armv7/spare_head.o
 .rel.text.sunxi_sprite_erase_flash
                0x4a0c8c7c       0x78 arch/arm/cpu/armv7/spare_head.o
 .rel.text.sunxi_sprite_force_erase_key
                0x4a0c8cf4       0x28 arch/arm/cpu/armv7/spare_head.o
 .rel.text.Img_Open_from_sysrecovery
                0x4a0c8d1c       0x40 arch/arm/cpu/armv7/spare_head.o
 .rel.text.card_part_info
                0x4a0c8d5c        0x8 arch/arm/cpu/armv7/spare_head.o
 .rel.text.sprite_erase_partition_by_name
                0x4a0c8d64       0x40 arch/arm/cpu/armv7/spare_head.o
 .rel.text.sprite_form_sysrecovery
                0x4a0c8da4       0xa0 arch/arm/cpu/armv7/spare_head.o
 .rel.text.sprite_timer_func
                0x4a0c8e44       0x20 arch/arm/cpu/armv7/spare_head.o
 .rel.text.sprite_led_init
                0x4a0c8e64       0x60 arch/arm/cpu/armv7/spare_head.o
 .rel.text.sprite_led_exit
                0x4a0c8ec4       0x40 arch/arm/cpu/armv7/spare_head.o
 .rel.text.post_cmd_wait_resp
                0x4a0c8f04       0x30 arch/arm/cpu/armv7/spare_head.o
 .rel.text.sst_oem_item_id
                0x4a0c8f34        0x8 arch/arm/cpu/armv7/spare_head.o
 .rel.text.smc_load_sst_encrypt
                0x4a0c8f3c       0x28 arch/arm/cpu/armv7/spare_head.o
 .rel.text.smc_load_sst_decrypt
                0x4a0c8f64       0x28 arch/arm/cpu/armv7/spare_head.o
 .rel.text.smc_set_sst_crypt_name
                0x4a0c8f8c       0x10 arch/arm/cpu/armv7/spare_head.o
 .rel.text.smc_load_sst_test
                0x4a0c8f9c       0x38 arch/arm/cpu/armv7/spare_head.o
 .rel.text.check_secure_storage_map
                0x4a0c8fd4       0x10 arch/arm/cpu/armv7/spare_head.o
 .rel.text.check_secure_storage_key
                0x4a0c8fe4       0x10 arch/arm/cpu/armv7/spare_head.o
 .rel.text.__probe_name_in_map.constprop.3
                0x4a0c8ff4       0x10 arch/arm/cpu/armv7/spare_head.o
 .rel.text.sunxi_secstorage_read
                0x4a0c9004       0x98 arch/arm/cpu/armv7/spare_head.o
 .rel.text.sunxi_secstorage_write
                0x4a0c909c       0x18 arch/arm/cpu/armv7/spare_head.o
 .rel.text.sunxi_secure_storage_init
                0x4a0c90b4       0x20 arch/arm/cpu/armv7/spare_head.o
 .rel.text.sunxi_secure_storage_exit
                0x4a0c90d4       0x30 arch/arm/cpu/armv7/spare_head.o
 .rel.text.sunxi_secure_storage_list
                0x4a0c9104       0x38 arch/arm/cpu/armv7/spare_head.o
 .rel.text.sunxi_secure_storage_probe
                0x00000000        0x0 arch/arm/cpu/armv7/spare_head.o
 .rel.text.sunxi_secure_storage_read
                0x4a0c913c       0x28 arch/arm/cpu/armv7/spare_head.o
 .rel.text.sunxi_secure_storage_erase_data_only
                0x4a0c9164       0x38 arch/arm/cpu/armv7/spare_head.o
 .rel.text.sunxi_secure_storage_write
                0x4a0c919c       0x68 arch/arm/cpu/armv7/spare_head.o
 .rel.text.sunxi_secure_storage_erase
                0x00000000        0x0 arch/arm/cpu/armv7/spare_head.o
 .rel.text.sunxi_secure_storage_erase_all
                0x4a0c9204       0x30 arch/arm/cpu/armv7/spare_head.o
 .rel.text.clear_secure_store
                0x4a0c9234       0x28 arch/arm/cpu/armv7/spare_head.o
 .rel.text.sunxi_secure_object_read
                0x4a0c925c       0x28 arch/arm/cpu/armv7/spare_head.o
 .rel.text.sunxi_secure_object_list
                0x4a0c9284       0x50 arch/arm/cpu/armv7/spare_head.o
 .rel.text.cmd_secure_object
                0x4a0c92d4       0x48 arch/arm/cpu/armv7/spare_head.o
 .rel.text.sunxi_secure_object_set
                0x4a0c931c       0x10 arch/arm/cpu/armv7/spare_head.o
 .rel.text.sunxi_secure_object_write
                0x4a0c932c       0x10 arch/arm/cpu/armv7/spare_head.o
 .rel.text.sunxi_secure_object_down
                0x4a0c933c       0x28 arch/arm/cpu/armv7/spare_head.o
 .rel.text.sunxi_secure_object_up
                0x4a0c9364        0x8 arch/arm/cpu/armv7/spare_head.o
 .rel.text.sunxi_widevine_keybox_install
                0x4a0c936c       0x38 arch/arm/cpu/armv7/spare_head.o
 .rel.u_boot_list_2_cmd_2_sunxi_so
                0x4a0c93a4       0x20 arch/arm/cpu/armv7/spare_head.o
 .rel.text.sunxi_mass_reset
                0x4a0c93c4       0x10 arch/arm/cpu/armv7/spare_head.o
 .rel.text.sunxi_mass_usb_rx_dma_isr
                0x4a0c93d4        0x8 arch/arm/cpu/armv7/spare_head.o
 .rel.text.sunxi_mass_state_loop
                0x4a0c93dc       0x90 arch/arm/cpu/armv7/spare_head.o
 .rel.text.sunxi_mass_standard_req_op
                0x4a0c946c       0xc8 arch/arm/cpu/armv7/spare_head.o
 .rel.text.sunxi_mass_exit
                0x4a0c9534        0x8 arch/arm/cpu/armv7/spare_head.o
 .rel.text.sunxi_mass_nonstandard_req_op
                0x4a0c953c       0x10 arch/arm/cpu/armv7/spare_head.o
 .rel.text.sunxi_mass_init
                0x4a0c954c       0x28 arch/arm/cpu/armv7/spare_head.o
 .rel.text.sunxi_efex_reset
                0x4a0c9574       0x20 arch/arm/cpu/armv7/spare_head.o
 .rel.text.sunxi_efex_usb_rx_dma_isr
                0x4a0c9594        0x8 arch/arm/cpu/armv7/spare_head.o
 .rel.text.__sunxi_usb_efex_fill_status
                0x4a0c959c        0x8 arch/arm/cpu/armv7/spare_head.o
 .rel.text.__sunxi_usb_efex_op_cmd
                0x4a0c95a4       0xf0 arch/arm/cpu/armv7/spare_head.o
 .rel.text.dram_data_recv_finish
                0x4a0c9694       0x80 arch/arm/cpu/armv7/spare_head.o
 .rel.text.sunxi_efex_state_loop
                0x4a0c9714      0x140 arch/arm/cpu/armv7/spare_head.o
 .rel.text.sunxi_efex_standard_req_op
                0x4a0c9854       0xc0 arch/arm/cpu/armv7/spare_head.o
 .rel.text.sunxi_efex_exit
                0x4a0c9914       0x10 arch/arm/cpu/armv7/spare_head.o
 .rel.text.sunxi_efex_init
                0x4a0c9924       0x40 arch/arm/cpu/armv7/spare_head.o
 .rel.text.sunxi_efex_nonstandard_req_op
                0x4a0c9964       0x10 arch/arm/cpu/armv7/spare_head.o
 .rel.text.sunxi_fastboot_reset
                0x4a0c9974       0x10 arch/arm/cpu/armv7/spare_head.o
 .rel.text.sunxi_fastboot_usb_tx_dma_isr
                0x4a0c9984        0x8 arch/arm/cpu/armv7/spare_head.o
 .rel.text.sunxi_fastboot_usb_rx_dma_isr
                0x4a0c998c       0x10 arch/arm/cpu/armv7/spare_head.o
 .rel.text.sunxi_fastboot_locked
                0x4a0c999c        0x8 arch/arm/cpu/armv7/spare_head.o
 .rel.text.__fastboot_reboot
                0x4a0c99a4        0x8 arch/arm/cpu/armv7/spare_head.o
 .rel.text.__limited_fastboot
                0x4a0c99ac       0x10 arch/arm/cpu/armv7/spare_head.o
 .rel.text.sunxi_fastboot_state_loop
                0x4a0c99bc      0x2e8 arch/arm/cpu/armv7/spare_head.o
 .rel.text.sunxi_fastboot_standard_req_op
                0x4a0c9ca4       0xc8 arch/arm/cpu/armv7/spare_head.o
 .rel.text.sunxi_fastboot_exit
                0x4a0c9d6c       0x10 arch/arm/cpu/armv7/spare_head.o
 .rel.text.sunxi_pburn_reset
                0x4a0c9d7c       0x10 arch/arm/cpu/armv7/spare_head.o
 .rel.text.sunxi_pburn_usb_rx_dma_isr
                0x4a0c9d8c        0x8 arch/arm/cpu/armv7/spare_head.o
 .rel.text.sunxi_pburn_exit
                0x4a0c9d94        0x8 arch/arm/cpu/armv7/spare_head.o
 .rel.text.sunxi_pburn_standard_req_op
                0x4a0c9d9c       0xc0 arch/arm/cpu/armv7/spare_head.o
 .rel.text.sunxi_pburn_init
                0x4a0c9e5c       0x28 arch/arm/cpu/armv7/spare_head.o
 .rel.text.sunxi_pburn_nonstandard_req_op
                0x4a0c9e84       0x10 arch/arm/cpu/armv7/spare_head.o
 .rel.text.sunxi_deal_hdcp_key
                0x4a0c9e94       0x30 arch/arm/cpu/armv7/spare_head.o
 .rel.text.arm_svc_efuse_read
                0x00000000        0x0 arch/arm/cpu/armv7/spare_head.o
 .rel.text.__sunxi_burn_key
                0x4a0c9ec4       0xe8 arch/arm/cpu/armv7/spare_head.o
 .rel.text.__sunxi_read_key_by_name
                0x4a0c9fac       0x78 arch/arm/cpu/armv7/spare_head.o
 .rel.text.__sunxi_erase_key
                0x4a0ca024       0x20 arch/arm/cpu/armv7/spare_head.o
 .rel.text.__sunxi_burn_flag
                0x4a0ca044       0x28 arch/arm/cpu/armv7/spare_head.o
 .rel.text.sunxi_burn_part_verify
                0x4a0ca06c       0x18 arch/arm/cpu/armv7/spare_head.o
 .rel.text.burn_part_probe
                0x4a0ca084       0x50 arch/arm/cpu/armv7/spare_head.o
 .rel.text.sunxi_pburn_state_loop
                0x4a0ca0d4      0x2c8 arch/arm/cpu/armv7/spare_head.o
 .rel.text.sunxi_usb_dev_register
                0x4a0ca39c       0x48 arch/arm/cpu/armv7/spare_head.o
 .rel.text.buf_queue_init
                0x4a0ca3e4       0x60 arch/arm/cpu/armv7/spare_head.o
 .rel.text.buf_queue_exit
                0x4a0ca444       0x30 arch/arm/cpu/armv7/spare_head.o
 .rel.text.buf_queue_empty
                0x4a0ca474        0x8 arch/arm/cpu/armv7/spare_head.o
 .rel.text.buf_queue_full
                0x4a0ca47c       0x10 arch/arm/cpu/armv7/spare_head.o
 .rel.text.buf_queue_free_size
                0x4a0ca48c       0x10 arch/arm/cpu/armv7/spare_head.o
 .rel.text.buf_queue_get_page_size
                0x4a0ca49c        0x8 arch/arm/cpu/armv7/spare_head.o
 .rel.text.buf_enqueue
                0x4a0ca4a4       0x18 arch/arm/cpu/armv7/spare_head.o
 .rel.text.buf_dequeue
                0x4a0ca4bc       0x10 arch/arm/cpu/armv7/spare_head.o
 .rel.text.efex_queue_init
                0x4a0ca4cc       0x18 arch/arm/cpu/armv7/spare_head.o
 .rel.text.efex_queue_exit
                0x4a0ca4e4        0x8 arch/arm/cpu/armv7/spare_head.o
 .rel.text.efex_queue_write_one_page
                0x4a0ca4ec       0x10 arch/arm/cpu/armv7/spare_head.o
 .rel.text.efex_queue_write_all_page
                0x4a0ca4fc       0x10 arch/arm/cpu/armv7/spare_head.o
 .rel.text.efex_save_buff_to_queue
                0x4a0ca50c        0x8 arch/arm/cpu/armv7/spare_head.o
 .rel.text.hdcp_key_parse
                0x4a0ca514       0x28 arch/arm/cpu/armv7/spare_head.o
 .rel.text.__usb_bulk_ep_reset
                0x4a0ca53c        0x8 arch/arm/cpu/armv7/spare_head.o
 .rel.text.__usb_read_ep0_data
                0x4a0ca544       0x10 arch/arm/cpu/armv7/spare_head.o
 .rel.text.sunxi_usb_irq
                0x4a0ca554       0xf0 arch/arm/cpu/armv7/spare_head.o
 .rel.text.sunxi_usb_init
                0x4a0ca644       0x50 arch/arm/cpu/armv7/spare_head.o
 .rel.text.sunxi_usb_exit
                0x4a0ca694       0x18 arch/arm/cpu/armv7/spare_head.o
 .rel.text.sunxi_udc_start_recv_by_dma
                0x4a0ca6ac       0x20 arch/arm/cpu/armv7/spare_head.o
 .rel.text.sunxi_udc_send_setup
                0x4a0ca6cc        0x8 arch/arm/cpu/armv7/spare_head.o
 .rel.text.sunxi_udc_set_address
                0x4a0ca6d4        0x8 arch/arm/cpu/armv7/spare_head.o
 .rel.text.sunxi_udc_send_data
                0x4a0ca6dc       0x10 arch/arm/cpu/armv7/spare_head.o
 .rel.text.sunxi_udc_get_ep_max
                0x4a0ca6ec        0x8 arch/arm/cpu/armv7/spare_head.o
 .rel.text.sunxi_usb_main_loop
                0x4a0ca6f4       0x28 arch/arm/cpu/armv7/spare_head.o
 .rel.text.sunxi_usb_extern_loop
                0x4a0ca71c       0x10 arch/arm/cpu/armv7/spare_head.o
 .rel.text.__usb_index_check
                0x4a0ca72c       0x18 arch/arm/cpu/armv7/spare_head.o
 .rel.text.usb_dma_init
                0x4a0ca744        0x8 arch/arm/cpu/armv7/spare_head.o
 .rel.text.usb_dma_request
                0x4a0ca74c        0x8 arch/arm/cpu/armv7/spare_head.o
 .rel.text.usb_dma_release
                0x4a0ca754        0x8 arch/arm/cpu/armv7/spare_head.o
 .rel.text.usb_dma_setting
                0x4a0ca75c        0x8 arch/arm/cpu/armv7/spare_head.o
 .rel.text.usb_dma_set_pktlen
                0x4a0ca764        0x8 arch/arm/cpu/armv7/spare_head.o
 .rel.text.usb_dma_start
                0x4a0ca76c        0x8 arch/arm/cpu/armv7/spare_head.o
 .rel.text.usb_dma_stop
                0x4a0ca774        0x8 arch/arm/cpu/armv7/spare_head.o
 .rel.text.usb_dma_int_query
                0x4a0ca77c        0x8 arch/arm/cpu/armv7/spare_head.o
 .rel.text.usb_dma_int_clear
                0x4a0ca784        0x8 arch/arm/cpu/armv7/spare_head.o
 .rel.data.sunxi_usb_mass_dev
                0x4a0ca78c       0x20 arch/arm/cpu/armv7/spare_head.o
 .rel.data.setup_req_1
                0x4a0ca7ac       0x40 arch/arm/cpu/armv7/spare_head.o
 .rel.data.setup_req_2
                0x4a0ca7ec       0x40 arch/arm/cpu/armv7/spare_head.o
 .rel.data.setup_req_3
                0x4a0ca82c       0x40 arch/arm/cpu/armv7/spare_head.o
 .rel.data.sunxi_usb_fastboot_dev
                0x4a0ca86c       0x30 arch/arm/cpu/armv7/spare_head.o
 .rel.data.sunxi_usb_pburn_dev
                0x00000000        0x0 arch/arm/cpu/armv7/spare_head.o
 .rel.data.setup_req_4
                0x4a0ca89c       0x40 arch/arm/cpu/armv7/spare_head.o
 .rel.text.raise
                0x4a0ca8dc        0x8 arch/arm/cpu/armv7/spare_head.o
 .rel.text.print_free_list
                0x4a0ca8e4       0x20 arch/arm/cpu/armv7/spare_head.o
 .rel.text.print_block_invalid_list
                0x4a0ca904       0x20 arch/arm/cpu/armv7/spare_head.o
 .rel.text.print_block_count_list
                0x00000000        0x0 arch/arm/cpu/armv7/spare_head.o
 .rel.text.put_phy_block_to_free_list
                0x4a0ca924        0x8 arch/arm/cpu/armv7/spare_head.o
 .rel.text.put_phy_block_to_invalid_page_list
                0x4a0ca92c        0x8 arch/arm/cpu/armv7/spare_head.o
 .rel.text.phy_block_from_invalid_page_incr
                0x4a0ca934       0x10 arch/arm/cpu/armv7/spare_head.o
 .rel.text._nftl_nand_read_logic_page
                0x4a0ca944        0x8 arch/arm/cpu/armv7/spare_head.o
 .rel.text.do_write_error
                0x4a0ca94c       0x10 arch/arm/cpu/armv7/spare_head.o
 .rel.text.write_phy_data_to_current_block
                0x4a0ca95c       0x20 arch/arm/cpu/armv7/spare_head.o
 .rel.text.write_logic_data_to_current_block
                0x4a0ca97c       0x18 arch/arm/cpu/armv7/spare_head.o
 .rel.text.write_data_to_page
                0x4a0ca994        0x8 arch/arm/cpu/armv7/spare_head.o
 .rel.text.get_new_current_block
                0x4a0ca99c       0x10 arch/arm/cpu/armv7/spare_head.o
 .rel.text.new_block_init_for_write
                0x4a0ca9ac        0x8 arch/arm/cpu/armv7/spare_head.o
 .rel.text.do_before_write
                0x4a0ca9b4       0x10 arch/arm/cpu/armv7/spare_head.o
 .rel.text.check_invalid_page_right
                0x4a0ca9c4       0x10 arch/arm/cpu/armv7/spare_head.o
 .rel.text.write_phy_page_map_to_current_block
                0x4a0ca9d4        0x8 arch/arm/cpu/armv7/spare_head.o
 .rel.text.nftl_ops_init
                0x4a0ca9dc       0x48 arch/arm/cpu/armv7/spare_head.o
 .rel.text.do_after_write
                0x4a0caa24       0x18 arch/arm/cpu/armv7/spare_head.o
 .rel.text.nand_write_data_page
                0x4a0caa3c       0x20 arch/arm/cpu/armv7/spare_head.o
 .rel.text._nftl_nand_write_logic_page
                0x4a0caa5c        0x8 arch/arm/cpu/armv7/spare_head.o
 .rel.text.fill_no_use_data_to_page
                0x00000000        0x0 arch/arm/cpu/armv7/spare_head.o
 .rel.text.check_static_wear_leveling
                0x00000000        0x0 arch/arm/cpu/armv7/spare_head.o
 .rel.text.garbage_collect_first
                0x4a0caa64       0x60 arch/arm/cpu/armv7/spare_head.o
 .rel.text.gc_one
                0x4a0caac4       0x10 arch/arm/cpu/armv7/spare_head.o
 .rel.text.gc_win_block
                0x4a0caad4        0x8 arch/arm/cpu/armv7/spare_head.o
 .rel.text.gc_all
                0x00000000        0x0 arch/arm/cpu/armv7/spare_head.o
 .rel.text.garbage_collect
                0x4a0caadc       0x18 arch/arm/cpu/armv7/spare_head.o
 .rel.text.done_static_wear_leveling
                0x00000000        0x0 arch/arm/cpu/armv7/spare_head.o
 .rel.text.do_prio_gc
                0x4a0caaf4       0x30 arch/arm/cpu/armv7/spare_head.o
 .rel.text.nftl_cache_init
                0x4a0cab24        0x8 arch/arm/cpu/armv7/spare_head.o
 .rel.text.nand_cache_read
                0x4a0cab2c       0x10 arch/arm/cpu/armv7/spare_head.o
 .rel.text.nand_op
                0x4a0cab3c       0x18 arch/arm/cpu/armv7/spare_head.o
 .rel.text.__nand_write
                0x4a0cab54        0x8 arch/arm/cpu/armv7/spare_head.o
 .rel.text.__nand_read
                0x4a0cab5c        0x8 arch/arm/cpu/armv7/spare_head.o
 .rel.text.flush_write_cache_to_nand
                0x4a0cab64        0x8 arch/arm/cpu/armv7/spare_head.o
 .rel.text.nand_cache_write
                0x4a0cab6c       0x20 arch/arm/cpu/armv7/spare_head.o
 .rel.text.__nand_flush_write_cache
                0x4a0cab8c       0x10 arch/arm/cpu/armv7/spare_head.o
 .rel.text.nand_discard
                0x4a0cab9c        0x8 arch/arm/cpu/armv7/spare_head.o
 .rel.text.__nand_discard
                0x4a0caba4        0x8 arch/arm/cpu/armv7/spare_head.o
 .rel.text.print_logic_page_map
                0x00000000        0x0 arch/arm/cpu/armv7/spare_head.o
 .rel.text.read_reclaim
                0x00000000        0x0 arch/arm/cpu/armv7/spare_head.o
 .rel.text.nftl_sector_cache_init
                0x00000000        0x0 arch/arm/cpu/armv7/spare_head.o
 .rel.text.nand_sector_cache_read
                0x00000000        0x0 arch/arm/cpu/armv7/spare_head.o
 .rel.text.nand_sector_cache_write
                0x00000000        0x0 arch/arm/cpu/armv7/spare_head.o
 .rel.text.__nand_flush_sector_write_cache
                0x00000000        0x0 arch/arm/cpu/armv7/spare_head.o
 .rel.text.malloc_logic_page_map
                0x4a0cabac        0x8 arch/arm/cpu/armv7/spare_head.o
 .rel.text.zone_param_init
                0x4a0cabb4       0x28 arch/arm/cpu/armv7/spare_head.o
 .rel.text.init_zone_after_first_scan
                0x4a0cabdc       0x18 arch/arm/cpu/armv7/spare_head.o
 .rel.text.recover_phy_page_mapping
                0x4a0cabf4       0x28 arch/arm/cpu/armv7/spare_head.o
 .rel.text.recover_block_phy_page_mapping
                0x4a0cac1c        0x8 arch/arm/cpu/armv7/spare_head.o
 .rel.text.recover_logic_page_mapping
                0x4a0cac24       0x18 arch/arm/cpu/armv7/spare_head.o
 .rel.text.do_write_error_in_build_list
                0x00000000        0x0 arch/arm/cpu/armv7/spare_head.o
 .rel.text.init_nrc
                0x4a0cac3c        0x8 arch/arm/cpu/armv7/spare_head.o
 .rel.text.erase_block
                0x4a0cac44       0x10 arch/arm/cpu/armv7/spare_head.o
 .rel.text.first_scan_all_blocks
                0x4a0cac54       0x58 arch/arm/cpu/armv7/spare_head.o
 .rel.text.build_zone_list_first
                0x4a0cacac       0x10 arch/arm/cpu/armv7/spare_head.o
 .rel.text.is_no_use_device
                0x4a0cacbc        0x8 arch/arm/cpu/armv7/spare_head.o
 .rel.text.get_used_page_num
                0x4a0cacc4       0x20 arch/arm/cpu/armv7/spare_head.o
 .rel.text.cross_talk_rebuild_current_block
                0x4a0cace4       0x50 arch/arm/cpu/armv7/spare_head.o
 .rel.text.get_used_page_num_no_crosstalk
                0x4a0cad34       0x10 arch/arm/cpu/armv7/spare_head.o
 .rel.text.no_cross_talk_rebuild_current_block
                0x4a0cad44       0x60 arch/arm/cpu/armv7/spare_head.o
 .rel.text.current_block_ecc_error
                0x4a0cada4       0x40 arch/arm/cpu/armv7/spare_head.o
 .rel.text.get_current_used_block
                0x4a0cade4       0x60 arch/arm/cpu/armv7/spare_head.o
 .rel.text.second_scan_all_blocks
                0x4a0cae44       0x90 arch/arm/cpu/armv7/spare_head.o
 .rel.text.block_last_page_ecc_error
                0x00000000        0x0 arch/arm/cpu/armv7/spare_head.o
 .rel.text.print_nftl_zone
                0x4a0caed4      0x190 arch/arm/cpu/armv7/spare_head.o
 .rel.text.build_zone_list
                0x4a0cb064       0x20 arch/arm/cpu/armv7/spare_head.o
 .rel.text.nand_dbg_phy_read
                0x00000000        0x0 arch/arm/cpu/armv7/spare_head.o
 .rel.text.nand_dbg_zone_phy_read
                0x00000000        0x0 arch/arm/cpu/armv7/spare_head.o
 .rel.text.nand_clean_zone_table2
                0x00000000        0x0 arch/arm/cpu/armv7/spare_head.o
 .rel.text.nand_find_zone_table
                0x00000000        0x0 arch/arm/cpu/armv7/spare_head.o
 .rel.text.nand_check_table
                0x00000000        0x0 arch/arm/cpu/armv7/spare_head.o
 .rel.text.nftl_start
                0x4a0cb084       0x38 arch/arm/cpu/armv7/spare_head.o
 .rel.text.print_smart
                0x4a0cb0bc       0xa8 arch/arm/cpu/armv7/spare_head.o
 .rel.text.nftl_malloc
                0x4a0cb164        0x8 arch/arm/cpu/armv7/spare_head.o
 .rel.text.nftl_initialize
                0x4a0cb16c       0x50 arch/arm/cpu/armv7/spare_head.o
 .rel.text.nftl_add
                0x4a0cb1bc       0x20 arch/arm/cpu/armv7/spare_head.o
 .rel.text.nftl_build_one
                0x4a0cb1dc       0x10 arch/arm/cpu/armv7/spare_head.o
 .rel.text.nftl_build_all
                0x4a0cb1ec       0x10 arch/arm/cpu/armv7/spare_head.o
 .rel.text.nand_ftl_exit
                0x00000000        0x0 arch/arm/cpu/armv7/spare_head.o
 .rel.text.print_all_nftl_blk
                0x00000000        0x0 arch/arm/cpu/armv7/spare_head.o
 .rel.text.get_nftl_num
                0x00000000        0x0 arch/arm/cpu/armv7/spare_head.o
 .rel.text.get_nftl_cap
                0x4a0cb1fc        0x8 arch/arm/cpu/armv7/spare_head.o
 .rel.text.get_first_nftl_cap
                0x00000000        0x0 arch/arm/cpu/armv7/spare_head.o
 .rel.text.nftl_read
                0x4a0cb204       0x10 arch/arm/cpu/armv7/spare_head.o
 .rel.text.nftl_write
                0x4a0cb214       0x10 arch/arm/cpu/armv7/spare_head.o
 .rel.text.nftl_discard
                0x00000000        0x0 arch/arm/cpu/armv7/spare_head.o
 .rel.text.nftl_flush_write_cache
                0x4a0cb224        0x8 arch/arm/cpu/armv7/spare_head.o
 .rel.text.build_nand_partition
                0x4a0cb22c       0x38 arch/arm/cpu/armv7/spare_head.o
 .rel.text.add_new_bad_block
                0x4a0cb264        0x8 arch/arm/cpu/armv7/spare_head.o
 .rel.text.put_factory_bad_block
                0x4a0cb26c        0x8 arch/arm/cpu/armv7/spare_head.o
 .rel.text.print_phy_partition
                0x4a0cb274       0x60 arch/arm/cpu/armv7/spare_head.o
 .rel.text.print_all_bad_block
                0x4a0cb2d4       0x18 arch/arm/cpu/armv7/spare_head.o
 .rel.text.build_phy_partition
                0x4a0cb2ec       0x38 arch/arm/cpu/armv7/spare_head.o
 .rel.text.erase_phy_partition
                0x00000000        0x0 arch/arm/cpu/armv7/spare_head.o
 .rel.text.erase_last_phy_partition
                0x00000000        0x0 arch/arm/cpu/armv7/spare_head.o
 .rel.text.write_mbr
                0x4a0cb324       0x18 arch/arm/cpu/armv7/spare_head.o
 .rel.text.write_factory_block_table
                0x4a0cb33c       0x20 arch/arm/cpu/armv7/spare_head.o
 .rel.text.print_factory_block_table
                0x4a0cb35c        0x8 arch/arm/cpu/armv7/spare_head.o
 .rel.text.write_new_block_table
                0x00000000        0x0 arch/arm/cpu/armv7/spare_head.o
 .rel.text.write_no_use_block
                0x4a0cb364       0x18 arch/arm/cpu/armv7/spare_head.o
 .rel.text.read_new_bad_block_table
                0x4a0cb37c       0x20 arch/arm/cpu/armv7/spare_head.o
 .rel.text.print_nand_info
                0x4a0cb39c       0x88 arch/arm/cpu/armv7/spare_head.o
 .rel.text.build_all_phy_partition
                0x4a0cb424       0x50 arch/arm/cpu/armv7/spare_head.o
 .rel.text.nand_info_init_v1
                0x4a0cb474       0x68 arch/arm/cpu/armv7/spare_head.o
 .rel.text.debug_read_block
                0x00000000        0x0 arch/arm/cpu/armv7/spare_head.o
 .rel.text.debug_read_chip
                0x00000000        0x0 arch/arm/cpu/armv7/spare_head.o
 .rel.text.print_partition
                0x4a0cb4dc       0x48 arch/arm/cpu/armv7/spare_head.o
 .rel.text.launch_build_phy_partition
                0x4a0cb524       0x40 arch/arm/cpu/armv7/spare_head.o
 .rel.text.mp_build_phy_partition
                0x4a0cb564       0x40 arch/arm/cpu/armv7/spare_head.o
 .rel.text.print_boot_info
                0x4a0cb5a4       0x58 arch/arm/cpu/armv7/spare_head.o
 .rel.text.get_no_use_block_v3
                0x4a0cb5fc        0x8 arch/arm/cpu/armv7/spare_head.o
 .rel.text.write_mbr_v2
                0x4a0cb604       0x20 arch/arm/cpu/armv7/spare_head.o
 .rel.text.read_mbr_v2
                0x4a0cb624       0x18 arch/arm/cpu/armv7/spare_head.o
 .rel.text.check_mbr_v3
                0x4a0cb63c       0x10 arch/arm/cpu/armv7/spare_head.o
 .rel.text.check_mbr_v2
                0x4a0cb64c        0x8 arch/arm/cpu/armv7/spare_head.o
 .rel.text.write_partition_v2
                0x4a0cb654       0x18 arch/arm/cpu/armv7/spare_head.o
 .rel.text.read_partition_v2
                0x4a0cb66c       0x18 arch/arm/cpu/armv7/spare_head.o
 .rel.text.read_mbr_partition_v3
                0x4a0cb684        0x8 arch/arm/cpu/armv7/spare_head.o
 .rel.text.write_factory_block_table_v2
                0x4a0cb68c       0x28 arch/arm/cpu/armv7/spare_head.o
 .rel.text.print_factory_block_table_v2
                0x4a0cb6b4        0x8 arch/arm/cpu/armv7/spare_head.o
 .rel.text.read_factory_block_v3
                0x4a0cb6bc       0x20 arch/arm/cpu/armv7/spare_head.o
 .rel.text.write_new_block_table_v2_old
                0x4a0cb6dc       0x18 arch/arm/cpu/armv7/spare_head.o
 .rel.text.write_new_block_table_v2_new
                0x4a0cb6f4       0x18 arch/arm/cpu/armv7/spare_head.o
 .rel.text.write_new_block_table_v2
                0x4a0cb70c       0x18 arch/arm/cpu/armv7/spare_head.o
 .rel.text.write_new_block_table_v2_new_first_build
                0x4a0cb724       0x18 arch/arm/cpu/armv7/spare_head.o
 .rel.text.write_no_use_block_v2
                0x4a0cb73c       0x18 arch/arm/cpu/armv7/spare_head.o
 .rel.text.read_new_bad_block_table_v2_old
                0x4a0cb754       0x20 arch/arm/cpu/armv7/spare_head.o
 .rel.text.read_new_bad_block_table_v2_new
                0x4a0cb774       0x10 arch/arm/cpu/armv7/spare_head.o
 .rel.text.read_new_bad_block_table_v2
                0x4a0cb784       0x18 arch/arm/cpu/armv7/spare_head.o
 .rel.text.print_nand_info_v2
                0x4a0cb79c       0xc0 arch/arm/cpu/armv7/spare_head.o
 .rel.text.get_partition_v2
                0x4a0cb85c       0x20 arch/arm/cpu/armv7/spare_head.o
 .rel.text.get_partition_v3
                0x4a0cb87c       0x28 arch/arm/cpu/armv7/spare_head.o
 .rel.text.new_print_all_partition
                0x4a0cb8a4       0x10 arch/arm/cpu/armv7/spare_head.o
 .rel.text.build_all_phy_partition_v2
                0x4a0cb8b4       0x10 arch/arm/cpu/armv7/spare_head.o
 .rel.text.nand_info_init_v2
                0x4a0cb8c4       0x90 arch/arm/cpu/armv7/spare_head.o
 .rel.text.nand_info_init_v3
                0x4a0cb954       0x68 arch/arm/cpu/armv7/spare_head.o
 .rel.text.nand_info_init
                0x4a0cb9bc       0x30 arch/arm/cpu/armv7/spare_head.o
 .rel.text.print_mbr_data
                0x00000000        0x0 arch/arm/cpu/armv7/spare_head.o
 .rel.text.show_nctri
                0x4a0cb9ec       0xa0 arch/arm/cpu/armv7/spare_head.o
 .rel.text.show_nci
                0x4a0cba8c      0x120 arch/arm/cpu/armv7/spare_head.o
 .rel.text.show_nsci
                0x4a0cbbac       0x90 arch/arm/cpu/armv7/spare_head.o
 .rel.text.show_nsi
                0x4a0cbc3c       0x20 arch/arm/cpu/armv7/spare_head.o
 .rel.text.show_nssi
                0x4a0cbc5c       0x38 arch/arm/cpu/armv7/spare_head.o
 .rel.text.show_static_info
                0x4a0cbc94        0x8 arch/arm/cpu/armv7/spare_head.o
 .rel.text.show_spare
                0x00000000        0x0 arch/arm/cpu/armv7/spare_head.o
 .rel.text.nand_show_data
                0x00000000        0x0 arch/arm/cpu/armv7/spare_head.o
 .rel.text.show_dict_page
                0x00000000        0x0 arch/arm/cpu/armv7/spare_head.o
 .rel.text.show_logic_page_all_history
                0x00000000        0x0 arch/arm/cpu/armv7/spare_head.o
 .rel.text.nand_super_page_test
                0x00000000        0x0 arch/arm/cpu/armv7/spare_head.o
 .rel.text.nand_phy_page_test
                0x00000000        0x0 arch/arm/cpu/armv7/spare_head.o
 .rel.text.nand_phy_block_test
                0x00000000        0x0 arch/arm/cpu/armv7/spare_head.o
 .rel.text.nand_phy_block_erase_test
                0x00000000        0x0 arch/arm/cpu/armv7/spare_head.o
 .rel.text.nand_phy_erase_all
                0x00000000        0x0 arch/arm/cpu/armv7/spare_head.o
 .rel.text.nand_phy_check_all
                0x00000000        0x0 arch/arm/cpu/armv7/spare_head.o
 .rel.text.nand_phy_read_block_test
                0x00000000        0x0 arch/arm/cpu/armv7/spare_head.o
 .rel.text.nand_update_end
                0x00000000        0x0 arch/arm/cpu/armv7/spare_head.o
 .rel.text.nand_cfg_setting
                0x4a0cbc9c       0x18 arch/arm/cpu/armv7/spare_head.o
 .rel.text.NandHwInit
                0x4a0cbcb4       0x28 arch/arm/cpu/armv7/spare_head.o
 .rel.text.NandHwSuperStandby
                0x00000000        0x0 arch/arm/cpu/armv7/spare_head.o
 .rel.text.NandHwSuperResume
                0x00000000        0x0 arch/arm/cpu/armv7/spare_head.o
 .rel.text.NandHwNormalStandby
                0x00000000        0x0 arch/arm/cpu/armv7/spare_head.o
 .rel.text.NandHwNormalResume
                0x00000000        0x0 arch/arm/cpu/armv7/spare_head.o
 .rel.text.NandHwShutDown
                0x00000000        0x0 arch/arm/cpu/armv7/spare_head.o
 .rel.text.NAND_GetLogicPageSize
                0x4a0cbcdc        0x8 arch/arm/cpu/armv7/spare_head.o
 .rel.text.do_nand_interrupt
                0x00000000        0x0 arch/arm/cpu/armv7/spare_head.o
 .rel.text.nand_write_nboot_data
                0x4a0cbce4       0x18 arch/arm/cpu/armv7/spare_head.o
 .rel.text.nand_read_nboot_data
                0x4a0cbcfc       0x28 arch/arm/cpu/armv7/spare_head.o
 .rel.text.nand_check_nboot
                0x00000000        0x0 arch/arm/cpu/armv7/spare_head.o
 .rel.text.nand_write_uboot_one_in_block
                0x4a0cbd24       0x38 arch/arm/cpu/armv7/spare_head.o
 .rel.text.nand_write_uboot_one_in_many_block
                0x4a0cbd5c       0x40 arch/arm/cpu/armv7/spare_head.o
 .rel.text.nand_read_uboot_one_in_block
                0x4a0cbd9c       0x30 arch/arm/cpu/armv7/spare_head.o
 .rel.text.nand_read_uboot_one_in_many_block
                0x4a0cbdcc       0x48 arch/arm/cpu/armv7/spare_head.o
 .rel.text.nand_read_uboot_one
                0x4a0cbe14       0x10 arch/arm/cpu/armv7/spare_head.o
 .rel.text.nand_read_uboot_data
                0x4a0cbe24       0x10 arch/arm/cpu/armv7/spare_head.o
 .rel.text.nand_get_param
                0x4a0cbe34       0x20 arch/arm/cpu/armv7/spare_head.o
 .rel.text.nand_get_param_for_uboottail
                0x4a0cbe54       0x38 arch/arm/cpu/armv7/spare_head.o
 .rel.text.NAND_UpdatePhyArch
                0x4a0cbe8c       0x48 arch/arm/cpu/armv7/spare_head.o
 .rel.text.nand_is_blank
                0x4a0cbed4       0x18 arch/arm/cpu/armv7/spare_head.o
 .rel.text.nand_erase_chip
                0x4a0cbeec        0x8 arch/arm/cpu/armv7/spare_head.o
 .rel.text.nand_erase_special_block
                0x4a0cbef4       0x20 arch/arm/cpu/armv7/spare_head.o
 .rel.text.nand_dragonborad_test_one
                0x00000000        0x0 arch/arm/cpu/armv7/spare_head.o
 .rel.text.change_uboot_start_block
                0x00000000        0x0 arch/arm/cpu/armv7/spare_head.o
 .rel.text.set_uboot_start_and_end_block
                0x4a0cbf14       0x10 arch/arm/cpu/armv7/spare_head.o
 .rel.text.get_uboot_start_block
                0x4a0cbf24       0x10 arch/arm/cpu/armv7/spare_head.o
 .rel.text.get_uboot_next_block
                0x4a0cbf34       0x10 arch/arm/cpu/armv7/spare_head.o
 .rel.text.get_physic_block_reserved
                0x00000000        0x0 arch/arm/cpu/armv7/spare_head.o
 .rel.text.print_uboot_info
                0x00000000        0x0 arch/arm/cpu/armv7/spare_head.o
 .rel.text.init_phyinfo_buf
                0x4a0cbf44       0x10 arch/arm/cpu/armv7/spare_head.o
 .rel.text.physic_info_get_offset
                0x4a0cbf54       0x20 arch/arm/cpu/armv7/spare_head.o
 .rel.text.physic_info_get_one_copy
                0x4a0cbf74       0x30 arch/arm/cpu/armv7/spare_head.o
 .rel.text.clean_physic_info
                0x4a0cbfa4       0x10 arch/arm/cpu/armv7/spare_head.o
 .rel.text.nand_uboot_erase_all_chip
                0x4a0cbfb4       0x10 arch/arm/cpu/armv7/spare_head.o
 .rel.text.add_len_to_uboot_tail
                0x4a0cbfc4       0x10 arch/arm/cpu/armv7/spare_head.o
 .rel.text.nand_write_uboot_one
                0x4a0cbfd4       0x18 arch/arm/cpu/armv7/spare_head.o
 .rel.text.nand_check_uboot
                0x00000000        0x0 arch/arm/cpu/armv7/spare_head.o
 .rel.text.nand_write_uboot_data
                0x4a0cbfec       0x10 arch/arm/cpu/armv7/spare_head.o
 .rel.text.print_physic_info
                0x00000000        0x0 arch/arm/cpu/armv7/spare_head.o
 .rel.text.physic_info_add_to_uboot_tail
                0x00000000        0x0 arch/arm/cpu/armv7/spare_head.o
 .rel.text.is_uboot_block
                0x4a0cbffc        0x8 arch/arm/cpu/armv7/spare_head.o
 .rel.text.physic_info_read
                0x4a0cc004       0x40 arch/arm/cpu/armv7/spare_head.o
 .rel.text.uboot_info_init
                0x00000000        0x0 arch/arm/cpu/armv7/spare_head.o
 .rel.text.nand_get_uboot_total_len
                0x00000000        0x0 arch/arm/cpu/armv7/spare_head.o
 .rel.text.set_hynix_special_info
                0x4a0cc044       0x10 arch/arm/cpu/armv7/spare_head.o
 .rel.text.nand_init_temp_buf
                0x4a0cc054        0x8 arch/arm/cpu/armv7/spare_head.o
 .rel.text.init_parameter
                0x4a0cc05c       0x60 arch/arm/cpu/armv7/spare_head.o
 .rel.text.nand_physic_init
                0x4a0cc0bc       0x58 arch/arm/cpu/armv7/spare_head.o
 .rel.text.nand_physic_exit
                0x4a0cc114       0x88 arch/arm/cpu/armv7/spare_head.o
 .rel.text.nand_get_temp_buf
                0x4a0cc19c       0x30 arch/arm/cpu/armv7/spare_head.o
 .rel.text.nand_free_temp_buf
                0x4a0cc1cc       0x10 arch/arm/cpu/armv7/spare_head.o
 .rel.text.NAND_GetPageCntPerBlk
                0x4a0cc1dc        0x8 arch/arm/cpu/armv7/spare_head.o
 .rel.text.NAND_GetPageSize
                0x4a0cc1e4        0x8 arch/arm/cpu/armv7/spare_head.o
 .rel.text.NAND_Get_SecureBlock_Start
                0x00000000        0x0 arch/arm/cpu/armv7/spare_head.o
 .rel.text.nand_secure_storage_clean_data
                0x00000000        0x0 arch/arm/cpu/armv7/spare_head.o
 .rel.text.is_nand_secure_storage_build
                0x00000000        0x0 arch/arm/cpu/armv7/spare_head.o
 .rel.text.is_nand_secure_storage_block
                0x4a0cc1ec        0x8 arch/arm/cpu/armv7/spare_head.o
 .rel.text.nand_secure_storage_read_one
                0x4a0cc1f4       0x10 arch/arm/cpu/armv7/spare_head.o
 .rel.text.nand_secure_storage_write_init
                0x4a0cc204        0x8 arch/arm/cpu/armv7/spare_head.o
 .rel.text.nand_secure_storage_first_build
                0x4a0cc20c       0x28 arch/arm/cpu/armv7/spare_head.o
 .rel.text.nand_secure_storage_read
                0x4a0cc234       0x10 arch/arm/cpu/armv7/spare_head.o
 .rel.text.nand_secure_storage_check
                0x4a0cc244       0x18 arch/arm/cpu/armv7/spare_head.o
 .rel.text.nand_secure_storage_repair
                0x4a0cc25c       0x10 arch/arm/cpu/armv7/spare_head.o
 .rel.text.nand_secure_storage_update
                0x4a0cc26c       0x18 arch/arm/cpu/armv7/spare_head.o
 .rel.text.nand_secure_storage_write
                0x4a0cc284       0x20 arch/arm/cpu/armv7/spare_head.o
 .rel.text.nand_secure_storage_init
                0x4a0cc2a4       0x28 arch/arm/cpu/armv7/spare_head.o
 .rel.text.nand_secure_storage_test
                0x00000000        0x0 arch/arm/cpu/armv7/spare_head.o
 .rel.text.nand_secure_storage_test_read
                0x00000000        0x0 arch/arm/cpu/armv7/spare_head.o
 .rel.text.nand_reset_chip
                0x4a0cc2cc        0x8 arch/arm/cpu/armv7/spare_head.o
 .rel.text.nand_sync_reset_chip
                0x00000000        0x0 arch/arm/cpu/armv7/spare_head.o
 .rel.text.nand_first_reset_chip
                0x4a0cc2d4       0x10 arch/arm/cpu/armv7/spare_head.o
 .rel.text.nand_read_chip_status
                0x4a0cc2e4        0x8 arch/arm/cpu/armv7/spare_head.o
 .rel.text.nand_read_chip_status_ready
                0x4a0cc2ec       0x18 arch/arm/cpu/armv7/spare_head.o
 .rel.text.nand_read_id
                0x4a0cc304        0x8 arch/arm/cpu/armv7/spare_head.o
 .rel.text.nand_first_read_id
                0x4a0cc30c        0x8 arch/arm/cpu/armv7/spare_head.o
 .rel.text.nand_get_feature
                0x4a0cc314        0x8 arch/arm/cpu/armv7/spare_head.o
 .rel.text.nand_set_feature
                0x4a0cc31c        0x8 arch/arm/cpu/armv7/spare_head.o
 .rel.text.get_row_addr
                0x4a0cc324        0x8 arch/arm/cpu/armv7/spare_head.o
 .rel.text._cal_nand_onfi_timing_mode
                0x4a0cc32c        0x8 arch/arm/cpu/armv7/spare_head.o
 .rel.text._setup_nand_onfi_ddr2_para
                0x4a0cc334        0x8 arch/arm/cpu/armv7/spare_head.o
 .rel.text._setup_nand_onfi_driver_strength
                0x4a0cc33c       0x10 arch/arm/cpu/armv7/spare_head.o
 .rel.text._setup_nand_onfi_vendor_specific_feature
                0x4a0cc34c       0x10 arch/arm/cpu/armv7/spare_head.o
 .rel.text._change_nand_onfi_timing_mode
                0x4a0cc35c       0x10 arch/arm/cpu/armv7/spare_head.o
 .rel.text._setup_nand_toggle_ddr2_para
                0x4a0cc36c        0x8 arch/arm/cpu/armv7/spare_head.o
 .rel.text._setup_nand_toggle_driver_strength
                0x4a0cc374       0x10 arch/arm/cpu/armv7/spare_head.o
 .rel.text._check_scan_data
                0x4a0cc384       0x18 arch/arm/cpu/armv7/spare_head.o
 .rel.text._change_all_nand_parameter
                0x4a0cc39c       0xa0 arch/arm/cpu/armv7/spare_head.o
 .rel.text._get_right_timing_para
                0x4a0cc43c       0x78 arch/arm/cpu/armv7/spare_head.o
 .rel.text.set_cmd_with_nand_bus
                0x4a0cc4b4        0x8 arch/arm/cpu/armv7/spare_head.o
 .rel.text.get_data_with_nand_bus_one_cmd
                0x4a0cc4bc       0x18 arch/arm/cpu/armv7/spare_head.o
 .rel.text.nand_physic_erase_block
                0x4a0cc4d4        0x8 arch/arm/cpu/armv7/spare_head.o
 .rel.text.nand_physic_read_page
                0x4a0cc4dc        0x8 arch/arm/cpu/armv7/spare_head.o
 .rel.text.nand_physic_write_page
                0x4a0cc4e4        0x8 arch/arm/cpu/armv7/spare_head.o
 .rel.text.nand_physic_bad_block_check
                0x4a0cc4ec        0x8 arch/arm/cpu/armv7/spare_head.o
 .rel.text.nand_physic_bad_block_mark
                0x00000000        0x0 arch/arm/cpu/armv7/spare_head.o
 .rel.text.nand_write_data_in_whole_block
                0x00000000        0x0 arch/arm/cpu/armv7/spare_head.o
 .rel.text.nand_read_data_in_whole_block
                0x00000000        0x0 arch/arm/cpu/armv7/spare_head.o
 .rel.text.nand_physic_block_copy
                0x4a0cc4f4        0x8 arch/arm/cpu/armv7/spare_head.o
 .rel.text.nci_add_to_nsi
                0x4a0cc4fc        0x8 arch/arm/cpu/armv7/spare_head.o
 .rel.text.nci_add_to_nctri
                0x4a0cc504        0x8 arch/arm/cpu/armv7/spare_head.o
 .rel.text.search_id
                0x4a0cc50c        0x8 arch/arm/cpu/armv7/spare_head.o
 .rel.text.init_nci_from_id
                0x4a0cc514       0x30 arch/arm/cpu/armv7/spare_head.o
 .rel.text.nand_build_nsi
                0x4a0cc544       0x40 arch/arm/cpu/armv7/spare_head.o
 .rel.text.read_nand_structure
                0x4a0cc584       0x38 arch/arm/cpu/armv7/spare_head.o
 .rel.text.write_nand_structure
                0x00000000        0x0 arch/arm/cpu/armv7/spare_head.o
 .rel.text.set_nand_structure
                0x00000000        0x0 arch/arm/cpu/armv7/spare_head.o
 .rel.text.NAND_GetLsbblksize
                0x4a0cc5bc        0x8 arch/arm/cpu/armv7/spare_head.o
 .rel.text.NAND_GetLsbPages
                0x4a0cc5c4        0x8 arch/arm/cpu/armv7/spare_head.o
 .rel.text.NAND_GetPhyblksize
                0x4a0cc5cc        0x8 arch/arm/cpu/armv7/spare_head.o
 .rel.text.NAND_UsedLsbPages
                0x00000000        0x0 arch/arm/cpu/armv7/spare_head.o
 .rel.text.NAND_GetPageNo
                0x4a0cc5d4        0x8 arch/arm/cpu/armv7/spare_head.o
 .rel.text.nand_wait_all_rb_ready
                0x4a0cc5dc        0x8 arch/arm/cpu/armv7/spare_head.o
 .rel.text.nand_physic_erase_super_block
                0x4a0cc5e4        0x8 arch/arm/cpu/armv7/spare_head.o
 .rel.text.nand_physic_read_super_page
                0x4a0cc5ec        0x8 arch/arm/cpu/armv7/spare_head.o
 .rel.text.nand_physic_write_super_page
                0x4a0cc5f4        0x8 arch/arm/cpu/armv7/spare_head.o
 .rel.text.nand_physic_super_bad_block_check
                0x4a0cc5fc        0x8 arch/arm/cpu/armv7/spare_head.o
 .rel.text.nand_physic_super_bad_block_mark
                0x4a0cc604        0x8 arch/arm/cpu/armv7/spare_head.o
 .rel.text.get_nand_structure
                0x4a0cc60c       0x30 arch/arm/cpu/armv7/spare_head.o
 .rel.text.init_nsci_from_nctri
                0x4a0cc63c        0x8 arch/arm/cpu/armv7/spare_head.o
 .rel.text.nand_build_nssi
                0x4a0cc644       0x28 arch/arm/cpu/armv7/spare_head.o
 .rel.text.nand_build_storage_info
                0x4a0cc66c       0x20 arch/arm/cpu/armv7/spare_head.o
 .rel.text.add_to_nctri
                0x4a0cc68c        0x8 arch/arm/cpu/armv7/spare_head.o
 .rel.text.before_update_nctri_interface
                0x4a0cc694       0x18 arch/arm/cpu/armv7/spare_head.o
 .rel.text.start_update_nctri_interface
                0x4a0cc6ac       0x18 arch/arm/cpu/armv7/spare_head.o
 .rel.text.update_1st_nctri_interface
                0x4a0cc6c4       0x20 arch/arm/cpu/armv7/spare_head.o
 .rel.text.update_other_nctri_interface
                0x4a0cc6e4       0x40 arch/arm/cpu/armv7/spare_head.o
 .rel.text._update_ext_accessfreq_para
                0x4a0cc724       0x28 arch/arm/cpu/armv7/spare_head.o
 .rel.text.set_nand_script_frequence
                0x4a0cc74c       0x10 arch/arm/cpu/armv7/spare_head.o
 .rel.text.update_nctri
                0x4a0cc75c       0x48 arch/arm/cpu/armv7/spare_head.o
 .rel.text.check_nctri
                0x4a0cc7a4       0x28 arch/arm/cpu/armv7/spare_head.o
 .rel.text.gen_rand_num
                0x00000000        0x0 arch/arm/cpu/armv7/spare_head.o
 .rel.text.wait_reg_status
                0x4a0cc7cc        0x8 arch/arm/cpu/armv7/spare_head.o
 .rel.text.ndfc_print_reg
                0x4a0cc7d4       0xf0 arch/arm/cpu/armv7/spare_head.o
 .rel.text.ndfc_print_save_reg
                0x4a0cc8c4       0xf0 arch/arm/cpu/armv7/spare_head.o
 .rel.text._cal_random_seed
                0x00000000        0x0 arch/arm/cpu/armv7/spare_head.o
 .rel.text.ndfc_soft_reset
                0x4a0cc9b4       0x10 arch/arm/cpu/armv7/spare_head.o
 .rel.text.ndfc_wait_cmdfifo_free
                0x4a0cc9c4        0x8 arch/arm/cpu/armv7/spare_head.o
 .rel.text.ndfc_wait_fsm_ready
                0x4a0cc9cc        0x8 arch/arm/cpu/armv7/spare_head.o
 .rel.text.ndfc_wait_cmd_finish
                0x4a0cc9d4        0x8 arch/arm/cpu/armv7/spare_head.o
 .rel.text.ndfc_set_rand_seed
                0x4a0cc9dc        0x8 arch/arm/cpu/armv7/spare_head.o
 .rel.text.ndfc_wait_rb_ready_int
                0x4a0cc9e4       0x10 arch/arm/cpu/armv7/spare_head.o
 .rel.text.ndfc_change_page_size
                0x4a0cc9f4        0x8 arch/arm/cpu/armv7/spare_head.o
 .rel.text._normal_cmd_io_send
                0x4a0cc9fc        0x8 arch/arm/cpu/armv7/spare_head.o
 .rel.text._normal_cmd_io_wait
                0x4a0cca04       0x18 arch/arm/cpu/armv7/spare_head.o
 .rel.text._batch_cmd_io_send
                0x4a0cca1c       0x10 arch/arm/cpu/armv7/spare_head.o
 .rel.text._batch_cmd_io_wait
                0x4a0cca2c       0x18 arch/arm/cpu/armv7/spare_head.o
 .rel.text.print_cmd_seq
                0x00000000        0x0 arch/arm/cpu/armv7/spare_head.o
 .rel.text.ndfc_execute_cmd
                0x4a0cca44       0x28 arch/arm/cpu/armv7/spare_head.o
 .rel.text.ndfc_get_spare_data
                0x4a0cca6c        0x8 arch/arm/cpu/armv7/spare_head.o
 .rel.text.ndfc_set_spare_data
                0x4a0cca74        0x8 arch/arm/cpu/armv7/spare_head.o
 .rel.text._set_ndfc_def_timing_param
                0x00000000        0x0 arch/arm/cpu/armv7/spare_head.o
 .rel.text.init_nctri
                0x4a0cca7c       0x20 arch/arm/cpu/armv7/spare_head.o
 .rel.text.ndfc_dma_config_start
                0x4a0cca9c        0x8 arch/arm/cpu/armv7/spare_head.o
 .rel.text.ndfc_wait_dma_end
                0x4a0ccaa4       0x18 arch/arm/cpu/armv7/spare_head.o
 .rel.text.ndfc_check_read_data_sta
                0x4a0ccabc        0x8 arch/arm/cpu/armv7/spare_head.o
 .rel.text.ndfc_get_bad_blk_flag
                0x4a0ccac4       0x10 arch/arm/cpu/armv7/spare_head.o
 .rel.text.ndfc_update_ecc_sta_and_spare_data
                0x4a0ccad4        0x8 arch/arm/cpu/armv7/spare_head.o
 .rel.text._generate_page_map_tab
                0x4a0ccadc       0x20 arch/arm/cpu/armv7/spare_head.o
 .rel.text.m0_write_boot0_one_pagetab_nonsecure
                0x4a0ccafc       0x40 arch/arm/cpu/armv7/spare_head.o
 .rel.text.m0_write_boot0_one_pagetab_4k
                0x4a0ccb3c       0x48 arch/arm/cpu/armv7/spare_head.o
 .rel.text.m0_write_boot0_one_pagetab_2k
                0x4a0ccb84       0x48 arch/arm/cpu/armv7/spare_head.o
 .rel.text.m0_write_boot0_one_1k_mode
                0x4a0ccbcc       0x40 arch/arm/cpu/armv7/spare_head.o
 .rel.text.m0_write_boot0_one_nonsecure
                0x4a0ccc0c       0x10 arch/arm/cpu/armv7/spare_head.o
 .rel.text.m0_write_boot0_one_secure
                0x4a0ccc1c       0x10 arch/arm/cpu/armv7/spare_head.o
 .rel.text.m0_write_boot0_one
                0x4a0ccc2c       0x10 arch/arm/cpu/armv7/spare_head.o
 .rel.text.m0_erase_block_start
                0x4a0ccc3c       0x10 arch/arm/cpu/armv7/spare_head.o
 .rel.text.m0_erase_block
                0x4a0ccc4c       0x18 arch/arm/cpu/armv7/spare_head.o
 .rel.text.m0_read_page_start
                0x4a0ccc64       0x10 arch/arm/cpu/armv7/spare_head.o
 .rel.text.m0_read_page_end_not_retry
                0x4a0ccc74       0x10 arch/arm/cpu/armv7/spare_head.o
 .rel.text.m0_read_page_end
                0x4a0ccc84       0x18 arch/arm/cpu/armv7/spare_head.o
 .rel.text.m0_read_page
                0x4a0ccc9c       0x20 arch/arm/cpu/armv7/spare_head.o
 .rel.text.m0_write_page_start
                0x4a0cccbc       0x20 arch/arm/cpu/armv7/spare_head.o
 .rel.text.m0_write_page_end
                0x4a0cccdc       0x10 arch/arm/cpu/armv7/spare_head.o
 .rel.text.m0_write_page
                0x4a0cccec       0x28 arch/arm/cpu/armv7/spare_head.o
 .rel.text.m0_read_two_plane_page_start
                0x00000000        0x0 arch/arm/cpu/armv7/spare_head.o
 .rel.text.m0_read_two_plane_page
                0x4a0ccd14        0x8 arch/arm/cpu/armv7/spare_head.o
 .rel.text.m0_write_two_plane_page
                0x4a0ccd1c        0x8 arch/arm/cpu/armv7/spare_head.o
 .rel.text.m0_bad_block_check
                0x4a0ccd24       0x28 arch/arm/cpu/armv7/spare_head.o
 .rel.text.m0_bad_block_mark
                0x4a0ccd4c       0x30 arch/arm/cpu/armv7/spare_head.o
 .rel.text.m0_use_chip_function
                0x4a0ccd7c        0x8 arch/arm/cpu/armv7/spare_head.o
 .rel.text.m0_rw_use_chip_function
                0x4a0ccd84        0x8 arch/arm/cpu/armv7/spare_head.o
 .rel.text.m0_special_init
                0x4a0ccd8c       0x18 arch/arm/cpu/armv7/spare_head.o
 .rel.text.m0_special_exit
                0x4a0ccda4        0x8 arch/arm/cpu/armv7/spare_head.o
 .rel.text.m1_write_page_FF
                0x4a0ccdac       0x18 arch/arm/cpu/armv7/spare_head.o
 .rel.text.m1_vender_set_param
                0x4a0ccdc4        0x8 arch/arm/cpu/armv7/spare_head.o
 .rel.text.m1_major_check_byte
                0x4a0ccdcc       0x18 arch/arm/cpu/armv7/spare_head.o
 .rel.text.m1_get_read_retry_cfg
                0x4a0ccde4       0x40 arch/arm/cpu/armv7/spare_head.o
 .rel.text.m1_read_otp_info_hynix
                0x4a0cce24       0x18 arch/arm/cpu/armv7/spare_head.o
 .rel.text.m1_get_rr_value_otp_hynix
                0x4a0cce3c       0x18 arch/arm/cpu/armv7/spare_head.o
 .rel.text.m1_getotpparam
                0x4a0cce54        0x8 arch/arm/cpu/armv7/spare_head.o
 .rel.text.m1_setdefaultparam
                0x4a0cce5c       0x28 arch/arm/cpu/armv7/spare_head.o
 .rel.text.m1_readretry_exit
                0x4a0cce84        0x8 arch/arm/cpu/armv7/spare_head.o
 .rel.text.m1_set_readretry
                0x4a0cce8c       0x18 arch/arm/cpu/armv7/spare_head.o
 .rel.text.m1_read_page_end
                0x4a0ccea4       0x20 arch/arm/cpu/armv7/spare_head.o
 .rel.text.m1_special_exit
                0x4a0ccec4       0x10 arch/arm/cpu/armv7/spare_head.o
 .rel.text.m1_is_lsb_page
                0x4a0cced4        0x8 arch/arm/cpu/armv7/spare_head.o
 .rel.text.m1_get_hynix_special_info
                0x4a0ccedc       0x18 arch/arm/cpu/armv7/spare_head.o
 .rel.text.m1_init_readretry_param
                0x4a0ccef4       0x30 arch/arm/cpu/armv7/spare_head.o
 .rel.text.m1_readretry_init
                0x4a0ccf24       0x28 arch/arm/cpu/armv7/spare_head.o
 .rel.text.m1_special_init
                0x4a0ccf4c       0x40 arch/arm/cpu/armv7/spare_head.o
 .rel.text.m8_read_boot0_page_cfg_mode
                0x4a0ccf8c       0x10 arch/arm/cpu/armv7/spare_head.o
 .rel.text.m8_write_boot0_page_cfg_mode
                0x4a0ccf9c       0x18 arch/arm/cpu/armv7/spare_head.o
 .rel.text.m8_read_boot0_page
                0x4a0ccfb4        0x8 arch/arm/cpu/armv7/spare_head.o
 .rel.text.m8_read_boot0_one_pagetab_nonsecure
                0x4a0ccfbc       0x30 arch/arm/cpu/armv7/spare_head.o
 .rel.text.m8_read_boot0_one_pagetab_4k
                0x4a0ccfec       0x28 arch/arm/cpu/armv7/spare_head.o
 .rel.text.m8_read_boot0_one_pagetab_2k
                0x4a0cd014       0x28 arch/arm/cpu/armv7/spare_head.o
 .rel.text.m8_read_boot0_one_1k_mode
                0x4a0cd03c       0x38 arch/arm/cpu/armv7/spare_head.o
 .rel.text.m8_read_boot0_one_nonsecure
                0x4a0cd074       0x10 arch/arm/cpu/armv7/spare_head.o
 .rel.text.m8_read_boot0_one_secure
                0x4a0cd084       0x10 arch/arm/cpu/armv7/spare_head.o
 .rel.text.m8_write_boot0_one_nonsecure
                0x4a0cd094       0x40 arch/arm/cpu/armv7/spare_head.o
 .rel.text.m8_write_boot0_one_secure
                0x4a0cd0d4       0x50 arch/arm/cpu/armv7/spare_head.o
 .rel.text.m2_write_boot0_one_nonsecure
                0x4a0cd124       0x60 arch/arm/cpu/armv7/spare_head.o
 .rel.text.m2_write_boot0_one_secure
                0x4a0cd184       0x68 arch/arm/cpu/armv7/spare_head.o
 .rel.text.m2_lsb_init
                0x4a0cd1ec       0x30 arch/arm/cpu/armv7/spare_head.o
 .rel.text.m2_lsb_enable
                0x4a0cd21c       0x20 arch/arm/cpu/armv7/spare_head.o
 .rel.text.m2_lsb_disable
                0x4a0cd23c       0x18 arch/arm/cpu/armv7/spare_head.o
 .rel.text.m2_lsb_exit
                0x4a0cd254        0x8 arch/arm/cpu/armv7/spare_head.o
 .rel.text.m2_vender_get_param_otp_hynix
                0x4a0cd25c       0x20 arch/arm/cpu/armv7/spare_head.o
 .rel.text.m2_getotpparam
                0x4a0cd27c       0x10 arch/arm/cpu/armv7/spare_head.o
 .rel.text.m2_setdefaultparam
                0x4a0cd28c       0x28 arch/arm/cpu/armv7/spare_head.o
 .rel.text.m2_init_readretry_param
                0x4a0cd2b4       0x38 arch/arm/cpu/armv7/spare_head.o
 .rel.text.m2_readretry_init
                0x4a0cd2ec       0x28 arch/arm/cpu/armv7/spare_head.o
 .rel.text.m2_readretry_exit
                0x4a0cd314        0x8 arch/arm/cpu/armv7/spare_head.o
 .rel.text.m2_set_readretry
                0x4a0cd31c       0x30 arch/arm/cpu/armv7/spare_head.o
 .rel.text.m2_read_page_end
                0x4a0cd34c       0x30 arch/arm/cpu/armv7/spare_head.o
 .rel.text.m2_special_init
                0x4a0cd37c       0x40 arch/arm/cpu/armv7/spare_head.o
 .rel.text.m2_special_exit
                0x4a0cd3bc       0x10 arch/arm/cpu/armv7/spare_head.o
 .rel.text.m2_is_lsb_page
                0x4a0cd3cc        0x8 arch/arm/cpu/armv7/spare_head.o
 .rel.text.m3_write_boot0_one_nonsecure
                0x4a0cd3d4       0x60 arch/arm/cpu/armv7/spare_head.o
 .rel.text.m3_write_boot0_one_secure
                0x4a0cd434       0x68 arch/arm/cpu/armv7/spare_head.o
 .rel.text.m3_vender_set_param
                0x4a0cd49c        0x8 arch/arm/cpu/armv7/spare_head.o
 .rel.text.m3_lsb_init
                0x4a0cd4a4       0x30 arch/arm/cpu/armv7/spare_head.o
 .rel.text.m3_lsb_enable
                0x4a0cd4d4       0x20 arch/arm/cpu/armv7/spare_head.o
 .rel.text.m3_lsb_disable
                0x4a0cd4f4       0x18 arch/arm/cpu/armv7/spare_head.o
 .rel.text.m3_lsb_exit
                0x4a0cd50c        0x8 arch/arm/cpu/armv7/spare_head.o
 .rel.text.m3_getdefaultparam
                0x4a0cd514       0x10 arch/arm/cpu/armv7/spare_head.o
 .rel.text.m3_setdefaultparam
                0x4a0cd524       0x28 arch/arm/cpu/armv7/spare_head.o
 .rel.text.m3_get_default_param
                0x4a0cd54c        0x8 arch/arm/cpu/armv7/spare_head.o
 .rel.text.m3_readretry_init
                0x4a0cd554       0x40 arch/arm/cpu/armv7/spare_head.o
 .rel.text.m3_readretry_exit
                0x4a0cd594        0x8 arch/arm/cpu/armv7/spare_head.o
 .rel.text.m3_set_readretry
                0x4a0cd59c       0x38 arch/arm/cpu/armv7/spare_head.o
 .rel.text.m3_read_page_end
                0x4a0cd5d4       0x20 arch/arm/cpu/armv7/spare_head.o
 .rel.text.m3_special_init
                0x4a0cd5f4       0x40 arch/arm/cpu/armv7/spare_head.o
 .rel.text.m3_special_exit
                0x4a0cd634       0x10 arch/arm/cpu/armv7/spare_head.o
 .rel.text.m3_is_lsb_page
                0x4a0cd644        0x8 arch/arm/cpu/armv7/spare_head.o
 .rel.text.micron_intel_set_feature
                0x4a0cd64c        0x8 arch/arm/cpu/armv7/spare_head.o
 .rel.text.m4_readretry_init
                0x4a0cd654       0x40 arch/arm/cpu/armv7/spare_head.o
 .rel.text.m4_readretry_exit
                0x00000000        0x0 arch/arm/cpu/armv7/spare_head.o
 .rel.text.m4_set_readretry
                0x4a0cd694       0x10 arch/arm/cpu/armv7/spare_head.o
 .rel.text.m4_read_page_end
                0x4a0cd6a4       0x20 arch/arm/cpu/armv7/spare_head.o
 .rel.text.m4_special_init
                0x4a0cd6c4       0x38 arch/arm/cpu/armv7/spare_head.o
 .rel.text.m4_special_exit
                0x4a0cd6fc       0x20 arch/arm/cpu/armv7/spare_head.o
 .rel.text.m4_0x40_is_lsb_page
                0x4a0cd71c        0x8 arch/arm/cpu/armv7/spare_head.o
 .rel.text.m4_0x41_is_lsb_page
                0x4a0cd724        0x8 arch/arm/cpu/armv7/spare_head.o
 .rel.text.m5_readretry_init
                0x4a0cd72c       0x18 arch/arm/cpu/armv7/spare_head.o
 .rel.text.m5_vender_set_param
                0x4a0cd744       0x10 arch/arm/cpu/armv7/spare_head.o
 .rel.text.m5_set_readretry
                0x4a0cd754       0x18 arch/arm/cpu/armv7/spare_head.o
 .rel.text.m5_read_page_end
                0x4a0cd76c       0x20 arch/arm/cpu/armv7/spare_head.o
 .rel.text.m5_special_init
                0x4a0cd78c       0x38 arch/arm/cpu/armv7/spare_head.o
 .rel.text.m5_special_exit
                0x4a0cd7c4       0x10 arch/arm/cpu/armv7/spare_head.o
 .rel.text.m5_is_lsb_page
                0x4a0cd7d4        0x8 arch/arm/cpu/armv7/spare_head.o
 .rel.text.m6_readretry_init
                0x4a0cd7dc       0x20 arch/arm/cpu/armv7/spare_head.o
 .rel.text.m6_vender_pre_condition
                0x4a0cd7fc       0x10 arch/arm/cpu/armv7/spare_head.o
 .rel.text.m6_read_retry_clock_save
                0x4a0cd80c       0x10 arch/arm/cpu/armv7/spare_head.o
 .rel.text.m6_read_retry_clock_recover
                0x4a0cd81c       0x10 arch/arm/cpu/armv7/spare_head.o
 .rel.text.m6_vender_set_param
                0x4a0cd82c       0x40 arch/arm/cpu/armv7/spare_head.o
 .rel.text.m6_set_readretry
                0x4a0cd86c       0x38 arch/arm/cpu/armv7/spare_head.o
 .rel.text.m6_exit_readretry
                0x4a0cd8a4       0x38 arch/arm/cpu/armv7/spare_head.o
 .rel.text.m6_read_page_end
                0x4a0cd8dc       0x28 arch/arm/cpu/armv7/spare_head.o
 .rel.text.m6_special_init
                0x4a0cd904       0x40 arch/arm/cpu/armv7/spare_head.o
 .rel.text.m6_special_exit
                0x4a0cd944       0x10 arch/arm/cpu/armv7/spare_head.o
 .rel.text.m6_is_lsb_page
                0x4a0cd954        0x8 arch/arm/cpu/armv7/spare_head.o
 .rel.text.m7_activation_seq
                0x4a0cd95c       0x20 arch/arm/cpu/armv7/spare_head.o
 .rel.text.m7_readretry_init
                0x4a0cd97c       0x20 arch/arm/cpu/armv7/spare_head.o
 .rel.text.m7_read_retry_clock_save
                0x4a0cd99c       0x10 arch/arm/cpu/armv7/spare_head.o
 .rel.text.m7_read_retry_clock_recover
                0x4a0cd9ac       0x10 arch/arm/cpu/armv7/spare_head.o
 .rel.text.m7_end_one_read_retry
                0x4a0cd9bc       0x18 arch/arm/cpu/armv7/spare_head.o
 .rel.text.m7_vender_set_param
                0x4a0cd9d4       0x20 arch/arm/cpu/armv7/spare_head.o
 .rel.text.m7_set_readretry
                0x4a0cd9f4       0x50 arch/arm/cpu/armv7/spare_head.o
 .rel.text.m7_exit_readretry
                0x4a0cda44       0x28 arch/arm/cpu/armv7/spare_head.o
 .rel.text.m7_read_page_end
                0x4a0cda6c       0x28 arch/arm/cpu/armv7/spare_head.o
 .rel.text.m7_special_init
                0x4a0cda94       0x40 arch/arm/cpu/armv7/spare_head.o
 .rel.text.m7_special_exit
                0x4a0cdad4       0x10 arch/arm/cpu/armv7/spare_head.o
 .rel.text.m7_is_lsb_page
                0x4a0cdae4        0x8 arch/arm/cpu/armv7/spare_head.o
 .rel.text.m9_dsp_on
                0x4a0cdaec        0x8 arch/arm/cpu/armv7/spare_head.o
 .rel.text.m9_cmd25
                0x4a0cdaf4        0x8 arch/arm/cpu/armv7/spare_head.o
 .rel.text.m9_set_lmflgfix_next
                0x4a0cdafc        0x8 arch/arm/cpu/armv7/spare_head.o
 .rel.text.m9_readretry_init
                0x4a0cdb04       0x28 arch/arm/cpu/armv7/spare_head.o
 .rel.text.m9_read_retry_clock_save
                0x00000000        0x0 arch/arm/cpu/armv7/spare_head.o
 .rel.text.m9_read_retry_clock_recover
                0x00000000        0x0 arch/arm/cpu/armv7/spare_head.o
 .rel.text.m9_vender_set_param
                0x4a0cdb2c        0x8 arch/arm/cpu/armv7/spare_head.o
 .rel.text.m9_set_readretry
                0x4a0cdb34       0x10 arch/arm/cpu/armv7/spare_head.o
 .rel.text.m9_exit_readretry
                0x4a0cdb44        0x8 arch/arm/cpu/armv7/spare_head.o
 .rel.text.m9_read_page_end
                0x4a0cdb4c       0x40 arch/arm/cpu/armv7/spare_head.o
 .rel.text.m9_special_init
                0x4a0cdb8c       0x40 arch/arm/cpu/armv7/spare_head.o
 .rel.text.m9_special_exit
                0x4a0cdbcc       0x10 arch/arm/cpu/armv7/spare_head.o
 .rel.data.nand_physic_function
                0x4a0cdbdc      0x660 arch/arm/cpu/armv7/spare_head.o

.rel_dyn_end    0x4a0ce23c        0x0
 *(.__rel_dyn_end)
 .__rel_dyn_end
                0x4a0ce23c        0x0 arch/arm/lib/built-in.o

.end            0x4a0ce23c        0x0
 *(.__end)
 .__end         0x4a0ce23c        0x0 arch/arm/lib/built-in.o
                0x4a0ce23c                _image_binary_end = .
                0x4a0cf000                . = ALIGN (0x1000)

.mmutable
 *(.mmutable)

.bss_start      0x4a0bb40c        0x0
 *(.__bss_start)
 .__bss_start   0x4a0bb40c        0x0 arch/arm/lib/built-in.o
                0x4a0bb40c                __bss_start
                0x4a0bb40c                __bss_base = .

.bss            0x4a0bb40c    0x422b8
 *(.bss*)
 .bss.timer_used_status
                0x4a0bb40c        0x4 arch/arm/cpu/armv7/sun50iw2p1/built-in.o
 .bss.sunxi_int_handlers
                0x4a0bb410      0x4e8 arch/arm/cpu/armv7/sun50iw2p1/built-in.o
                0x4a0bb410                sunxi_int_handlers
 .bss.usbc_otg_array
                0x4a0bb8f8       0x80 arch/arm/cpu/armv7/sun50iw2p1/built-in.o
 .bss.usbc_info_g
                0x4a0bb978       0x18 arch/arm/cpu/armv7/sun50iw2p1/built-in.o
 .bss.params    0x4a0bb990        0x4 arch/arm/lib/built-in.o
 .bss.sprite_source
                0x4a0bb994       0x1c board/sunxi/cartoon/built-in.o
                0x4a0bb994                sprite_source
 .bss.progressbar_hd
                0x4a0bb9b0        0x4 board/sunxi/cartoon/built-in.o
 .bss.last_rate
                0x4a0bb9b4        0x4 board/sunxi/cartoon/built-in.o
 .bss.ui_char_info
                0x4a0bb9b8       0x24 board/sunxi/cartoon/built-in.o
                0x4a0bb9b8                ui_char_info
 .bss.face      0x4a0bb9dc        0x4 board/sunxi/cartoon/built-in.o
                0x4a0bb9dc                face
 .bss.font      0x4a0bb9e0        0x4 board/sunxi/cartoon/built-in.o
                0x4a0bb9e0                font
 .bss.mbr_status
                0x4a0bb9e4        0x4 board/sunxi/common/built-in.o
 .bss.mbr_buf   0x4a0bb9e8     0x4000 board/sunxi/common/built-in.o
 .bss.misc_message.5597
                0x4a0bf9e8        0x4 board/sunxi/common/built-in.o
 .bss.misc_message.5536
                0x4a0bf9ec        0x4 board/sunxi/common/built-in.o
 .bss.PowerStart
                0x4a0bf9f0        0x4 board/sunxi/common/built-in.o
                0x4a0bf9f0                PowerStart
 .bss.screen_id
                0x4a0bf9f4        0x4 board/sunxi/common/built-in.o
 .bss.g_fb_list
                0x4a0bf9f8       0x24 board/sunxi/common/built-in.o
                0x4a0bf9f8                g_fb_list
 .bss.fb_dev.5105
                0x4a0bfa1c       0x1c board/sunxi/common/built-in.o
 .bss.tmp_buf   0x4a0bfa38      0x100 common/built-in.o
 .bss.tmp_buf.3763
                0x4a0bfb38      0x200 common/built-in.o
 .bss.flag_repeat
                0x4a0bfd38        0x4 common/built-in.o
 .bss.buf.4196  0x4a0bfd3c       0x28 common/built-in.o
 .bss.ifs       0x4a0bfd64        0x4 common/built-in.o
 .bss.the_command.3996
                0x4a0bfd68      0x101 common/built-in.o
 *fill*         0x4a0bfe69        0x3 00
 .bss.last_return_code
                0x4a0bfe6c        0x4 common/built-in.o
 .bss.map       0x4a0bfe70      0x100 common/built-in.o
 .bss.do_repeat
                0x4a0bff70        0x4 common/built-in.o
 .bss.top_vars  0x4a0bff74        0x4 common/built-in.o
 .bss.hist_list
                0x4a0bff78       0x50 common/built-in.o
 .bss.initted.3873
                0x4a0bffc8        0x4 common/built-in.o
 .bss.hist_lines
                0x4a0bffcc     0x1414 common/built-in.o
 .bss.hist_max  0x4a0c13e0        0x4 common/built-in.o
 .bss.hist_add_idx
                0x4a0c13e4        0x4 common/built-in.o
 .bss.hist_num  0x4a0c13e8        0x4 common/built-in.o
 .bss.console_buffer
                0x4a0c13ec      0x101 common/built-in.o
                0x4a0c13ec                console_buffer
 *fill*         0x4a0c14ed        0x3 00
 .bss.stored_bootdelay
                0x4a0c14f0        0x4 common/built-in.o
 .bss.monitor_flash_len
                0x4a0c14f4        0x4 common/built-in.o
                0x4a0c14f4                monitor_flash_len
 .bss.images    0x4a0c14f8      0x130 common/built-in.o
                0x4a0c14f8                images
 .bss.timer0_t  0x4a0c1628       0x10 common/built-in.o
                0x4a0c1628                timer0_t
 .bss.timer_test_flag
                0x4a0c1638        0x8 common/built-in.o
 .bss.timer1_t  0x4a0c1640       0x10 common/built-in.o
                0x4a0c1640                timer1_t
 .bss.sunxi_usb_burn_from_boot_overtime
                0x4a0c1650        0x4 common/built-in.o
                0x4a0c1650                sunxi_usb_burn_from_boot_overtime
 .bss.callback_list
                0x4a0c1654        0x4 common/built-in.o
 .bss.flags_list
                0x4a0c1658        0x4 common/built-in.o
 .bss.data.4361
                0x4a0c165c      0x400 common/built-in.o
 .bss.dp_last_addr
                0x4a0c1a5c        0x4 common/built-in.o
 .bss.base_address
                0x4a0c1a60        0x4 common/built-in.o
 .bss.mm_last_size
                0x4a0c1a64        0x4 common/built-in.o
 .bss.mm_last_addr
                0x4a0c1a68        0x4 common/built-in.o
 .bss.dp_last_size
                0x4a0c1a6c        0x4 common/built-in.o
 .bss.card0_init.4177
                0x4a0c1a70        0x4 common/built-in.o
 .bss.ctrlc_was_pressed
                0x4a0c1a74        0x4 common/built-in.o
 .bss.ctrlc_disabled
                0x4a0c1a78        0x4 common/built-in.o
 .bss.max_total_mem
                0x4a0c1a7c        0x4 common/built-in.o
 .bss.mem_malloc_brk
                0x4a0c1a80        0x4 common/built-in.o
                0x4a0c1a80                mem_malloc_brk
 .bss.max_sbrked_mem
                0x4a0c1a84        0x4 common/built-in.o
 .bss.current_mallinfo
                0x4a0c1a88       0x28 common/built-in.o
 .bss.mem_malloc_end
                0x4a0c1ab0        0x4 common/built-in.o
                0x4a0c1ab0                mem_malloc_end
 .bss.top_pad   0x4a0c1ab4        0x4 common/built-in.o
 .bss.mem_malloc_start
                0x4a0c1ab8        0x4 common/built-in.o
                0x4a0c1ab8                mem_malloc_start
 .bss.devs      0x4a0c1abc       0x3c common/built-in.o
 .bss.stdio_devices
                0x4a0c1af8        0xc common/built-in.o
                0x4a0c1af8                stdio_devices
 .bss.boot_heap_head
                0x4a0c1b04       0x10 common/built-in.o
 .bss.boot_heap_tail
                0x4a0c1b14       0x10 common/built-in.o
 .bss.USER_DATA_NUM
                0x4a0c1b24        0x4 common/built-in.o
                0x4a0c1b24                USER_DATA_NUM
 .bss.USER_DATA_NAME
                0x4a0c1b28      0x140 common/built-in.o
                0x4a0c1b28                USER_DATA_NAME
 .bss.pluse_pre
                0x4a0c1c68        0x1 drivers/built-in.o
 *fill*         0x4a0c1c69        0x3 00
 .bss.sunxi_ir_raw
                0x4a0c1c6c      0x618 drivers/built-in.o
                0x4a0c1c6c                sunxi_ir_raw
 .bss.is_receiving
                0x4a0c2284        0x4 drivers/built-in.o
 .bss.rawir     0x4a0c2288        0xc drivers/built-in.o
                0x4a0c2288                rawir
 .bss.ir_boot_recovery_mode
                0x4a0c2294        0x4 drivers/built-in.o
 .bss.ir_data   0x4a0c2298      0x204 drivers/built-in.o
                0x4a0c2298                ir_data
 .bss.suspend_output_type
                0x4a0c249c        0x8 drivers/built-in.o
 .bss.power_status_init
                0x4a0c24a4        0x4 drivers/built-in.o
 .bss.lcd_op_start
                0x4a0c24a8        0x2 drivers/built-in.o
 *fill*         0x4a0c24aa        0x2 00
 .bss.g_disp_drv
                0x4a0c24ac      0x1c0 drivers/built-in.o
                0x4a0c24ac                g_disp_drv
 .bss.lcd_flow_cnt
                0x4a0c266c        0x8 drivers/built-in.o
 .bss.lcd_timer
                0x4a0c2674       0x20 drivers/built-in.o
 .bss.lcd_op_finished
                0x4a0c2694        0x2 drivers/built-in.o
 *fill*         0x4a0c2696        0x2 00
 .bss.gdisp     0x4a0c2698      0x600 drivers/built-in.o
                0x4a0c2698                gdisp
 .bss.lcd_private
                0x4a0c2c98        0x4 drivers/built-in.o
 .bss.lcd_data_lock
                0x4a0c2c9c        0x4 drivers/built-in.o
 .bss.lcds      0x4a0c2ca0        0x4 drivers/built-in.o
 .bss.mgrs      0x4a0c2ca4        0x4 drivers/built-in.o
 .bss.mgr_cfgs  0x4a0c2ca8        0x4 drivers/built-in.o
 .bss.lyrs      0x4a0c2cac        0x4 drivers/built-in.o
 .bss.lyr_private
                0x4a0c2cb0        0x4 drivers/built-in.o
 .bss.mgr_private
                0x4a0c2cb4        0x4 drivers/built-in.o
 .bss.lyr_cfgs  0x4a0c2cb8        0x4 drivers/built-in.o
 .bss.mgr_data_lock
                0x4a0c2cbc        0x4 drivers/built-in.o
 .bss.mgr_mlock
                0x4a0c2cc0        0x4 drivers/built-in.o
 .bss.smbl_private
                0x4a0c2cc4        0x4 drivers/built-in.o
 .bss.smbls     0x4a0c2cc8        0x4 drivers/built-in.o
 .bss.smbl_data_lock
                0x4a0c2ccc        0x4 drivers/built-in.o
 .bss.enhance_private
                0x4a0c2cd0        0x4 drivers/built-in.o
 .bss.enhance_data_lock
                0x4a0c2cd4        0x4 drivers/built-in.o
 .bss.enhances  0x4a0c2cd8        0x4 drivers/built-in.o
 .bss.hdmi_mlock
                0x4a0c2cdc        0x4 drivers/built-in.o
 .bss.hdmis     0x4a0c2ce0        0x4 drivers/built-in.o
 .bss.hdmi_private
                0x4a0c2ce4        0x4 drivers/built-in.o
 .bss.hdmi_data_lock
                0x4a0c2ce8        0x4 drivers/built-in.o
 .bss.hdmi_used
                0x4a0c2cec        0x5 drivers/built-in.o
 *fill*         0x4a0c2cf1        0x3 00
 .bss.g_ptv_private
                0x4a0c2cf4        0x4 drivers/built-in.o
 .bss.g_init_para
                0x4a0c2cf8       0xa8 drivers/built-in.o
                0x4a0c2cf8                g_init_para
 .bss.g_tv_data_lock
                0x4a0c2da0        0x4 drivers/built-in.o
 .bss.g_ptv_devices
                0x4a0c2da4        0x4 drivers/built-in.o
 .bss.g_lcd_drv
                0x4a0c2da8       0x50 drivers/built-in.o
                0x4a0c2da8                g_lcd_drv
 .bss.gsu_dev   0x4a0c2df8       0x18 drivers/built-in.o
 .bss.gsu_glb_block
                0x4a0c2e10       0x60 drivers/built-in.o
 .bss.gsu_out_block
                0x4a0c2e70       0x60 drivers/built-in.o
 .bss.gsu_scale_block
                0x4a0c2ed0       0x60 drivers/built-in.o
 .bss.gsu_coeff_block
                0x4a0c2f30       0x60 drivers/built-in.o
 .bss.ovl_cpara.6872
                0x4a0c2f90       0x10 drivers/built-in.o
 .bss.lay_cfg.6867
                0x4a0c2fa0      0x440 drivers/built-in.o
 .bss.cpara.6811
                0x4a0c33e0       0x40 drivers/built-in.o
 .bss.para.6810
                0x4a0c3420      0x100 drivers/built-in.o
 .bss.g_de_freq
                0x4a0c3520        0x4 drivers/built-in.o
 .bss.g_de_blank
                0x4a0c3524        0x2 drivers/built-in.o
 *fill*         0x4a0c3526        0x2 00
 .bss.ovl_para.6871
                0x4a0c3528       0x40 drivers/built-in.o
 .bss.al_priv   0x4a0c3568       0x58 drivers/built-in.o
 .bss.vi_size_block
                0x4a0c35c0       0x20 drivers/built-in.o
 .bss.ui_size_block
                0x4a0c35e0       0x60 drivers/built-in.o
 .bss.bld_out_block
                0x4a0c3640       0x20 drivers/built-in.o
 .bss.bld_ctl_block
                0x4a0c3660       0x20 drivers/built-in.o
 .bss.bld_ck_block
                0x4a0c3680       0x20 drivers/built-in.o
 .bss.glb_ctl_block
                0x4a0c36a0       0x20 drivers/built-in.o
 .bss.bld_attr_block
                0x4a0c36c0       0x20 drivers/built-in.o
 .bss.vi_haddr_block
                0x4a0c36e0       0x20 drivers/built-in.o
 .bss.ui_haddr_block
                0x4a0c3700       0x60 drivers/built-in.o
 .bss.vi_attr_block
                0x4a0c3760       0x80 drivers/built-in.o
 .bss.vi_fc_block
                0x4a0c37e0       0x20 drivers/built-in.o
 .bss.de_base   0x4a0c3800        0x8 drivers/built-in.o
 .bss.ui_attr_block
                0x4a0c3808      0x180 drivers/built-in.o
 .bss.de200_rtmx
                0x4a0c3988       0x30 drivers/built-in.o
 .bss.vsu_chcoeff1_block
                0x4a0c39b8       0x20 drivers/built-in.o
 .bss.vsu_yvcoeff_block
                0x4a0c39d8       0x20 drivers/built-in.o
 .bss.vsu_chcoeff0_block
                0x4a0c39f8       0x20 drivers/built-in.o
 .bss.vsu_yscale_block
                0x4a0c3a18       0x20 drivers/built-in.o
 .bss.vsu_yhcoeff0_block
                0x4a0c3a38       0x20 drivers/built-in.o
 .bss.vsu_out_block
                0x4a0c3a58       0x20 drivers/built-in.o
 .bss.vsu_dev   0x4a0c3a78        0x8 drivers/built-in.o
 .bss.vsu_yhcoeff1_block
                0x4a0c3a80       0x20 drivers/built-in.o
 .bss.vsu_cscale_block
                0x4a0c3aa0       0x20 drivers/built-in.o
 .bss.vsu_glb_block
                0x4a0c3ac0       0x20 drivers/built-in.o
 .bss.vsu_cvcoeff_block
                0x4a0c3ae0       0x20 drivers/built-in.o
 .bss.de_cur_features
                0x4a0c3b00        0x4 drivers/built-in.o
 .bss.lcd_dev   0x4a0c3b04        0x8 drivers/built-in.o
 .bss.icsc_block
                0x4a0c3b0c       0x80 drivers/built-in.o
 .bss.csc_block
                0x4a0c3b8c       0x80 drivers/built-in.o
 .bss.ccsc_dev  0x4a0c3c0c       0x20 drivers/built-in.o
 .bss.vi_num    0x4a0c3c2c        0x8 drivers/built-in.o
 .bss.icsc_dev  0x4a0c3c34       0x20 drivers/built-in.o
 .bss.vep_support
                0x4a0c3c54       0x20 drivers/built-in.o
 .bss.dcsc_enable_block
                0x4a0c3c74       0x20 drivers/built-in.o
 .bss.dcsc2_dev
                0x4a0c3c94        0x8 drivers/built-in.o
 .bss.dcsc_dev  0x4a0c3c9c        0x8 drivers/built-in.o
 .bss.g_dcsc_config
                0x4a0c3ca4       0x50 drivers/built-in.o
 .bss.dcsc_coeff_block
                0x4a0c3cf4       0x20 drivers/built-in.o
 .bss.is_in_smbl
                0x4a0c3d14        0x8 drivers/built-in.o
 .bss.clk_enable_count
                0x4a0c3d1c        0x4 drivers/built-in.o
 .bss.power_enable_count
                0x4a0c3d20        0x4 drivers/built-in.o
 .bss.hdmi_io_used
                0x4a0c3d24        0x5 drivers/built-in.o
 .bss.hdmi_power_used
                0x4a0c3d29        0x1 drivers/built-in.o
 *fill*         0x4a0c3d2a        0x2 00
 .bss.io_enable_count
                0x4a0c3d2c        0x4 drivers/built-in.o
 .bss.hdmi_clk  0x4a0c3d30        0x4 drivers/built-in.o
 .bss.ghdmi     0x4a0c3d34       0x14 drivers/built-in.o
                0x4a0c3d34                ghdmi
 .bss.hdmi_ddc_clk
                0x4a0c3d48        0x4 drivers/built-in.o
 .bss.hdmi_io   0x4a0c3d4c      0x12c drivers/built-in.o
 .bss.b_hdmi_suspend_pre
                0x4a0c3e78        0x1 drivers/built-in.o
 .bss.hdmi_cec_support
                0x4a0c3e79        0x1 drivers/built-in.o
 .bss.hdmi_power
                0x4a0c3e7a       0x19 drivers/built-in.o
 *fill*         0x4a0c3e93        0x1 00
 .bss.mlock     0x4a0c3e94        0x4 drivers/built-in.o
 .bss.b_hdmi_suspend
                0x4a0c3e98        0x1 drivers/built-in.o
 *fill*         0x4a0c3e99        0x3 00
 .bss.glb_video_para
                0x4a0c3e9c        0xc drivers/built-in.o
 .bss.glb_audio_para
                0x4a0c3ea8       0x18 drivers/built-in.o
 .bss.hdmi_hpd_mask
                0x4a0c3ec0        0x4 drivers/built-in.o
                0x4a0c3ec0                hdmi_hpd_mask
 .bss.times.8924
                0x4a0c3ec4        0x4 drivers/built-in.o
 .bss.audio_info
                0x4a0c3ec8       0x10 drivers/built-in.o
 .bss.HPD       0x4a0c3ed8        0x4 drivers/built-in.o
 .bss.isHDMI    0x4a0c3edc        0x1 drivers/built-in.o
 *fill*         0x4a0c3edd        0x3 00
 .bss.hdmi_lock
                0x4a0c3ee0        0x4 drivers/built-in.o
 .bss.hdcp_enable
                0x4a0c3ee4        0x4 drivers/built-in.o
 .bss.YCbCr444_Support
                0x4a0c3ee8        0x1 drivers/built-in.o
 *fill*         0x4a0c3ee9        0x3 00
 .bss.video_on  0x4a0c3eec        0x4 drivers/built-in.o
 .bss.cts_enable
                0x4a0c3ef0        0x4 drivers/built-in.o
 .bss.hdmi_state
                0x4a0c3ef4        0x4 drivers/built-in.o
 .bss.video_enable
                0x4a0c3ef8        0x1 drivers/built-in.o
 .bss.hdmi_cec_enable
                0x4a0c3ef9        0x1 drivers/built-in.o
 *fill*         0x4a0c3efa        0x2 00
 .bss.audio_on  0x4a0c3efc        0x4 drivers/built-in.o
 .bss.rgb_only  0x4a0c3f00        0x4 drivers/built-in.o
                0x4a0c3f00                rgb_only
 .bss.is_yuv    0x4a0c3f04        0x4 drivers/built-in.o
 .bss.is_exp    0x4a0c3f08        0x4 drivers/built-in.o
                0x4a0c3f08                is_exp
 .bss.is_hdmi   0x4a0c3f0c        0x4 drivers/built-in.o
 .bss.Device_Support_VIC
                0x4a0c3f10      0x200 drivers/built-in.o
                0x4a0c3f10                Device_Support_VIC
 .bss.EDID_Buf  0x4a0c4110      0x400 drivers/built-in.o
 .bss.bias_source
                0x4a0c4510        0x4 drivers/built-in.o
 .bss.tmp_rcal_200
                0x4a0c4514        0x4 drivers/built-in.o
 .bss.rcal_flag
                0x4a0c4518        0x4 drivers/built-in.o
 .bss.tmp_rcal_100
                0x4a0c451c        0x4 drivers/built-in.o
 .bss.hdmi_base_addr
                0x4a0c4520        0x4 drivers/built-in.o
 .bss.glb_video
                0x4a0c4524        0xc drivers/built-in.o
 .bss.hdmi_func
                0x4a0c4530        0x8 drivers/built-in.o
 .bss.hdmi_version
                0x4a0c4538        0x4 drivers/built-in.o
 .bss.suspend   0x4a0c453c        0x4 drivers/built-in.o
 .bss.g_tv_info
                0x4a0c4540       0x48 drivers/built-in.o
                0x4a0c4540                g_tv_info
 .bss.offset    0x4a0c4588       0x10 drivers/built-in.o
 .bss.tve_reg_base
                0x4a0c4598        0x4 drivers/built-in.o
 .bss.sid_reg_base
                0x4a0c459c        0x4 drivers/built-in.o
 .bss.pllve_max
                0x4a0c45a0        0x4 drivers/clk/built-in.o
 .bss.pllcpu_max
                0x4a0c45a4        0x4 drivers/clk/built-in.o
 .bss.clk_lock  0x4a0c45a8        0x4 drivers/clk/built-in.o
 .bss.sunxi_clk_base
                0x4a0c45ac        0x4 drivers/clk/built-in.o
                0x4a0c45ac                sunxi_clk_base
 .bss.pllvideo_max
                0x4a0c45b0        0x4 drivers/clk/built-in.o
 .bss.pllperiph1_max
                0x4a0c45b4        0x4 drivers/clk/built-in.o
 .bss.pllgpu_max
                0x4a0c45b8        0x4 drivers/clk/built-in.o
 .bss.pllde_max
                0x4a0c45bc        0x4 drivers/clk/built-in.o
 .bss.pllddr_max
                0x4a0c45c0        0x4 drivers/clk/built-in.o
 .bss.pllperiph0_max
                0x4a0c45c4        0x4 drivers/clk/built-in.o
 .bss.dma_int_count
                0x4a0c45c8        0x4 drivers/dma/built-in.o
 .bss.dma_channal_source
                0x4a0c45cc      0x1c0 drivers/dma/built-in.o
 .bss.ext_sdly_spd_freq_sdc0
                0x4a0c478c       0x28 drivers/mmc/built-in.o
 .bss.ext_sdly_spd_freq
                0x4a0c47b4       0x28 drivers/mmc/built-in.o
 .bss.mmc_host_reg_bak
                0x4a0c47dc      0x60c drivers/mmc/built-in.o
                0x4a0c47dc                mmc_host_reg_bak
 .bss.ext_odly_spd_freq
                0x4a0c4de8       0x28 drivers/mmc/built-in.o
 .bss.ext_odly_spd_freq_sdc0
                0x4a0c4e10       0x28 drivers/mmc/built-in.o
 .bss.mmc_host  0x4a0c4e38      0xb64 drivers/mmc/built-in.o
                0x4a0c4e38                mmc_host
 .bss.pwm_gpio_info
                0x4a0c599c       0xe0 drivers/pwm/built-in.o
                0x4a0c599c                pwm_gpio_info
 .bss.pwm_pin_count
                0x4a0c5a7c       0x10 drivers/pwm/built-in.o
                0x4a0c5a7c                pwm_pin_count
 .bss.serial_devices
                0x4a0c5a8c        0x4 drivers/serial/built-in.o
 .bss.serial_current
                0x4a0c5a90        0x4 drivers/serial/built-in.o
 .bss.result.4116
                0x4a0c5a94       0x10 drivers/smc/built-in.o
 .bss.sunxi_flash_blk_dev
                0x4a0c5aa4       0xa8 drivers/sunxi_flash/built-in.o
 .bss.mmc_boot  0x4a0c5b4c        0x4 drivers/sunxi_flash/built-in.o
 .bss.mmc_no    0x4a0c5b50        0x4 drivers/sunxi_flash/built-in.o
 .bss.mmc_sprite
                0x4a0c5b54        0x4 drivers/sunxi_flash/built-in.o
 .bss.fs_partition
                0x4a0c5b58       0x50 fs/built-in.o
 .bss.fs_type   0x4a0c5ba8        0x4 fs/built-in.o
 .bss.fs_dev_desc
                0x4a0c5bac        0x4 fs/built-in.o
 *fill*         0x4a0c5bb0       0x10 00
 .bss.do_fat_read_at_block
                0x4a0c5bc0    0x10000 fs/built-in.o
                0x4a0c5bc0                do_fat_read_at_block
 .bss.get_dentfromdir_block
                0x4a0d5bc0    0x10000 fs/built-in.o
                0x4a0d5bc0                get_dentfromdir_block
 .bss.cur_part_info
                0x4a0e5bc0       0x50 fs/built-in.o
 *fill*         0x4a0e5c10       0x30 00
 .bss.get_contents_vfatname_block
                0x4a0e5c40    0x10000 fs/built-in.o
                0x4a0e5c40                get_contents_vfatname_block
 .bss.cur_dev   0x4a0f5c40        0x4 fs/built-in.o
 .bss.errno     0x4a0f5c44        0x4 lib/built-in.o
                0x4a0f5c44                errno
 .bss.local.3931
                0x4a0f5c48       0x16 lib/built-in.o
 .bss.cleanse_ctr
                0x4a0f5c5e        0x1 lib/openssl/built-in.o
                0x4a0f5c5e                cleanse_ctr
 *fill*         0x4a0f5c5f        0x1 00
 .bss.added     0x4a0f5c60        0x4 lib/openssl/built-in.o
 .bss.k         0x4a0f5c64        0x4 lib/openssl/built-in.o
                0x4a0f5c64                k
 .bss.ex_data   0x4a0f5c68        0x4 lib/openssl/built-in.o
 .bss.impl      0x4a0f5c6c        0x4 lib/openssl/built-in.o
 .bss.use_phys  0x4a0f5c70        0x4 memtest/built-in.o
                0x4a0f5c70                use_phys
 .bss.nand_nodeoffset
                0x4a0f5c74        0x4 nand_sunxi/built-in.o
 .bss.boot_mode
                0x4a0f5c78        0x4 nand_sunxi/built-in.o
 .bss.dma_chan  0x4a0f5c7c        0x4 nand_sunxi/built-in.o
                0x4a0f5c7c                dma_chan
 .bss._buf.4783
                0x4a0f5c80      0x400 nand_sunxi/built-in.o
 .bss._buf.4788
                0x4a0f6080      0x400 nand_sunxi/built-in.o
 .bss.flash_scaned
                0x4a0f6480        0x4 nand_sunxi/built-in.o
 .bss.mbr_burned_flag
                0x4a0f6484        0x4 nand_sunxi/built-in.o
                0x4a0f6484                mbr_burned_flag
 .bss.nand_partition_num
                0x4a0f6488        0x4 nand_sunxi/built-in.o
 .bss.nand_mbr  0x4a0f648c      0xd88 nand_sunxi/built-in.o
                0x4a0f648c                nand_mbr
 .bss.g_nand_info
                0x4a0f7214        0x4 nand_sunxi/built-in.o
 .bss.nand_para_store
                0x4a0f7218      0x100 nand_sunxi/built-in.o
 .bss.nand_open_times
                0x4a0f7318        0x4 nand_sunxi/built-in.o
 .bss.imghd     0x4a0f731c        0x4 sprite/built-in.o
 .bss.imgitemhd
                0x4a0f7320        0x4 sprite/built-in.o
 .bss.total_chunks
                0x4a0f7324        0x4 sprite/built-in.o
 .bss.flash_start
                0x4a0f7328        0x4 sprite/built-in.o
 .bss.chunk_count
                0x4a0f732c        0x4 sprite/built-in.o
 .bss.globl_header
                0x4a0f7330       0x1c sprite/built-in.o
 .bss.sparse_format_type
                0x4a0f734c        0x4 sprite/built-in.o
 .bss.android_format_checksum
                0x4a0f7350        0x4 sprite/built-in.o
 .bss.chunk_length
                0x4a0f7354        0x4 sprite/built-in.o
 .bss.last_rest_size
                0x4a0f7358        0x4 sprite/built-in.o
 .bss.img_file_start
                0x4a0f735c        0x4 sprite/built-in.o
                0x4a0f735c                img_file_start
 .bss.part_info
                0x4a0f7360      0x280 sprite/built-in.o
                0x4a0f7360                part_info
 .bss.sprite_led_hd
                0x4a0f75e0        0x4 sprite/built-in.o
 .bss.sprite_led_inited
                0x4a0f75e4        0x4 sprite/built-in.o
 .bss.sprite_led_status
                0x4a0f75e8        0x4 sprite/built-in.o
 .bss.TIMER0    0x4a0f75ec       0x10 sprite/built-in.o
                0x4a0f75ec                TIMER0
 .bss.align_resp_buf
                0x4a0f75fc        0x4 sprite/built-in.o
 .bss.oem_class
                0x4a0f7600      0x400 sprite/built-in.o
 .bss.align_cmd_buf
                0x4a0f7a00        0x4 sprite/built-in.o
 .bss.map_dirty
                0x4a0f7a04        0x4 sprite/built-in.o
 .bss.secure_storage_inited
                0x4a0f7a08        0x4 sprite/built-in.o
 .bss._inner_buffer
                0x4a0f7a0c     0x2040 sprite/built-in.o
 .bss.secure_storage_map
                0x4a0f9a4c     0x1000 sprite/built-in.o
                0x4a0f9a4c                secure_storage_map
 .bss.write_protect_item
                0x4a0faa4c      0x400 sprite/built-in.o
 .bss.sunxi_usb_mass_write_enable
                0x4a0fae4c        0x4 usb_sunxi/built-in.o
 .bss.trans_data
                0x4a0fae50       0x98 usb_sunxi/built-in.o
 .bss.mass_flash_sectors.5170
                0x4a0faee8        0x4 usb_sunxi/built-in.o
 .bss.sunxi_usb_mass_status
                0x4a0faeec        0x4 usb_sunxi/built-in.o
 .bss.mass_flash_start.5169
                0x4a0faef0        0x4 usb_sunxi/built-in.o
 .bss.cbw.5167  0x4a0faef4        0x4 usb_sunxi/built-in.o
 .bss.csw.5168  0x4a0faef8        0xd usb_sunxi/built-in.o
 *fill*         0x4a0faf05        0x3 00
 .bss.pmu_config
                0x4a0faf08       0x28 usb_sunxi/built-in.o
 .bss.sunxi_efex_next_action
                0x4a0faf30        0x4 usb_sunxi/built-in.o
 .bss.sunxi_usb_efex_write_enable
                0x4a0faf34        0x4 usb_sunxi/built-in.o
 .bss.cbw.6368  0x4a0faf38        0x4 usb_sunxi/built-in.o
 .bss.efex_suspend_flag
                0x4a0faf3c        0x4 usb_sunxi/built-in.o
                0x4a0faf3c                efex_suspend_flag
 .bss.global_unseq_mem_addr
                0x4a0faf40        0x8 usb_sunxi/built-in.o
 .bss.csw.6369  0x4a0faf48        0xd usb_sunxi/built-in.o
 *fill*         0x4a0faf55        0x3 00
 .bss.sunxi_usb_efex_status
                0x4a0faf58        0x4 usb_sunxi/built-in.o
 .bss.cmd_buf   0x4a0faf5c        0x4 usb_sunxi/built-in.o
 .bss.sunxi_usb_fastboot_write_enable
                0x4a0faf60        0x4 usb_sunxi/built-in.o
 .bss.all_download_bytes
                0x4a0faf64        0x4 usb_sunxi/built-in.o
 .bss.fastboot_data_flag
                0x4a0faf68        0x4 usb_sunxi/built-in.o
                0x4a0faf68                fastboot_data_flag
 .bss.sunxi_usb_fastboot_status
                0x4a0faf6c        0x4 usb_sunxi/built-in.o
 .bss.burn_part_bytes
                0x4a0faf70        0x8 usb_sunxi/built-in.o
                0x4a0faf70                burn_part_bytes
 .bss.sunxi_usb_burn_from_boot_init
                0x4a0faf78        0x4 usb_sunxi/built-in.o
                0x4a0faf78                sunxi_usb_burn_from_boot_init
 .bss.private_data_ext_buff
                0x4a0faf7c        0x4 usb_sunxi/built-in.o
 .bss.pburn_flash_sectors.5910
                0x4a0faf80        0x4 usb_sunxi/built-in.o
 .bss.sunxi_usb_pburn_write_enable
                0x4a0faf84        0x4 usb_sunxi/built-in.o
 .bss.sunxi_usb_burn_from_boot_handshake
                0x4a0faf88        0x4 usb_sunxi/built-in.o
                0x4a0faf88                sunxi_usb_burn_from_boot_handshake
 .bss.burn_part_result_state
                0x4a0faf8c        0x4 usb_sunxi/built-in.o
 .bss.sunxi_usb_burn_from_boot_setup
                0x4a0faf90        0x4 usb_sunxi/built-in.o
                0x4a0faf90                sunxi_usb_burn_from_boot_setup
 .bss.burn_private_start
                0x4a0faf94        0x4 usb_sunxi/built-in.o
 .bss.burn_private_len
                0x4a0faf98        0x4 usb_sunxi/built-in.o
 .bss.pburn_flash_start.5909
                0x4a0faf9c        0x4 usb_sunxi/built-in.o
 .bss.csw.5908  0x4a0fafa0        0xd usb_sunxi/built-in.o
 *fill*         0x4a0fafad        0x3 00
 .bss.cbw.5907  0x4a0fafb0        0x4 usb_sunxi/built-in.o
 .bss.burn_part_start
                0x4a0fafb4        0x4 usb_sunxi/built-in.o
 .bss.burn_part_len
                0x4a0fafb8        0x4 usb_sunxi/built-in.o
 .bss.sunxi_usb_pburn_status
                0x4a0fafbc        0x4 usb_sunxi/built-in.o
 .bss.private_data_ext_buff_step
                0x4a0fafc0        0x4 usb_sunxi/built-in.o
 .bss.buf_queue_base_buf
                0x4a0fafc4        0x4 usb_sunxi/built-in.o
                0x4a0fafc4                buf_queue_base_buf
 .bss.buf_queue_tail
                0x4a0fafc8        0x4 usb_sunxi/built-in.o
                0x4a0fafc8                buf_queue_tail
 .bss.buf_queue_init_flag
                0x4a0fafcc        0x4 usb_sunxi/built-in.o
                0x4a0fafcc                buf_queue_init_flag
 .bss.buf_queue_head
                0x4a0fafd0        0x4 usb_sunxi/built-in.o
                0x4a0fafd0                buf_queue_head
 .bss.buf_queue_current_len
                0x4a0fafd4        0x4 usb_sunxi/built-in.o
                0x4a0fafd4                buf_queue_current_len
 .bss.buf_queue_element
                0x4a0fafd8        0xc usb_sunxi/built-in.o
                0x4a0fafd8                buf_queue_element
 .bss.raw_hdcp_key
                0x4a0fafe4      0x140 usb_sunxi/built-in.o
 .bss.sunxi_usb_ep0_buffer
                0x4a0fb124      0x200 usb_sunxi/built-in.o
 .bss.ep0_stage.5384
                0x4a0fb324        0x4 usb_sunxi/built-in.o
 .bss.sunxi_udev_active
                0x4a0fb328        0x4 usb_sunxi/built-in.o
                0x4a0fb328                sunxi_udev_active
 .bss.usb_dma_trans_unaliged_bytes
                0x4a0fb32c        0x4 usb_sunxi/built-in.o
 .bss.sunxi_udc_source
                0x4a0fb330       0x2c usb_sunxi/built-in.o
                0x4a0fb330                sunxi_udc_source
 .bss.sunxi_ubuf
                0x4a0fb35c       0x14 usb_sunxi/built-in.o
 .bss.usb_dma_trans_unaligned_buf
                0x4a0fb370        0x4 usb_sunxi/built-in.o
 .bss.usb_dma_used
                0x4a0fb374       0x20 usb_sunxi/built-in.o
 .bss.usb_hd    0x4a0fb394        0x4 usb_sunxi/built-in.o
 .bss.nftl_blk_head
                0x4a0fb398       0x48 nand_sunxi/sun50iw2p1/libnand-sun50iw2p1
                0x4a0fb398                nftl_blk_head
 .bss.nand_physic_temp8
                0x4a0fb3e0        0x4 nand_sunxi/sun50iw2p1/libnand-sun50iw2p1
                0x4a0fb3e0                nand_physic_temp8
 .bss.g_nctri   0x4a0fb3e4        0x4 nand_sunxi/sun50iw2p1/libnand-sun50iw2p1
                0x4a0fb3e4                g_nctri
 .bss.nand_physic_special_init
                0x4a0fb3e8        0x4 nand_sunxi/sun50iw2p1/libnand-sun50iw2p1
                0x4a0fb3e8                nand_physic_special_init
 .bss.nand_physic_temp7
                0x4a0fb3ec        0x4 nand_sunxi/sun50iw2p1/libnand-sun50iw2p1
                0x4a0fb3ec                nand_physic_temp7
 .bss.phyinfo_buf
                0x4a0fb3f0        0x4 nand_sunxi/sun50iw2p1/libnand-sun50iw2p1
                0x4a0fb3f0                phyinfo_buf
 .bss.g_phy_cfg
                0x4a0fb3f4        0x4 nand_sunxi/sun50iw2p1/libnand-sun50iw2p1
                0x4a0fb3f4                g_phy_cfg
 .bss.g_nssi    0x4a0fb3f8        0x4 nand_sunxi/sun50iw2p1/libnand-sun50iw2p1
                0x4a0fb3f8                g_nssi
 .bss.g_nssi_data
                0x4a0fb3fc       0x1c nand_sunxi/sun50iw2p1/libnand-sun50iw2p1
                0x4a0fb3fc                g_nssi_data
 .bss.g_nctri_data
                0x4a0fb418      0xad0 nand_sunxi/sun50iw2p1/libnand-sun50iw2p1
                0x4a0fb418                g_nctri_data
 .bss.nsci_data
                0x4a0fbee8      0x2c0 nand_sunxi/sun50iw2p1/libnand-sun50iw2p1
                0x4a0fbee8                nsci_data
 .bss.g_nand_storage_info
                0x4a0fc1a8        0x4 nand_sunxi/sun50iw2p1/libnand-sun50iw2p1
                0x4a0fc1a8                g_nand_storage_info
 .bss.g_nand_storage_info_data
                0x4a0fc1ac       0x60 nand_sunxi/sun50iw2p1/libnand-sun50iw2p1
                0x4a0fc1ac                g_nand_storage_info_data
 .bss.g_nsi     0x4a0fc20c        0x4 nand_sunxi/sun50iw2p1/libnand-sun50iw2p1
                0x4a0fc20c                g_nsi
 .bss.nci_data  0x4a0fc210      0x980 nand_sunxi/sun50iw2p1/libnand-sun50iw2p1
                0x4a0fc210                nci_data
 .bss.nand_physic_special_exit
                0x4a0fcb90        0x4 nand_sunxi/sun50iw2p1/libnand-sun50iw2p1
                0x4a0fcb90                nand_physic_special_exit
 .bss.ntf       0x4a0fcb94       0x84 nand_sunxi/sun50iw2p1/libnand-sun50iw2p1
                0x4a0fcb94                ntf
 .bss.aw_nand_info
                0x4a0fcc18      0x9c8 nand_sunxi/sun50iw2p1/libnand-sun50iw2p1
                0x4a0fcc18                aw_nand_info
 .bss.g_nsi_data
                0x4a0fd5e0        0xc nand_sunxi/sun50iw2p1/libnand-sun50iw2p1
                0x4a0fd5e0                g_nsi_data
 .bss.nand_physic_temp2
                0x4a0fd5ec        0x4 nand_sunxi/sun50iw2p1/libnand-sun50iw2p1
                0x4a0fd5ec                nand_physic_temp2
 .bss.nand_physic_temp1
                0x4a0fd5f0        0x4 nand_sunxi/sun50iw2p1/libnand-sun50iw2p1
                0x4a0fd5f0                nand_physic_temp1
 .bss.nand_physic_temp4
                0x4a0fd5f4        0x4 nand_sunxi/sun50iw2p1/libnand-sun50iw2p1
                0x4a0fd5f4                nand_physic_temp4
 .bss.nand_physic_temp5
                0x4a0fd5f8        0x4 nand_sunxi/sun50iw2p1/libnand-sun50iw2p1
                0x4a0fd5f8                nand_physic_temp5
 .bss.nand_physic_temp6
                0x4a0fd5fc        0x4 nand_sunxi/sun50iw2p1/libnand-sun50iw2p1
                0x4a0fd5fc                nand_physic_temp6
 .bss.nand_physic_temp3
                0x4a0fd600        0x4 nand_sunxi/sun50iw2p1/libnand-sun50iw2p1
                0x4a0fd600                nand_physic_temp3
 .bss.flag.5784
                0x4a0fd604        0x4 nand_sunxi/sun50iw2p1/libnand-sun50iw2p1
 .bss.nand_secure_storage_block_bak
                0x4a0fd608        0x4 nand_sunxi/sun50iw2p1/libnand-sun50iw2p1
                0x4a0fd608                nand_secure_storage_block_bak
 .bss.nand_secure_storage_block
                0x4a0fd60c        0x4 nand_sunxi/sun50iw2p1/libnand-sun50iw2p1
                0x4a0fd60c                nand_secure_storage_block
 .bss.function_read_page_end
                0x4a0fd610        0x4 nand_sunxi/sun50iw2p1/libnand-sun50iw2p1
                0x4a0fd610                function_read_page_end
 .bss.m1_read_retry_mode
                0x4a0fd614        0x1 nand_sunxi/sun50iw2p1/libnand-sun50iw2p1
                0x4a0fd614                m1_read_retry_mode
 .bss.m1_read_retry_cycle
                0x4a0fd615        0x1 nand_sunxi/sun50iw2p1/libnand-sun50iw2p1
                0x4a0fd615                m1_read_retry_cycle
 .bss.m1_read_retry_reg_adr
                0x4a0fd616        0x4 nand_sunxi/sun50iw2p1/libnand-sun50iw2p1
                0x4a0fd616                m1_read_retry_reg_adr
 .bss.m1_read_retry_reg_num
                0x4a0fd61a        0x1 nand_sunxi/sun50iw2p1/libnand-sun50iw2p1
                0x4a0fd61a                m1_read_retry_reg_num
 *fill*         0x4a0fd61b        0x1 00
 .bss.SECURE_FLAG
                0x4a0fd61c        0x4 nand_sunxi/sun50iw2p1/libnand-sun50iw2p1
 .bss.m2_read_retry_mode
                0x4a0fd620        0x1 nand_sunxi/sun50iw2p1/libnand-sun50iw2p1
                0x4a0fd620                m2_read_retry_mode
 .bss.m2_lsb_mode_default_val
                0x4a0fd621        0x4 nand_sunxi/sun50iw2p1/libnand-sun50iw2p1
                0x4a0fd621                m2_lsb_mode_default_val
 .bss.m2_read_retry_cycle
                0x4a0fd625        0x1 nand_sunxi/sun50iw2p1/libnand-sun50iw2p1
                0x4a0fd625                m2_read_retry_cycle
 .bss.m2_lsb_mode_reg_adr
                0x4a0fd626        0x4 nand_sunxi/sun50iw2p1/libnand-sun50iw2p1
                0x4a0fd626                m2_lsb_mode_reg_adr
 .bss.m2_lsb_mode_reg_num
                0x4a0fd62a        0x1 nand_sunxi/sun50iw2p1/libnand-sun50iw2p1
                0x4a0fd62a                m2_lsb_mode_reg_num
 .bss.m2_read_retry_reg_adr
                0x4a0fd62b        0x8 nand_sunxi/sun50iw2p1/libnand-sun50iw2p1
                0x4a0fd62b                m2_read_retry_reg_adr
 .bss.m2_read_retry_reg_num
                0x4a0fd633        0x1 nand_sunxi/sun50iw2p1/libnand-sun50iw2p1
                0x4a0fd633                m2_read_retry_reg_num
 .bss.m2_lsb_mode_val
                0x4a0fd634        0x4 nand_sunxi/sun50iw2p1/libnand-sun50iw2p1
                0x4a0fd634                m2_lsb_mode_val
 .bss.m3_lsb_mode_default_val
                0x4a0fd638        0x5 nand_sunxi/sun50iw2p1/libnand-sun50iw2p1
                0x4a0fd638                m3_lsb_mode_default_val
 .bss.m3_read_retry_mode
                0x4a0fd63d        0x1 nand_sunxi/sun50iw2p1/libnand-sun50iw2p1
                0x4a0fd63d                m3_read_retry_mode
 .bss.m3_lsb_mode_val
                0x4a0fd63e        0x5 nand_sunxi/sun50iw2p1/libnand-sun50iw2p1
                0x4a0fd63e                m3_lsb_mode_val
 *fill*         0x4a0fd643        0x1 00
 .bss.m3_read_retry_val
                0x4a0fd644       0x38 nand_sunxi/sun50iw2p1/libnand-sun50iw2p1
                0x4a0fd644                m3_read_retry_val
 .bss.m3_read_retry_cycle
                0x4a0fd67c        0x1 nand_sunxi/sun50iw2p1/libnand-sun50iw2p1
                0x4a0fd67c                m3_read_retry_cycle
 .bss.m3_read_retry_reg_adr
                0x4a0fd67d        0x4 nand_sunxi/sun50iw2p1/libnand-sun50iw2p1
                0x4a0fd67d                m3_read_retry_reg_adr
 .bss.m3_read_retry_reg_num
                0x4a0fd681        0x1 nand_sunxi/sun50iw2p1/libnand-sun50iw2p1
                0x4a0fd681                m3_read_retry_reg_num
 .bss.m3_lsb_mode_reg_adr
                0x4a0fd682        0x5 nand_sunxi/sun50iw2p1/libnand-sun50iw2p1
                0x4a0fd682                m3_lsb_mode_reg_adr
 .bss.m3_lsb_mode_reg_num
                0x4a0fd687        0x1 nand_sunxi/sun50iw2p1/libnand-sun50iw2p1
                0x4a0fd687                m3_lsb_mode_reg_num
 .bss.m4_read_retry_cycle
                0x4a0fd688        0x1 nand_sunxi/sun50iw2p1/libnand-sun50iw2p1
                0x4a0fd688                m4_read_retry_cycle
 *fill*         0x4a0fd689        0x3 00
 .bss.m4_p1     0x4a0fd68c        0x4 nand_sunxi/sun50iw2p1/libnand-sun50iw2p1
 .bss.m4_read_retry_mode
                0x4a0fd690        0x1 nand_sunxi/sun50iw2p1/libnand-sun50iw2p1
                0x4a0fd690                m4_read_retry_mode
 .bss.m5_read_retry_mode
                0x4a0fd691        0x1 nand_sunxi/sun50iw2p1/libnand-sun50iw2p1
                0x4a0fd691                m5_read_retry_mode
 .bss.m5_read_retry_cycle
                0x4a0fd692        0x1 nand_sunxi/sun50iw2p1/libnand-sun50iw2p1
                0x4a0fd692                m5_read_retry_cycle
 *fill*         0x4a0fd693        0x1 00
 .bss.m6_sclk1_bak
                0x4a0fd694        0x4 nand_sunxi/sun50iw2p1/libnand-sun50iw2p1
 .bss.m6_read_retry_mode
                0x4a0fd698        0x1 nand_sunxi/sun50iw2p1/libnand-sun50iw2p1
                0x4a0fd698                m6_read_retry_mode
 *fill*         0x4a0fd699        0x3 00
 .bss.m6_toggle_mode_flag
                0x4a0fd69c        0x4 nand_sunxi/sun50iw2p1/libnand-sun50iw2p1
 .bss.m6_read_retry_cycle
                0x4a0fd6a0        0x1 nand_sunxi/sun50iw2p1/libnand-sun50iw2p1
                0x4a0fd6a0                m6_read_retry_cycle
 .bss.m6_read_retry_reg_cnt
                0x4a0fd6a1        0x1 nand_sunxi/sun50iw2p1/libnand-sun50iw2p1
                0x4a0fd6a1                m6_read_retry_reg_cnt
 *fill*         0x4a0fd6a2        0x2 00
 .bss.m6_sclk0_bak
                0x4a0fd6a4        0x4 nand_sunxi/sun50iw2p1/libnand-sun50iw2p1
 .bss.m6_retry_flag
                0x4a0fd6a8        0x4 nand_sunxi/sun50iw2p1/libnand-sun50iw2p1
 .bss.m7_sclk1_bak
                0x4a0fd6ac        0x4 nand_sunxi/sun50iw2p1/libnand-sun50iw2p1
 .bss.m7_read_retry_mode
                0x4a0fd6b0        0x1 nand_sunxi/sun50iw2p1/libnand-sun50iw2p1
                0x4a0fd6b0                m7_read_retry_mode
 *fill*         0x4a0fd6b1        0x3 00
 .bss.m7_toggle_mode_flag
                0x4a0fd6b4        0x4 nand_sunxi/sun50iw2p1/libnand-sun50iw2p1
 .bss.m7_read_retry_reg_cnt
                0x4a0fd6b8        0x1 nand_sunxi/sun50iw2p1/libnand-sun50iw2p1
                0x4a0fd6b8                m7_read_retry_reg_cnt
 .bss.m7_read_retry_cycle
                0x4a0fd6b9        0x1 nand_sunxi/sun50iw2p1/libnand-sun50iw2p1
                0x4a0fd6b9                m7_read_retry_cycle
 *fill*         0x4a0fd6ba        0x2 00
 .bss.m7_sclk0_bak
                0x4a0fd6bc        0x4 nand_sunxi/sun50iw2p1/libnand-sun50iw2p1
 .bss.m9_read_retry_cycle
                0x4a0fd6c0        0x1 nand_sunxi/sun50iw2p1/libnand-sun50iw2p1
                0x4a0fd6c0                m9_read_retry_cycle
 .bss.m9_read_retry_mode
                0x4a0fd6c1        0x1 nand_sunxi/sun50iw2p1/libnand-sun50iw2p1
                0x4a0fd6c1                m9_read_retry_mode
 .bss.m9_read_retry_reg_cnt
                0x4a0fd6c2        0x1 nand_sunxi/sun50iw2p1/libnand-sun50iw2p1
                0x4a0fd6c2                m9_read_retry_reg_cnt
                0x4a0fd6c4                . = ALIGN (0x4)
 *fill*         0x4a0fd6c3        0x1 00
                0x4a0fd6c4                __bss_limit = .

.bss_end        0x4a0fd6c4        0x0
 *(.__bss_end)
 .__bss_end     0x4a0fd6c4        0x0 arch/arm/lib/built-in.o
                0x4a0fd6c4                __bss_end

.dynsym         0x4a0ce23c       0x60
 *(.dynsym)
 .dynsym        0x4a0ce23c       0x60 arch/arm/cpu/armv7/spare_head.o

.dynbss         0x4a0ce29c        0x0
 *(.dynbss)
 .dynbss        0x00000000        0x0 arch/arm/cpu/armv7/spare_head.o

.dynstr         0x4a0ce29c       0x2a
 *(.dynstr*)
 .dynstr        0x4a0ce29c       0x2a arch/arm/cpu/armv7/spare_head.o

.dynamic        0x4a0ce2c8       0x80
 *(.dynamic*)
 .dynamic       0x4a0ce2c8       0x80 arch/arm/cpu/armv7/spare_head.o
                0x4a0ce2c8                _DYNAMIC

.plt            0x4a0ce348        0x0
 *(.plt*)
 .plt           0x00000000        0x0 arch/arm/cpu/armv7/spare_head.o

.interp         0x4a0ce348       0x11
 *(.interp*)
 .interp        0x4a0ce348       0x11 arch/arm/cpu/armv7/spare_head.o

.gnu.hash
 *(.gnu.hash)

.gnu            0x4a0ce35c        0x0
 *(.gnu*)
 .gnu.version_d
                0x00000000        0x0 arch/arm/cpu/armv7/spare_head.o
 .gnu.version   0x00000000        0x0 arch/arm/cpu/armv7/spare_head.o
 .gnu.version_r
                0x00000000        0x0 arch/arm/cpu/armv7/spare_head.o

.ARM.exidx
 *(.ARM.exidx*)

.gnu.linkonce.armexidx
 *(.gnu.linkonce.armexidx.*)
LOAD arch/arm/cpu/armv7/start.o
START GROUP
LOAD arch/arm/cpu/built-in.o
LOAD arch/arm/cpu/armv7/built-in.o
LOAD arch/arm/cpu/armv7/sun50iw2p1/built-in.o
LOAD arch/arm/lib/built-in.o
LOAD board/sunxi/cartoon/built-in.o
LOAD board/sunxi/common/built-in.o
LOAD board/sunxi/sun50iw2p1/built-in.o
LOAD common/built-in.o
LOAD disk/built-in.o
LOAD drivers/built-in.o
LOAD drivers/clk/built-in.o
LOAD drivers/dma/built-in.o
LOAD drivers/gpio/built-in.o
LOAD drivers/i2c/built-in.o
LOAD drivers/input/built-in.o
LOAD drivers/mmc/built-in.o
LOAD drivers/mtd/built-in.o
LOAD drivers/mtd/onenand/built-in.o
LOAD drivers/mtd/spi/built-in.o
LOAD drivers/net/built-in.o
LOAD drivers/net/phy/built-in.o
LOAD drivers/pci/built-in.o
LOAD drivers/power/built-in.o
LOAD drivers/power/battery/built-in.o
LOAD drivers/power/fuel_gauge/built-in.o
LOAD drivers/power/mfd/built-in.o
LOAD drivers/power/pmic/built-in.o
LOAD drivers/pwm/built-in.o
LOAD drivers/rsb/built-in.o
LOAD drivers/serial/built-in.o
LOAD drivers/smc/built-in.o
LOAD drivers/spi/built-in.o
LOAD drivers/sunxi_flash/built-in.o
LOAD drivers/usb/eth/built-in.o
LOAD drivers/usb/gadget/built-in.o
LOAD drivers/usb/host/built-in.o
LOAD drivers/usb/musb-new/built-in.o
LOAD drivers/usb/musb/built-in.o
LOAD drivers/usb/phy/built-in.o
LOAD drivers/usb/ulpi/built-in.o
LOAD fs/built-in.o
LOAD lib/built-in.o
LOAD lib/libfdt/built-in.o
LOAD lib/openssl/built-in.o
LOAD memtest/built-in.o
LOAD nand_sunxi/built-in.o
LOAD net/built-in.o
LOAD sprite/built-in.o
LOAD test/built-in.o
LOAD test/dm/built-in.o
LOAD usb_sunxi/built-in.o
END GROUP
LOAD arch/arm/lib/eabi_compat.o
LOAD /home/orange/OPEN_SOURCE/OrangePi_H5SDK/toolchain/gcc-linaro-aarch/gcc-linaro/bin/../lib/gcc/arm-linux-gnueabi/4.6.3/libgcc.a
LOAD nand_sunxi/sun50iw2p1/libnand-sun50iw2p1
OUTPUT(u-boot elf32-littlearm)

.debug_info     0x00000000   0x174178
 .debug_info    0x00000000      0x6d0 arch/arm/cpu/armv7/spare_head.o
 .debug_info    0x000006d0      0x3a5 arch/arm/cpu/armv7/uboot_hash.o
 .debug_info    0x00000a75       0x70 arch/arm/cpu/armv7/start.o
 .debug_info    0x00000ae5     0x13c9 arch/arm/cpu/armv7/built-in.o
 .debug_info    0x00001eae     0xbf57 arch/arm/cpu/armv7/sun50iw2p1/built-in.o
 .debug_info    0x0000de05     0x3f00 arch/arm/lib/built-in.o
 .debug_info    0x00011d05     0x406f board/sunxi/cartoon/built-in.o
 .debug_info    0x00015d74    0x11408 board/sunxi/common/built-in.o
 .debug_info    0x0002717c      0xead board/sunxi/sun50iw2p1/built-in.o
 .debug_info    0x00028029    0x2ee06 common/built-in.o
 .debug_info    0x00056e2f     0x1efe disk/built-in.o
 .debug_info    0x00058d2d    0x53d93 drivers/built-in.o
 .debug_info    0x000acac0     0x6cb6 drivers/clk/built-in.o
 .debug_info    0x000b3776      0xc6f drivers/dma/built-in.o
 .debug_info    0x000b43e5      0x655 drivers/i2c/built-in.o
 .debug_info    0x000b4a3a    0x100f4 drivers/mmc/built-in.o
 .debug_info    0x000c4b2e     0x4f01 drivers/power/built-in.o
 .debug_info    0x000c9a2f     0x15b2 drivers/pwm/built-in.o
 .debug_info    0x000cafe1     0x2543 drivers/serial/built-in.o
 .debug_info    0x000cd524     0x12b2 drivers/smc/built-in.o
 .debug_info    0x000ce7d6     0x4273 drivers/sunxi_flash/built-in.o
 .debug_info    0x000d2a49     0x379d fs/built-in.o
 .debug_info    0x000d61e6     0xa5b6 lib/built-in.o
 .debug_info    0x000e079c     0x4647 lib/libfdt/built-in.o
 .debug_info    0x000e4de3    0x1e3eb lib/openssl/built-in.o
 .debug_info    0x001031ce      0xcbc memtest/built-in.o
 .debug_info    0x00103e8a     0x3e34 nand_sunxi/built-in.o
 .debug_info    0x00107cbe     0xe5e8 sprite/built-in.o
 .debug_info    0x001162a6     0xaa9b usb_sunxi/built-in.o
 .debug_info    0x00120d41      0x3dc arch/arm/lib/eabi_compat.o
 .debug_info    0x0012111d    0x5305b nand_sunxi/sun50iw2p1/libnand-sun50iw2p1

.debug_abbrev   0x00000000    0x33911
 .debug_abbrev  0x00000000       0xf9 arch/arm/cpu/armv7/spare_head.o
 .debug_abbrev  0x000000f9       0xea arch/arm/cpu/armv7/uboot_hash.o
 .debug_abbrev  0x000001e3       0x14 arch/arm/cpu/armv7/start.o
 .debug_abbrev  0x000001f7      0x52a arch/arm/cpu/armv7/built-in.o
 .debug_abbrev  0x00000721     0x1f67 arch/arm/cpu/armv7/sun50iw2p1/built-in.o
 .debug_abbrev  0x00002688      0xcac arch/arm/lib/built-in.o
 .debug_abbrev  0x00003334      0xcba board/sunxi/cartoon/built-in.o
 .debug_abbrev  0x00003fee     0x2b45 board/sunxi/common/built-in.o
 .debug_abbrev  0x00006b33      0x209 board/sunxi/sun50iw2p1/built-in.o
 .debug_abbrev  0x00006d3c     0x8703 common/built-in.o
 .debug_abbrev  0x0000f43f      0x5e1 disk/built-in.o
 .debug_abbrev  0x0000fa20     0x93da drivers/built-in.o
 .debug_abbrev  0x00018dfa      0xfab drivers/clk/built-in.o
 .debug_abbrev  0x00019da5      0x2cd drivers/dma/built-in.o
 .debug_abbrev  0x0001a072      0x193 drivers/i2c/built-in.o
 .debug_abbrev  0x0001a205     0x1bfd drivers/mmc/built-in.o
 .debug_abbrev  0x0001be02      0xa40 drivers/power/built-in.o
 .debug_abbrev  0x0001c842      0x3f3 drivers/pwm/built-in.o
 .debug_abbrev  0x0001cc35      0x6ea drivers/serial/built-in.o
 .debug_abbrev  0x0001d31f      0x325 drivers/smc/built-in.o
 .debug_abbrev  0x0001d644      0x758 drivers/sunxi_flash/built-in.o
 .debug_abbrev  0x0001dd9c      0x905 fs/built-in.o
 .debug_abbrev  0x0001e6a1     0x2864 lib/built-in.o
 .debug_abbrev  0x00020f05      0xda4 lib/libfdt/built-in.o
 .debug_abbrev  0x00021ca9     0x501f lib/openssl/built-in.o
 .debug_abbrev  0x00026cc8      0x17d memtest/built-in.o
 .debug_abbrev  0x00026e45      0xb13 nand_sunxi/built-in.o
 .debug_abbrev  0x00027958     0x26bd sprite/built-in.o
 .debug_abbrev  0x0002a015     0x1ac3 usb_sunxi/built-in.o
 .debug_abbrev  0x0002bad8      0x118 arch/arm/lib/eabi_compat.o
 .debug_abbrev  0x0002bbf0     0x7d21 nand_sunxi/sun50iw2p1/libnand-sun50iw2p1

.debug_line     0x00000000    0x472c8
 .debug_line    0x00000000       0xfc arch/arm/cpu/armv7/spare_head.o
 .debug_line    0x000000fc       0xd9 arch/arm/cpu/armv7/uboot_hash.o
 .debug_line    0x000001d5       0x85 arch/arm/cpu/armv7/start.o
 .debug_line    0x0000025a      0x4ef arch/arm/cpu/armv7/built-in.o
 .debug_line    0x00000749     0x28c8 arch/arm/cpu/armv7/sun50iw2p1/built-in.o
 .debug_line    0x00003011      0xd13 arch/arm/lib/built-in.o
 .debug_line    0x00003d24      0xed1 board/sunxi/cartoon/built-in.o
 .debug_line    0x00004bf5     0x36d3 board/sunxi/common/built-in.o
 .debug_line    0x000082c8      0x23c board/sunxi/sun50iw2p1/built-in.o
 .debug_line    0x00008504     0x9065 common/built-in.o
 .debug_line    0x00011569      0x63a disk/built-in.o
 .debug_line    0x00011ba3     0xd656 drivers/built-in.o
 .debug_line    0x0001f1f9     0x1278 drivers/clk/built-in.o
 .debug_line    0x00020471      0x332 drivers/dma/built-in.o
 .debug_line    0x000207a3      0x151 drivers/i2c/built-in.o
 .debug_line    0x000208f4     0x3153 drivers/mmc/built-in.o
 .debug_line    0x00023a47     0x1679 drivers/power/built-in.o
 .debug_line    0x000250c0      0x417 drivers/pwm/built-in.o
 .debug_line    0x000254d7      0x835 drivers/serial/built-in.o
 .debug_line    0x00025d0c      0x4a8 drivers/smc/built-in.o
 .debug_line    0x000261b4      0xaf8 drivers/sunxi_flash/built-in.o
 .debug_line    0x00026cac      0xcb0 fs/built-in.o
 .debug_line    0x0002795c     0x3471 lib/built-in.o
 .debug_line    0x0002adcd     0x1363 lib/libfdt/built-in.o
 .debug_line    0x0002c130     0x545c lib/openssl/built-in.o
 .debug_line    0x0003158c      0x4e1 memtest/built-in.o
 .debug_line    0x00031a6d     0x1136 nand_sunxi/built-in.o
 .debug_line    0x00032ba3     0x3030 sprite/built-in.o
 .debug_line    0x00035bd3     0x21bd usb_sunxi/built-in.o
 .debug_line    0x00037d90      0x105 arch/arm/lib/eabi_compat.o
 .debug_line    0x00037e95     0xf433 nand_sunxi/sun50iw2p1/libnand-sun50iw2p1

.debug_str      0x00000000    0x2dbda
 .debug_str     0x00000000      0x40e arch/arm/cpu/armv7/spare_head.o
                                0x510 (size before relaxing)
 .debug_str     0x0000040e       0x20 arch/arm/cpu/armv7/uboot_hash.o
                                0x2ea (size before relaxing)
 .debug_str     0x0000042e      0x34a arch/arm/cpu/armv7/built-in.o
                                0xbc8 (size before relaxing)
 .debug_str     0x00000778     0x2ca4 arch/arm/cpu/armv7/sun50iw2p1/built-in.o
                               0x5bbf (size before relaxing)
 .debug_str     0x0000341c     0x10b2 arch/arm/lib/built-in.o
                               0x2e6f (size before relaxing)
 .debug_str     0x000044ce      0xbd1 board/sunxi/cartoon/built-in.o
                               0x25cf (size before relaxing)
 .debug_str     0x0000509f     0x31ee board/sunxi/common/built-in.o
                               0xb203 (size before relaxing)
 .debug_str     0x0000828d      0x12e board/sunxi/sun50iw2p1/built-in.o
                                0xacc (size before relaxing)
 .debug_str     0x000083bb     0x5569 common/built-in.o
                              0x1c2a1 (size before relaxing)
 .debug_str     0x0000d924      0x2a5 disk/built-in.o
                                0xef9 (size before relaxing)
 .debug_str     0x0000dbc9     0xacf4 drivers/built-in.o
                              0x37d29 (size before relaxing)
 .debug_str     0x000188bd     0x1615 drivers/clk/built-in.o
                               0x2f9c (size before relaxing)
 .debug_str     0x00019ed2      0x341 drivers/dma/built-in.o
                                0x6cc (size before relaxing)
 .debug_str     0x0001a213       0x97 drivers/i2c/built-in.o
                                0x385 (size before relaxing)
 .debug_str     0x0001a2aa     0x18fa drivers/mmc/built-in.o
                               0x6e7a (size before relaxing)
 .debug_str     0x0001bba4      0xdbe drivers/power/built-in.o
                               0x2655 (size before relaxing)
 .debug_str     0x0001c962      0x37e drivers/pwm/built-in.o
                                0x892 (size before relaxing)
 .debug_str     0x0001cce0      0x52c drivers/serial/built-in.o
                               0x1386 (size before relaxing)
 .debug_str     0x0001d20c      0x36b drivers/smc/built-in.o
                                0x9a1 (size before relaxing)
 .debug_str     0x0001d577      0xaa2 drivers/sunxi_flash/built-in.o
                               0x26e4 (size before relaxing)
 .debug_str     0x0001e019      0x6fa fs/built-in.o
                               0x1801 (size before relaxing)
 .debug_str     0x0001e713     0x1290 lib/built-in.o
                               0x5c14 (size before relaxing)
 .debug_str     0x0001f9a3      0x91c lib/libfdt/built-in.o
                               0x178f (size before relaxing)
 .debug_str     0x000202bf     0x1c4d lib/openssl/built-in.o
                               0xf551 (size before relaxing)
 .debug_str     0x00021f0c      0x1a3 memtest/built-in.o
                                0x483 (size before relaxing)
 .debug_str     0x000220af      0xd19 nand_sunxi/built-in.o
                               0x228e (size before relaxing)
 .debug_str     0x00022dc8     0x1bf9 sprite/built-in.o
                               0x8547 (size before relaxing)
 .debug_str     0x000249c1     0x1c16 usb_sunxi/built-in.o
                               0x5ed5 (size before relaxing)
 .debug_str     0x000265d7       0x56 arch/arm/lib/eabi_compat.o
                                0x30f (size before relaxing)
 .debug_str     0x0002662d     0x75ad nand_sunxi/sun50iw2p1/libnand-sun50iw2p1
                              0x38f6d (size before relaxing)

.comment        0x00000000       0x8e
 .comment       0x00000000       0x64 arch/arm/cpu/armv7/spare_head.o
                                 0x65 (size before relaxing)
 .comment       0x00000000       0x65 arch/arm/cpu/armv7/uboot_hash.o
 .comment       0x00000000      0x12f arch/arm/cpu/armv7/built-in.o
 .comment       0x00000000      0x521 arch/arm/cpu/armv7/sun50iw2p1/built-in.o
 .comment       0x00000000      0x2c3 arch/arm/lib/built-in.o
 .comment       0x00000000      0x25e board/sunxi/cartoon/built-in.o
 .comment       0x00000000      0x7e4 board/sunxi/common/built-in.o
 .comment       0x00000000       0x65 board/sunxi/sun50iw2p1/built-in.o
 .comment       0x00000000     0x16e2 common/built-in.o
 .comment       0x00000000       0xca disk/built-in.o
 .comment       0x00000064       0x2a drivers/built-in.o
                               0x17d7 (size before relaxing)
 .comment       0x00000000      0x1f9 drivers/clk/built-in.o
 .comment       0x00000000       0x65 drivers/dma/built-in.o
 .comment       0x00000000       0x65 drivers/i2c/built-in.o
 .comment       0x00000000      0x328 drivers/mmc/built-in.o
 .comment       0x00000000      0x1f9 drivers/power/built-in.o
 .comment       0x00000000       0x65 drivers/pwm/built-in.o
 .comment       0x00000000      0x12f drivers/serial/built-in.o
 .comment       0x00000000       0x65 drivers/smc/built-in.o
 .comment       0x00000000      0x12f drivers/sunxi_flash/built-in.o
 .comment       0x00000000      0x12f fs/built-in.o
 .comment       0x00000000      0x978 lib/built-in.o
 .comment       0x00000000      0x2c3 lib/libfdt/built-in.o
 .comment       0x00000000     0x102d lib/openssl/built-in.o
 .comment       0x00000000       0x65 memtest/built-in.o
 .comment       0x00000000      0x1f9 nand_sunxi/built-in.o
 .comment       0x00000000      0x71a sprite/built-in.o
 .comment       0x00000000      0x3f2 usb_sunxi/built-in.o
 .comment       0x00000000       0x65 arch/arm/lib/eabi_compat.o
 .comment       0x00000000     0x141f nand_sunxi/sun50iw2p1/libnand-sun50iw2p1

.note.GNU-stack
                0x00000000        0x0
 .note.GNU-stack
                0x00000000        0x0 arch/arm/cpu/armv7/spare_head.o
 .note.GNU-stack
                0x00000000        0x0 arch/arm/cpu/armv7/uboot_hash.o
 .note.GNU-stack
                0x00000000        0x0 arch/arm/cpu/armv7/built-in.o
 .note.GNU-stack
                0x00000000        0x0 arch/arm/cpu/armv7/sun50iw2p1/built-in.o
 .note.GNU-stack
                0x00000000        0x0 arch/arm/lib/built-in.o
 .note.GNU-stack
                0x00000000        0x0 board/sunxi/cartoon/built-in.o
 .note.GNU-stack
                0x00000000        0x0 board/sunxi/common/built-in.o
 .note.GNU-stack
                0x00000000        0x0 board/sunxi/sun50iw2p1/built-in.o
 .note.GNU-stack
                0x00000000        0x0 common/built-in.o
 .note.GNU-stack
                0x00000000        0x0 disk/built-in.o
 .note.GNU-stack
                0x00000000        0x0 drivers/built-in.o
 .note.GNU-stack
                0x00000000        0x0 drivers/clk/built-in.o
 .note.GNU-stack
                0x00000000        0x0 drivers/dma/built-in.o
 .note.GNU-stack
                0x00000000        0x0 drivers/i2c/built-in.o
 .note.GNU-stack
                0x00000000        0x0 drivers/mmc/built-in.o
 .note.GNU-stack
                0x00000000        0x0 drivers/power/built-in.o
 .note.GNU-stack
                0x00000000        0x0 drivers/pwm/built-in.o
 .note.GNU-stack
                0x00000000        0x0 drivers/serial/built-in.o
 .note.GNU-stack
                0x00000000        0x0 drivers/smc/built-in.o
 .note.GNU-stack
                0x00000000        0x0 drivers/sunxi_flash/built-in.o
 .note.GNU-stack
                0x00000000        0x0 fs/built-in.o
 .note.GNU-stack
                0x00000000        0x0 lib/built-in.o
 .note.GNU-stack
                0x00000000        0x0 lib/libfdt/built-in.o
 .note.GNU-stack
                0x00000000        0x0 lib/openssl/built-in.o
 .note.GNU-stack
                0x00000000        0x0 memtest/built-in.o
 .note.GNU-stack
                0x00000000        0x0 nand_sunxi/built-in.o
 .note.GNU-stack
                0x00000000        0x0 sprite/built-in.o
 .note.GNU-stack
                0x00000000        0x0 usb_sunxi/built-in.o
 .note.GNU-stack
                0x00000000        0x0 arch/arm/lib/eabi_compat.o
 .note.GNU-stack
                0x00000000        0x0 /home/orange/OPEN_SOURCE/OrangePi_H5SDK/toolchain/gcc-linaro-aarch/gcc-linaro/bin/../lib/gcc/arm-linux-gnueabi/4.6.3/libgcc.a(_udivsi3.o)
 .note.GNU-stack
                0x00000000        0x0 /home/orange/OPEN_SOURCE/OrangePi_H5SDK/toolchain/gcc-linaro-aarch/gcc-linaro/bin/../lib/gcc/arm-linux-gnueabi/4.6.3/libgcc.a(_divsi3.o)
 .note.GNU-stack
                0x00000000        0x0 /home/orange/OPEN_SOURCE/OrangePi_H5SDK/toolchain/gcc-linaro-aarch/gcc-linaro/bin/../lib/gcc/arm-linux-gnueabi/4.6.3/libgcc.a(_lshrdi3.o)
 .note.GNU-stack
                0x00000000        0x0 /home/orange/OPEN_SOURCE/OrangePi_H5SDK/toolchain/gcc-linaro-aarch/gcc-linaro/bin/../lib/gcc/arm-linux-gnueabi/4.6.3/libgcc.a(_ashrdi3.o)
 .note.GNU-stack
                0x00000000        0x0 /home/orange/OPEN_SOURCE/OrangePi_H5SDK/toolchain/gcc-linaro-aarch/gcc-linaro/bin/../lib/gcc/arm-linux-gnueabi/4.6.3/libgcc.a(_ashldi3.o)
 .note.GNU-stack
                0x00000000        0x0 /home/orange/OPEN_SOURCE/OrangePi_H5SDK/toolchain/gcc-linaro-aarch/gcc-linaro/bin/../lib/gcc/arm-linux-gnueabi/4.6.3/libgcc.a(_dvmd_lnx.o)
 .note.GNU-stack
                0x00000000        0x0 nand_sunxi/sun50iw2p1/libnand-sun50iw2p1

.ARM.attributes
                0x00000000       0x35
 .ARM.attributes
                0x00000000       0x2f arch/arm/cpu/armv7/spare_head.o
 .ARM.attributes
                0x0000002f       0x2f arch/arm/cpu/armv7/uboot_hash.o
 .ARM.attributes
                0x0000005e       0x21 arch/arm/cpu/armv7/start.o
 .ARM.attributes
                0x0000007f       0x2f arch/arm/cpu/armv7/built-in.o
 .ARM.attributes
                0x000000ae       0x2f arch/arm/cpu/armv7/sun50iw2p1/built-in.o
 .ARM.attributes
                0x000000dd       0x2d arch/arm/lib/built-in.o
 .ARM.attributes
                0x0000010a       0x2f board/sunxi/cartoon/built-in.o
 .ARM.attributes
                0x00000139       0x2f board/sunxi/common/built-in.o
 .ARM.attributes
                0x00000168       0x2f board/sunxi/sun50iw2p1/built-in.o
 .ARM.attributes
                0x00000197       0x2f common/built-in.o
 .ARM.attributes
                0x000001c6       0x2f disk/built-in.o
 .ARM.attributes
                0x000001f5       0x2f drivers/built-in.o
 .ARM.attributes
                0x00000224       0x2f drivers/clk/built-in.o
 .ARM.attributes
                0x00000253       0x2f drivers/dma/built-in.o
 .ARM.attributes
                0x00000282       0x2f drivers/i2c/built-in.o
 .ARM.attributes
                0x000002b1       0x2f drivers/mmc/built-in.o
 .ARM.attributes
                0x000002e0       0x2f drivers/power/built-in.o
 .ARM.attributes
                0x0000030f       0x2f drivers/pwm/built-in.o
 .ARM.attributes
                0x0000033e       0x2f drivers/serial/built-in.o
 .ARM.attributes
                0x0000036d       0x31 drivers/smc/built-in.o
 .ARM.attributes
                0x0000039e       0x2f drivers/sunxi_flash/built-in.o
 .ARM.attributes
                0x000003cd       0x2f fs/built-in.o
 .ARM.attributes
                0x000003fc       0x2f lib/built-in.o
 .ARM.attributes
                0x0000042b       0x2f lib/libfdt/built-in.o
 .ARM.attributes
                0x0000045a       0x2f lib/openssl/built-in.o
 .ARM.attributes
                0x00000489       0x2f memtest/built-in.o
 .ARM.attributes
                0x000004b8       0x2f nand_sunxi/built-in.o
 .ARM.attributes
                0x000004e7       0x2f sprite/built-in.o
 .ARM.attributes
                0x00000516       0x2f usb_sunxi/built-in.o
 .ARM.attributes
                0x00000545       0x2f arch/arm/lib/eabi_compat.o
 .ARM.attributes
                0x00000574       0x23 /home/orange/OPEN_SOURCE/OrangePi_H5SDK/toolchain/gcc-linaro-aarch/gcc-linaro/bin/../lib/gcc/arm-linux-gnueabi/4.6.3/libgcc.a(_udivsi3.o)
 .ARM.attributes
                0x00000597       0x23 /home/orange/OPEN_SOURCE/OrangePi_H5SDK/toolchain/gcc-linaro-aarch/gcc-linaro/bin/../lib/gcc/arm-linux-gnueabi/4.6.3/libgcc.a(_divsi3.o)
 .ARM.attributes
                0x000005ba       0x23 /home/orange/OPEN_SOURCE/OrangePi_H5SDK/toolchain/gcc-linaro-aarch/gcc-linaro/bin/../lib/gcc/arm-linux-gnueabi/4.6.3/libgcc.a(_lshrdi3.o)
 .ARM.attributes
                0x000005dd       0x23 /home/orange/OPEN_SOURCE/OrangePi_H5SDK/toolchain/gcc-linaro-aarch/gcc-linaro/bin/../lib/gcc/arm-linux-gnueabi/4.6.3/libgcc.a(_ashrdi3.o)
 .ARM.attributes
                0x00000600       0x23 /home/orange/OPEN_SOURCE/OrangePi_H5SDK/toolchain/gcc-linaro-aarch/gcc-linaro/bin/../lib/gcc/arm-linux-gnueabi/4.6.3/libgcc.a(_ashldi3.o)
 .ARM.attributes
                0x00000623       0x23 /home/orange/OPEN_SOURCE/OrangePi_H5SDK/toolchain/gcc-linaro-aarch/gcc-linaro/bin/../lib/gcc/arm-linux-gnueabi/4.6.3/libgcc.a(_dvmd_lnx.o)
 .ARM.attributes
                0x00000646       0x2f nand_sunxi/sun50iw2p1/libnand-sun50iw2p1

.debug_aranges  0x00000000     0x9658
 .debug_aranges
                0x00000000       0x20 arch/arm/cpu/armv7/start.o
 .debug_aranges
                0x00000020      0x108 arch/arm/cpu/armv7/built-in.o
 .debug_aranges
                0x00000128      0x840 arch/arm/cpu/armv7/sun50iw2p1/built-in.o
 .debug_aranges
                0x00000968      0x270 arch/arm/lib/built-in.o
 .debug_aranges
                0x00000bd8      0x1d0 board/sunxi/cartoon/built-in.o
 .debug_aranges
                0x00000da8      0x718 board/sunxi/common/built-in.o
 .debug_aranges
                0x000014c0       0x78 board/sunxi/sun50iw2p1/built-in.o
 .debug_aranges
                0x00001538     0x1290 common/built-in.o
 .debug_aranges
                0x000027c8       0xa0 disk/built-in.o
 .debug_aranges
                0x00002868     0x1e00 drivers/built-in.o
 .debug_aranges
                0x00004668      0x250 drivers/clk/built-in.o
 .debug_aranges
                0x000048b8       0x80 drivers/dma/built-in.o
 .debug_aranges
                0x00004938       0x48 drivers/i2c/built-in.o
 .debug_aranges
                0x00004980      0x4d0 drivers/mmc/built-in.o
 .debug_aranges
                0x00004e50      0x368 drivers/power/built-in.o
 .debug_aranges
                0x000051b8       0x78 drivers/pwm/built-in.o
 .debug_aranges
                0x00005230      0x1f0 drivers/serial/built-in.o
 .debug_aranges
                0x00005420      0x138 drivers/smc/built-in.o
 .debug_aranges
                0x00005558      0x2f8 drivers/sunxi_flash/built-in.o
 .debug_aranges
                0x00005850      0x1a8 fs/built-in.o
 .debug_aranges
                0x000059f8      0x660 lib/built-in.o
 .debug_aranges
                0x00006058      0x2e8 lib/libfdt/built-in.o
 .debug_aranges
                0x00006340      0x9b8 lib/openssl/built-in.o
 .debug_aranges
                0x00006cf8       0xa0 memtest/built-in.o
 .debug_aranges
                0x00006d98      0x418 nand_sunxi/built-in.o
 .debug_aranges
                0x000071b0      0x590 sprite/built-in.o
 .debug_aranges
                0x00007740      0x3e0 usb_sunxi/built-in.o
 .debug_aranges
                0x00007b20       0x30 arch/arm/lib/eabi_compat.o
 .debug_aranges
                0x00007b50     0x1b08 nand_sunxi/sun50iw2p1/libnand-sun50iw2p1

.debug_frame    0x00000000    0x18d24
 .debug_frame   0x00000000      0x1e0 arch/arm/cpu/armv7/built-in.o
 .debug_frame   0x000001e0     0x1130 arch/arm/cpu/armv7/sun50iw2p1/built-in.o
 .debug_frame   0x00001310      0x3b8 arch/arm/lib/built-in.o
 .debug_frame   0x000016c8      0x4e0 board/sunxi/cartoon/built-in.o
 .debug_frame   0x00001ba8     0x1348 board/sunxi/common/built-in.o
 .debug_frame   0x00002ef0       0xf0 board/sunxi/sun50iw2p1/built-in.o
 .debug_frame   0x00002fe0     0x305c common/built-in.o
 .debug_frame   0x0000603c      0x1d0 disk/built-in.o
 .debug_frame   0x0000620c     0x5144 drivers/built-in.o
 .debug_frame   0x0000b350      0x628 drivers/clk/built-in.o
 .debug_frame   0x0000b978      0x138 drivers/dma/built-in.o
 .debug_frame   0x0000bab0       0x98 drivers/i2c/built-in.o
 .debug_frame   0x0000bb48      0xf58 drivers/mmc/built-in.o
 .debug_frame   0x0000caa0      0x850 drivers/power/built-in.o
 .debug_frame   0x0000d2f0      0x158 drivers/pwm/built-in.o
 .debug_frame   0x0000d448      0x454 drivers/serial/built-in.o
 .debug_frame   0x0000d89c      0x398 drivers/smc/built-in.o
 .debug_frame   0x0000dc34      0x764 drivers/sunxi_flash/built-in.o
 .debug_frame   0x0000e398      0x4c4 fs/built-in.o
 .debug_frame   0x0000e85c      0xfb8 lib/built-in.o
 .debug_frame   0x0000f814      0x914 lib/libfdt/built-in.o
 .debug_frame   0x00010128     0x1568 lib/openssl/built-in.o
 .debug_frame   0x00011690      0x25c memtest/built-in.o
 .debug_frame   0x000118ec      0x9fc nand_sunxi/built-in.o
 .debug_frame   0x000122e8      0xf04 sprite/built-in.o
 .debug_frame   0x000131ec      0xa00 usb_sunxi/built-in.o
 .debug_frame   0x00013bec       0x48 arch/arm/lib/eabi_compat.o
 .debug_frame   0x00013c34       0x20 /home/orange/OPEN_SOURCE/OrangePi_H5SDK/toolchain/gcc-linaro-aarch/gcc-linaro/bin/../lib/gcc/arm-linux-gnueabi/4.6.3/libgcc.a(_udivsi3.o)
 .debug_frame   0x00013c54       0x20 /home/orange/OPEN_SOURCE/OrangePi_H5SDK/toolchain/gcc-linaro-aarch/gcc-linaro/bin/../lib/gcc/arm-linux-gnueabi/4.6.3/libgcc.a(_divsi3.o)
 .debug_frame   0x00013c74     0x50b0 nand_sunxi/sun50iw2p1/libnand-sun50iw2p1

.debug_loc      0x00000000    0x93903
 .debug_loc     0x00000000      0x6e4 arch/arm/cpu/armv7/built-in.o
 .debug_loc     0x000006e4     0x503a arch/arm/cpu/armv7/sun50iw2p1/built-in.o
 .debug_loc     0x0000571e      0x8f3 arch/arm/lib/built-in.o
 .debug_loc     0x00006011     0x1e37 board/sunxi/cartoon/built-in.o
 .debug_loc     0x00007e48     0x9341 board/sunxi/common/built-in.o
 .debug_loc     0x00011189      0x144 board/sunxi/sun50iw2p1/built-in.o
 .debug_loc     0x000112cd    0x14296 common/built-in.o
 .debug_loc     0x00025563      0xd2d disk/built-in.o
 .debug_loc     0x00026290    0x188c0 drivers/built-in.o
 .debug_loc     0x0003eb50     0x30cf drivers/clk/built-in.o
 .debug_loc     0x00041c1f      0x4e9 drivers/dma/built-in.o
 .debug_loc     0x00042108      0x237 drivers/i2c/built-in.o
 .debug_loc     0x0004233f     0x9ba0 drivers/mmc/built-in.o
 .debug_loc     0x0004bedf     0x40ee drivers/power/built-in.o
 .debug_loc     0x0004ffcd     0x118f drivers/pwm/built-in.o
 .debug_loc     0x0005115c      0x7de drivers/serial/built-in.o
 .debug_loc     0x0005193a      0xaf8 drivers/smc/built-in.o
 .debug_loc     0x00052432     0x1a3b drivers/sunxi_flash/built-in.o
 .debug_loc     0x00053e6d     0x27ec fs/built-in.o
 .debug_loc     0x00056659     0x7bfd lib/built-in.o
 .debug_loc     0x0005e256     0x3ebc lib/libfdt/built-in.o
 .debug_loc     0x00062112     0x7f2c lib/openssl/built-in.o
 .debug_loc     0x0006a03e     0x13cb memtest/built-in.o
 .debug_loc     0x0006b409     0x1fd6 nand_sunxi/built-in.o
 .debug_loc     0x0006d3df     0x54ae sprite/built-in.o
 .debug_loc     0x0007288d     0x4c24 usb_sunxi/built-in.o
 .debug_loc     0x000774b1       0x3e arch/arm/lib/eabi_compat.o
 .debug_loc     0x000774ef    0x1c414 nand_sunxi/sun50iw2p1/libnand-sun50iw2p1

.debug_ranges   0x00000000     0xee50
 .debug_ranges  0x00000000      0x178 arch/arm/cpu/armv7/built-in.o
 .debug_ranges  0x00000178      0xd48 arch/arm/cpu/armv7/sun50iw2p1/built-in.o
 .debug_ranges  0x00000ec0      0x1d0 arch/arm/lib/built-in.o
 .debug_ranges  0x00001090      0x1c8 board/sunxi/cartoon/built-in.o
 .debug_ranges  0x00001258     0x10c8 board/sunxi/common/built-in.o
 .debug_ranges  0x00002320       0x68 board/sunxi/sun50iw2p1/built-in.o
 .debug_ranges  0x00002388     0x1f38 common/built-in.o
 .debug_ranges  0x000042c0      0x1b8 disk/built-in.o
 .debug_ranges  0x00004478     0x3230 drivers/built-in.o
 .debug_ranges  0x000076a8      0x4f0 drivers/clk/built-in.o
 .debug_ranges  0x00007b98       0x70 drivers/dma/built-in.o
 .debug_ranges  0x00007c08       0x38 drivers/i2c/built-in.o
 .debug_ranges  0x00007c40      0xe58 drivers/mmc/built-in.o
 .debug_ranges  0x00008a98      0x8a0 drivers/power/built-in.o
 .debug_ranges  0x00009338      0x1e8 drivers/pwm/built-in.o
 .debug_ranges  0x00009520      0x3d0 drivers/serial/built-in.o
 .debug_ranges  0x000098f0      0x108 drivers/smc/built-in.o
 .debug_ranges  0x000099f8      0x2c8 drivers/sunxi_flash/built-in.o
 .debug_ranges  0x00009cc0      0x310 fs/built-in.o
 .debug_ranges  0x00009fd0      0x978 lib/built-in.o
 .debug_ranges  0x0000a948      0xab8 lib/libfdt/built-in.o
 .debug_ranges  0x0000b400      0xa08 lib/openssl/built-in.o
 .debug_ranges  0x0000be08       0x90 memtest/built-in.o
 .debug_ranges  0x0000be98      0x428 nand_sunxi/built-in.o
 .debug_ranges  0x0000c2c0      0x5c8 sprite/built-in.o
 .debug_ranges  0x0000c888      0x9f8 usb_sunxi/built-in.o
 .debug_ranges  0x0000d280       0x20 arch/arm/lib/eabi_compat.o
 .debug_ranges  0x0000d2a0     0x1bb0 nand_sunxi/sun50iw2p1/libnand-sun50iw2p1
